
UCCBEmbedded.elf:     file format elf32-littlearm

Sections:
Idx Name          Size      VMA       LMA       File off  Algn
  0 .isr_vector   000000c0  08000000  08000000  00010000  2**0
                  CONTENTS, ALLOC, LOAD, READONLY, DATA
  1 .text         00005eac  080000c0  080000c0  000100c0  2**2
                  CONTENTS, ALLOC, LOAD, READONLY, CODE
  2 .rodata       000002bc  08005f6c  08005f6c  00015f6c  2**2
                  CONTENTS, ALLOC, LOAD, READONLY, DATA
  3 .init_array   00000004  08006228  08006228  00016228  2**2
                  CONTENTS, ALLOC, LOAD, DATA
  4 .fini_array   00000004  0800622c  0800622c  0001622c  2**2
                  CONTENTS, ALLOC, LOAD, DATA
  5 .data         00000160  20000000  08006230  00020000  2**2
                  CONTENTS, ALLOC, LOAD, DATA
  6 .bss          00000e00  20000160  08006390  00020160  2**3
                  ALLOC
  7 ._user_heap_stack 00000600  20000f60  08006390  00020f60  2**0
                  ALLOC
  8 .ARM.attributes 00000028  00000000  00000000  00020160  2**0
                  CONTENTS, READONLY
  9 .debug_info   0002a127  00000000  00000000  00020188  2**0
                  CONTENTS, READONLY, DEBUGGING
 10 .debug_abbrev 0000557a  00000000  00000000  0004a2af  2**0
                  CONTENTS, READONLY, DEBUGGING
 11 .debug_loc    0000b0fb  00000000  00000000  0004f829  2**0
                  CONTENTS, READONLY, DEBUGGING
 12 .debug_aranges 000010d8  00000000  00000000  0005a928  2**3
                  CONTENTS, READONLY, DEBUGGING
 13 .debug_ranges 000012f0  00000000  00000000  0005ba00  2**3
                  CONTENTS, READONLY, DEBUGGING
 14 .debug_macro  0001c74e  00000000  00000000  0005ccf0  2**0
                  CONTENTS, READONLY, DEBUGGING
 15 .debug_line   0001404a  00000000  00000000  0007943e  2**0
                  CONTENTS, READONLY, DEBUGGING
 16 .debug_str    0007f14e  00000000  00000000  0008d488  2**0
                  CONTENTS, READONLY, DEBUGGING
 17 .comment      0000007c  00000000  00000000  0010c5d6  2**0
                  CONTENTS, READONLY
 18 .debug_frame  00002acc  00000000  00000000  0010c654  2**2
                  CONTENTS, READONLY, DEBUGGING

Disassembly of section .text:

080000c0 <__do_global_dtors_aux>:
 80000c0:	b510      	push	{r4, lr}
 80000c2:	4c06      	ldr	r4, [pc, #24]	; (80000dc <__do_global_dtors_aux+0x1c>)
 80000c4:	7823      	ldrb	r3, [r4, #0]
 80000c6:	2b00      	cmp	r3, #0
 80000c8:	d107      	bne.n	80000da <__do_global_dtors_aux+0x1a>
 80000ca:	4b05      	ldr	r3, [pc, #20]	; (80000e0 <__do_global_dtors_aux+0x20>)
 80000cc:	2b00      	cmp	r3, #0
 80000ce:	d002      	beq.n	80000d6 <__do_global_dtors_aux+0x16>
 80000d0:	4804      	ldr	r0, [pc, #16]	; (80000e4 <__do_global_dtors_aux+0x24>)
 80000d2:	e000      	b.n	80000d6 <__do_global_dtors_aux+0x16>
 80000d4:	bf00      	nop
 80000d6:	2301      	movs	r3, #1
 80000d8:	7023      	strb	r3, [r4, #0]
 80000da:	bd10      	pop	{r4, pc}
 80000dc:	20000160 	.word	0x20000160
 80000e0:	00000000 	.word	0x00000000
 80000e4:	08005f54 	.word	0x08005f54

080000e8 <frame_dummy>:
 80000e8:	4b04      	ldr	r3, [pc, #16]	; (80000fc <frame_dummy+0x14>)
 80000ea:	b510      	push	{r4, lr}
 80000ec:	2b00      	cmp	r3, #0
 80000ee:	d003      	beq.n	80000f8 <frame_dummy+0x10>
 80000f0:	4903      	ldr	r1, [pc, #12]	; (8000100 <frame_dummy+0x18>)
 80000f2:	4804      	ldr	r0, [pc, #16]	; (8000104 <frame_dummy+0x1c>)
 80000f4:	e000      	b.n	80000f8 <frame_dummy+0x10>
 80000f6:	bf00      	nop
 80000f8:	bd10      	pop	{r4, pc}
 80000fa:	46c0      	nop			; (mov r8, r8)
 80000fc:	00000000 	.word	0x00000000
 8000100:	20000164 	.word	0x20000164
 8000104:	08005f54 	.word	0x08005f54

08000108 <strcmp>:
 8000108:	7802      	ldrb	r2, [r0, #0]
 800010a:	780b      	ldrb	r3, [r1, #0]
 800010c:	2a00      	cmp	r2, #0
 800010e:	d003      	beq.n	8000118 <strcmp+0x10>
 8000110:	3001      	adds	r0, #1
 8000112:	3101      	adds	r1, #1
 8000114:	429a      	cmp	r2, r3
 8000116:	d0f7      	beq.n	8000108 <strcmp>
 8000118:	1ad0      	subs	r0, r2, r3
 800011a:	4770      	bx	lr

0800011c <__gnu_thumb1_case_sqi>:
 800011c:	b402      	push	{r1}
 800011e:	4671      	mov	r1, lr
 8000120:	0849      	lsrs	r1, r1, #1
 8000122:	0049      	lsls	r1, r1, #1
 8000124:	5609      	ldrsb	r1, [r1, r0]
 8000126:	0049      	lsls	r1, r1, #1
 8000128:	448e      	add	lr, r1
 800012a:	bc02      	pop	{r1}
 800012c:	4770      	bx	lr
 800012e:	46c0      	nop			; (mov r8, r8)

08000130 <__gnu_thumb1_case_uqi>:
 8000130:	b402      	push	{r1}
 8000132:	4671      	mov	r1, lr
 8000134:	0849      	lsrs	r1, r1, #1
 8000136:	0049      	lsls	r1, r1, #1
 8000138:	5c09      	ldrb	r1, [r1, r0]
 800013a:	0049      	lsls	r1, r1, #1
 800013c:	448e      	add	lr, r1
 800013e:	bc02      	pop	{r1}
 8000140:	4770      	bx	lr
 8000142:	46c0      	nop			; (mov r8, r8)

08000144 <__udivsi3>:
 8000144:	2200      	movs	r2, #0
 8000146:	0843      	lsrs	r3, r0, #1
 8000148:	428b      	cmp	r3, r1
 800014a:	d374      	bcc.n	8000236 <__udivsi3+0xf2>
 800014c:	0903      	lsrs	r3, r0, #4
 800014e:	428b      	cmp	r3, r1
 8000150:	d35f      	bcc.n	8000212 <__udivsi3+0xce>
 8000152:	0a03      	lsrs	r3, r0, #8
 8000154:	428b      	cmp	r3, r1
 8000156:	d344      	bcc.n	80001e2 <__udivsi3+0x9e>
 8000158:	0b03      	lsrs	r3, r0, #12
 800015a:	428b      	cmp	r3, r1
 800015c:	d328      	bcc.n	80001b0 <__udivsi3+0x6c>
 800015e:	0c03      	lsrs	r3, r0, #16
 8000160:	428b      	cmp	r3, r1
 8000162:	d30d      	bcc.n	8000180 <__udivsi3+0x3c>
 8000164:	22ff      	movs	r2, #255	; 0xff
 8000166:	0209      	lsls	r1, r1, #8
 8000168:	ba12      	rev	r2, r2
 800016a:	0c03      	lsrs	r3, r0, #16
 800016c:	428b      	cmp	r3, r1
 800016e:	d302      	bcc.n	8000176 <__udivsi3+0x32>
 8000170:	1212      	asrs	r2, r2, #8
 8000172:	0209      	lsls	r1, r1, #8
 8000174:	d065      	beq.n	8000242 <__udivsi3+0xfe>
 8000176:	0b03      	lsrs	r3, r0, #12
 8000178:	428b      	cmp	r3, r1
 800017a:	d319      	bcc.n	80001b0 <__udivsi3+0x6c>
 800017c:	e000      	b.n	8000180 <__udivsi3+0x3c>
 800017e:	0a09      	lsrs	r1, r1, #8
 8000180:	0bc3      	lsrs	r3, r0, #15
 8000182:	428b      	cmp	r3, r1
 8000184:	d301      	bcc.n	800018a <__udivsi3+0x46>
 8000186:	03cb      	lsls	r3, r1, #15
 8000188:	1ac0      	subs	r0, r0, r3
 800018a:	4152      	adcs	r2, r2
 800018c:	0b83      	lsrs	r3, r0, #14
 800018e:	428b      	cmp	r3, r1
 8000190:	d301      	bcc.n	8000196 <__udivsi3+0x52>
 8000192:	038b      	lsls	r3, r1, #14
 8000194:	1ac0      	subs	r0, r0, r3
 8000196:	4152      	adcs	r2, r2
 8000198:	0b43      	lsrs	r3, r0, #13
 800019a:	428b      	cmp	r3, r1
 800019c:	d301      	bcc.n	80001a2 <__udivsi3+0x5e>
 800019e:	034b      	lsls	r3, r1, #13
 80001a0:	1ac0      	subs	r0, r0, r3
 80001a2:	4152      	adcs	r2, r2
 80001a4:	0b03      	lsrs	r3, r0, #12
 80001a6:	428b      	cmp	r3, r1
 80001a8:	d301      	bcc.n	80001ae <__udivsi3+0x6a>
 80001aa:	030b      	lsls	r3, r1, #12
 80001ac:	1ac0      	subs	r0, r0, r3
 80001ae:	4152      	adcs	r2, r2
 80001b0:	0ac3      	lsrs	r3, r0, #11
 80001b2:	428b      	cmp	r3, r1
 80001b4:	d301      	bcc.n	80001ba <__udivsi3+0x76>
 80001b6:	02cb      	lsls	r3, r1, #11
 80001b8:	1ac0      	subs	r0, r0, r3
 80001ba:	4152      	adcs	r2, r2
 80001bc:	0a83      	lsrs	r3, r0, #10
 80001be:	428b      	cmp	r3, r1
 80001c0:	d301      	bcc.n	80001c6 <__udivsi3+0x82>
 80001c2:	028b      	lsls	r3, r1, #10
 80001c4:	1ac0      	subs	r0, r0, r3
 80001c6:	4152      	adcs	r2, r2
 80001c8:	0a43      	lsrs	r3, r0, #9
 80001ca:	428b      	cmp	r3, r1
 80001cc:	d301      	bcc.n	80001d2 <__udivsi3+0x8e>
 80001ce:	024b      	lsls	r3, r1, #9
 80001d0:	1ac0      	subs	r0, r0, r3
 80001d2:	4152      	adcs	r2, r2
 80001d4:	0a03      	lsrs	r3, r0, #8
 80001d6:	428b      	cmp	r3, r1
 80001d8:	d301      	bcc.n	80001de <__udivsi3+0x9a>
 80001da:	020b      	lsls	r3, r1, #8
 80001dc:	1ac0      	subs	r0, r0, r3
 80001de:	4152      	adcs	r2, r2
 80001e0:	d2cd      	bcs.n	800017e <__udivsi3+0x3a>
 80001e2:	09c3      	lsrs	r3, r0, #7
 80001e4:	428b      	cmp	r3, r1
 80001e6:	d301      	bcc.n	80001ec <__udivsi3+0xa8>
 80001e8:	01cb      	lsls	r3, r1, #7
 80001ea:	1ac0      	subs	r0, r0, r3
 80001ec:	4152      	adcs	r2, r2
 80001ee:	0983      	lsrs	r3, r0, #6
 80001f0:	428b      	cmp	r3, r1
 80001f2:	d301      	bcc.n	80001f8 <__udivsi3+0xb4>
 80001f4:	018b      	lsls	r3, r1, #6
 80001f6:	1ac0      	subs	r0, r0, r3
 80001f8:	4152      	adcs	r2, r2
 80001fa:	0943      	lsrs	r3, r0, #5
 80001fc:	428b      	cmp	r3, r1
 80001fe:	d301      	bcc.n	8000204 <__udivsi3+0xc0>
 8000200:	014b      	lsls	r3, r1, #5
 8000202:	1ac0      	subs	r0, r0, r3
 8000204:	4152      	adcs	r2, r2
 8000206:	0903      	lsrs	r3, r0, #4
 8000208:	428b      	cmp	r3, r1
 800020a:	d301      	bcc.n	8000210 <__udivsi3+0xcc>
 800020c:	010b      	lsls	r3, r1, #4
 800020e:	1ac0      	subs	r0, r0, r3
 8000210:	4152      	adcs	r2, r2
 8000212:	08c3      	lsrs	r3, r0, #3
 8000214:	428b      	cmp	r3, r1
 8000216:	d301      	bcc.n	800021c <__udivsi3+0xd8>
 8000218:	00cb      	lsls	r3, r1, #3
 800021a:	1ac0      	subs	r0, r0, r3
 800021c:	4152      	adcs	r2, r2
 800021e:	0883      	lsrs	r3, r0, #2
 8000220:	428b      	cmp	r3, r1
 8000222:	d301      	bcc.n	8000228 <__udivsi3+0xe4>
 8000224:	008b      	lsls	r3, r1, #2
 8000226:	1ac0      	subs	r0, r0, r3
 8000228:	4152      	adcs	r2, r2
 800022a:	0843      	lsrs	r3, r0, #1
 800022c:	428b      	cmp	r3, r1
 800022e:	d301      	bcc.n	8000234 <__udivsi3+0xf0>
 8000230:	004b      	lsls	r3, r1, #1
 8000232:	1ac0      	subs	r0, r0, r3
 8000234:	4152      	adcs	r2, r2
 8000236:	1a41      	subs	r1, r0, r1
 8000238:	d200      	bcs.n	800023c <__udivsi3+0xf8>
 800023a:	4601      	mov	r1, r0
 800023c:	4152      	adcs	r2, r2
 800023e:	4610      	mov	r0, r2
 8000240:	4770      	bx	lr
 8000242:	e7ff      	b.n	8000244 <__udivsi3+0x100>
 8000244:	b501      	push	{r0, lr}
 8000246:	2000      	movs	r0, #0
 8000248:	f000 f806 	bl	8000258 <__aeabi_idiv0>
 800024c:	bd02      	pop	{r1, pc}
 800024e:	46c0      	nop			; (mov r8, r8)

08000250 <__aeabi_uidivmod>:
 8000250:	2900      	cmp	r1, #0
 8000252:	d0f7      	beq.n	8000244 <__udivsi3+0x100>
 8000254:	e776      	b.n	8000144 <__udivsi3>
 8000256:	4770      	bx	lr

08000258 <__aeabi_idiv0>:
 8000258:	4770      	bx	lr
 800025a:	46c0      	nop			; (mov r8, r8)

0800025c <HAL_InitTick>:
  *       implementation  in user file.
  * @param TickPriority Tick interrupt priority.
  * @retval HAL status
  */
__weak HAL_StatusTypeDef HAL_InitTick(uint32_t TickPriority)
{
 800025c:	b510      	push	{r4, lr}
 800025e:	0004      	movs	r4, r0
  /*Configure the SysTick to have interrupt in 1ms time basis*/
  HAL_SYSTICK_Config(HAL_RCC_GetHCLKFreq()/1000U);
 8000260:	f002 fcce 	bl	8002c00 <HAL_RCC_GetHCLKFreq>
 8000264:	21fa      	movs	r1, #250	; 0xfa
 8000266:	0089      	lsls	r1, r1, #2
 8000268:	f7ff ff6c 	bl	8000144 <__udivsi3>
 800026c:	f000 fcf0 	bl	8000c50 <HAL_SYSTICK_Config>

  /*Configure the SysTick IRQ priority */
  HAL_NVIC_SetPriority(SysTick_IRQn, TickPriority ,0U);
 8000270:	2200      	movs	r2, #0
 8000272:	0021      	movs	r1, r4
 8000274:	2001      	movs	r0, #1
 8000276:	4240      	negs	r0, r0
 8000278:	f000 fca4 	bl	8000bc4 <HAL_NVIC_SetPriority>

   /* Return function status */
  return HAL_OK;
}
 800027c:	2000      	movs	r0, #0
 800027e:	bd10      	pop	{r4, pc}

08000280 <HAL_Init>:
{
 8000280:	b510      	push	{r4, lr}
  __HAL_FLASH_PREFETCH_BUFFER_ENABLE();
 8000282:	4a06      	ldr	r2, [pc, #24]	; (800029c <HAL_Init+0x1c>)
 8000284:	6813      	ldr	r3, [r2, #0]
 8000286:	2110      	movs	r1, #16
 8000288:	430b      	orrs	r3, r1
 800028a:	6013      	str	r3, [r2, #0]
  HAL_InitTick(TICK_INT_PRIORITY);
 800028c:	2000      	movs	r0, #0
 800028e:	f7ff ffe5 	bl	800025c <HAL_InitTick>
  HAL_MspInit();
 8000292:	f005 fa1b 	bl	80056cc <HAL_MspInit>
}
 8000296:	2000      	movs	r0, #0
 8000298:	bd10      	pop	{r4, pc}
 800029a:	46c0      	nop			; (mov r8, r8)
 800029c:	40022000 	.word	0x40022000

080002a0 <HAL_IncTick>:
  *       implementations in user file.
  * @retval None
  */
__weak void HAL_IncTick(void)
{
  uwTick++;
 80002a0:	4a02      	ldr	r2, [pc, #8]	; (80002ac <HAL_IncTick+0xc>)
 80002a2:	6813      	ldr	r3, [r2, #0]
 80002a4:	3301      	adds	r3, #1
 80002a6:	6013      	str	r3, [r2, #0]
}
 80002a8:	4770      	bx	lr
 80002aa:	46c0      	nop			; (mov r8, r8)
 80002ac:	200004f4 	.word	0x200004f4

080002b0 <HAL_GetTick>:
  *       implementations in user file.
  * @retval tick value
  */
__weak uint32_t HAL_GetTick(void)
{
  return uwTick;
 80002b0:	4b01      	ldr	r3, [pc, #4]	; (80002b8 <HAL_GetTick+0x8>)
 80002b2:	6818      	ldr	r0, [r3, #0]
}
 80002b4:	4770      	bx	lr
 80002b6:	46c0      	nop			; (mov r8, r8)
 80002b8:	200004f4 	.word	0x200004f4

080002bc <HAL_Delay>:
  *       implementations in user file.
  * @param Delay specifies the delay time length, in milliseconds.
  * @retval None
  */
__weak void HAL_Delay(__IO uint32_t Delay)
{
 80002bc:	b530      	push	{r4, r5, lr}
 80002be:	b083      	sub	sp, #12
 80002c0:	9001      	str	r0, [sp, #4]
  uint32_t tickstart = HAL_GetTick();
 80002c2:	f7ff fff5 	bl	80002b0 <HAL_GetTick>
 80002c6:	0005      	movs	r5, r0
  uint32_t wait = Delay;
 80002c8:	9c01      	ldr	r4, [sp, #4]
  
  /* Add a period to guarantee minimum wait */
  if (wait < HAL_MAX_DELAY)
 80002ca:	1c63      	adds	r3, r4, #1
 80002cc:	d000      	beq.n	80002d0 <HAL_Delay+0x14>
  {
     wait++;
 80002ce:	3401      	adds	r4, #1
  }
  
  while((HAL_GetTick() - tickstart) < wait)
 80002d0:	f7ff ffee 	bl	80002b0 <HAL_GetTick>
 80002d4:	1b40      	subs	r0, r0, r5
 80002d6:	42a0      	cmp	r0, r4
 80002d8:	d3fa      	bcc.n	80002d0 <HAL_Delay+0x14>
  {
  }
}
 80002da:	b003      	add	sp, #12
 80002dc:	bd30      	pop	{r4, r5, pc}
	...

080002e0 <HAL_CAN_ConfigFilter>:
  * @param  sFilterConfig pointer to a CAN_FilterConfTypeDef structure that
  *         contains the filter configuration information.
  * @retval None
  */
HAL_StatusTypeDef HAL_CAN_ConfigFilter(CAN_HandleTypeDef* hcan, CAN_FilterConfTypeDef* sFilterConfig)
{
 80002e0:	b5f0      	push	{r4, r5, r6, r7, lr}
  assert_param(IS_CAN_FILTER_SCALE(sFilterConfig->FilterScale));
  assert_param(IS_CAN_FILTER_FIFO(sFilterConfig->FilterFIFOAssignment));
  assert_param(IS_FUNCTIONAL_STATE(sFilterConfig->FilterActivation));
  assert_param(IS_CAN_BANKNUMBER(sFilterConfig->BankNumber));
  
  filternbrbitpos = (1U) << sFilterConfig->FilterNumber;
 80002e2:	2701      	movs	r7, #1
 80002e4:	003a      	movs	r2, r7
 80002e6:	694b      	ldr	r3, [r1, #20]
 80002e8:	409a      	lsls	r2, r3

  /* Initialisation mode for the filter */
  /* Select the start slave bank */
  MODIFY_REG(hcan->Instance->FMR                         ,
 80002ea:	6804      	ldr	r4, [r0, #0]
 80002ec:	2680      	movs	r6, #128	; 0x80
 80002ee:	00b6      	lsls	r6, r6, #2
 80002f0:	59a3      	ldr	r3, [r4, r6]
 80002f2:	4d41      	ldr	r5, [pc, #260]	; (80003f8 <HAL_CAN_ConfigFilter+0x118>)
 80002f4:	402b      	ands	r3, r5
 80002f6:	6a4d      	ldr	r5, [r1, #36]	; 0x24
 80002f8:	022d      	lsls	r5, r5, #8
 80002fa:	432b      	orrs	r3, r5
 80002fc:	433b      	orrs	r3, r7
 80002fe:	51a3      	str	r3, [r4, r6]
             CAN_FMR_CAN2SB                              ,
             CAN_FMR_FINIT                              |
             (uint32_t)(sFilterConfig->BankNumber << 8U)   );  /* Filter Deactivation */
  CLEAR_BIT(hcan->Instance->FA1R, filternbrbitpos);
 8000300:	6806      	ldr	r6, [r0, #0]
 8000302:	2587      	movs	r5, #135	; 0x87
 8000304:	00ad      	lsls	r5, r5, #2
 8000306:	5973      	ldr	r3, [r6, r5]
 8000308:	43d4      	mvns	r4, r2
 800030a:	4023      	ands	r3, r4
 800030c:	5173      	str	r3, [r6, r5]

  /* Filter Scale */
  if (sFilterConfig->FilterScale == CAN_FILTERSCALE_16BIT)
 800030e:	69cb      	ldr	r3, [r1, #28]
 8000310:	2b00      	cmp	r3, #0
 8000312:	d11c      	bne.n	800034e <HAL_CAN_ConfigFilter+0x6e>
  {
    /* 16-bit scale for the filter */
    CLEAR_BIT(hcan->Instance->FS1R, filternbrbitpos);
 8000314:	6806      	ldr	r6, [r0, #0]
 8000316:	3d10      	subs	r5, #16
 8000318:	5973      	ldr	r3, [r6, r5]
 800031a:	4023      	ands	r3, r4
 800031c:	5173      	str	r3, [r6, r5]

    /* First 16-bit identifier and First 16-bit mask */
    /* Or First 16-bit identifier and Second 16-bit identifier */
    hcan->Instance->sFilterRegister[sFilterConfig->FilterNumber].FR1 = 
       ((0x0000FFFFU & (uint32_t)sFilterConfig->FilterMaskIdLow) << 16U) |
 800031e:	68cb      	ldr	r3, [r1, #12]
 8000320:	041d      	lsls	r5, r3, #16
        (0x0000FFFFU & (uint32_t)sFilterConfig->FilterIdLow);
 8000322:	684b      	ldr	r3, [r1, #4]
 8000324:	041b      	lsls	r3, r3, #16
 8000326:	0c1b      	lsrs	r3, r3, #16
       ((0x0000FFFFU & (uint32_t)sFilterConfig->FilterMaskIdLow) << 16U) |
 8000328:	431d      	orrs	r5, r3
    hcan->Instance->sFilterRegister[sFilterConfig->FilterNumber].FR1 = 
 800032a:	694b      	ldr	r3, [r1, #20]
 800032c:	3348      	adds	r3, #72	; 0x48
 800032e:	00db      	lsls	r3, r3, #3
 8000330:	6806      	ldr	r6, [r0, #0]
 8000332:	519d      	str	r5, [r3, r6]

    /* Second 16-bit identifier and Second 16-bit mask */
    /* Or Third 16-bit identifier and Fourth 16-bit identifier */
    hcan->Instance->sFilterRegister[sFilterConfig->FilterNumber].FR2 = 
       ((0x0000FFFFU & (uint32_t)sFilterConfig->FilterMaskIdHigh) << 16U) |
 8000334:	688b      	ldr	r3, [r1, #8]
 8000336:	041b      	lsls	r3, r3, #16
        (0x0000FFFFU & (uint32_t)sFilterConfig->FilterIdHigh);
 8000338:	680d      	ldr	r5, [r1, #0]
 800033a:	042d      	lsls	r5, r5, #16
 800033c:	0c2d      	lsrs	r5, r5, #16
       ((0x0000FFFFU & (uint32_t)sFilterConfig->FilterMaskIdHigh) << 16U) |
 800033e:	432b      	orrs	r3, r5
    hcan->Instance->sFilterRegister[sFilterConfig->FilterNumber].FR2 = 
 8000340:	694d      	ldr	r5, [r1, #20]
 8000342:	3548      	adds	r5, #72	; 0x48
 8000344:	00ed      	lsls	r5, r5, #3
 8000346:	6806      	ldr	r6, [r0, #0]
 8000348:	46b4      	mov	ip, r6
 800034a:	4465      	add	r5, ip
 800034c:	606b      	str	r3, [r5, #4]
  }

  if (sFilterConfig->FilterScale == CAN_FILTERSCALE_32BIT)
 800034e:	69cb      	ldr	r3, [r1, #28]
 8000350:	2b01      	cmp	r3, #1
 8000352:	d01d      	beq.n	8000390 <HAL_CAN_ConfigFilter+0xb0>
       ((0x0000FFFFU & (uint32_t)sFilterConfig->FilterMaskIdHigh) << 16U) |
        (0x0000FFFFU & (uint32_t)sFilterConfig->FilterMaskIdLow);
  }

  /* Filter Mode */
  if (sFilterConfig->FilterMode == CAN_FILTERMODE_IDMASK)
 8000354:	698b      	ldr	r3, [r1, #24]
 8000356:	2b00      	cmp	r3, #0
 8000358:	d139      	bne.n	80003ce <HAL_CAN_ConfigFilter+0xee>
  {
    /*Id/Mask mode for the filter*/
    CLEAR_BIT(hcan->Instance->FM1R, filternbrbitpos);
 800035a:	6806      	ldr	r6, [r0, #0]
 800035c:	2581      	movs	r5, #129	; 0x81
 800035e:	00ad      	lsls	r5, r5, #2
 8000360:	5973      	ldr	r3, [r6, r5]
 8000362:	4023      	ands	r3, r4
 8000364:	5173      	str	r3, [r6, r5]
    /*Identifier list mode for the filter*/
    SET_BIT(hcan->Instance->FM1R, filternbrbitpos);
  }

  /* Filter FIFO assignment */
  if (sFilterConfig->FilterFIFOAssignment == CAN_FILTER_FIFO0)
 8000366:	690b      	ldr	r3, [r1, #16]
 8000368:	2b00      	cmp	r3, #0
 800036a:	d137      	bne.n	80003dc <HAL_CAN_ConfigFilter+0xfc>
  {
    /* FIFO 0 assignation for the filter */
    CLEAR_BIT(hcan->Instance->FFA1R, filternbrbitpos);
 800036c:	6806      	ldr	r6, [r0, #0]
 800036e:	2585      	movs	r5, #133	; 0x85
 8000370:	00ad      	lsls	r5, r5, #2
 8000372:	5973      	ldr	r3, [r6, r5]
 8000374:	401c      	ands	r4, r3
 8000376:	5174      	str	r4, [r6, r5]
    /* FIFO 1 assignation for the filter */
    SET_BIT(hcan->Instance->FFA1R, filternbrbitpos);
  }
  
  /* Filter activation */
  if (sFilterConfig->FilterActivation == ENABLE)
 8000378:	6a0b      	ldr	r3, [r1, #32]
 800037a:	2b01      	cmp	r3, #1
 800037c:	d035      	beq.n	80003ea <HAL_CAN_ConfigFilter+0x10a>
  {
    SET_BIT(hcan->Instance->FA1R, filternbrbitpos);
  }

  /* Leave the initialisation mode for the filter */
  CLEAR_BIT(hcan->Instance->FMR, ((uint32_t)CAN_FMR_FINIT));
 800037e:	6801      	ldr	r1, [r0, #0]
 8000380:	2280      	movs	r2, #128	; 0x80
 8000382:	0092      	lsls	r2, r2, #2
 8000384:	588b      	ldr	r3, [r1, r2]
 8000386:	2001      	movs	r0, #1
 8000388:	4383      	bics	r3, r0
 800038a:	508b      	str	r3, [r1, r2]
  
  /* Return function status */
  return HAL_OK;
}
 800038c:	2000      	movs	r0, #0
 800038e:	bdf0      	pop	{r4, r5, r6, r7, pc}
    SET_BIT(hcan->Instance->FS1R, filternbrbitpos);
 8000390:	6806      	ldr	r6, [r0, #0]
 8000392:	2583      	movs	r5, #131	; 0x83
 8000394:	00ad      	lsls	r5, r5, #2
 8000396:	5973      	ldr	r3, [r6, r5]
 8000398:	4313      	orrs	r3, r2
 800039a:	5173      	str	r3, [r6, r5]
       ((0x0000FFFFU & (uint32_t)sFilterConfig->FilterIdHigh) << 16U) |
 800039c:	680b      	ldr	r3, [r1, #0]
 800039e:	041d      	lsls	r5, r3, #16
        (0x0000FFFFU & (uint32_t)sFilterConfig->FilterIdLow);
 80003a0:	684b      	ldr	r3, [r1, #4]
 80003a2:	041b      	lsls	r3, r3, #16
 80003a4:	0c1b      	lsrs	r3, r3, #16
       ((0x0000FFFFU & (uint32_t)sFilterConfig->FilterIdHigh) << 16U) |
 80003a6:	431d      	orrs	r5, r3
    hcan->Instance->sFilterRegister[sFilterConfig->FilterNumber].FR1 = 
 80003a8:	694b      	ldr	r3, [r1, #20]
 80003aa:	3348      	adds	r3, #72	; 0x48
 80003ac:	00db      	lsls	r3, r3, #3
 80003ae:	6806      	ldr	r6, [r0, #0]
 80003b0:	519d      	str	r5, [r3, r6]
       ((0x0000FFFFU & (uint32_t)sFilterConfig->FilterMaskIdHigh) << 16U) |
 80003b2:	688b      	ldr	r3, [r1, #8]
 80003b4:	041b      	lsls	r3, r3, #16
        (0x0000FFFFU & (uint32_t)sFilterConfig->FilterMaskIdLow);
 80003b6:	68cd      	ldr	r5, [r1, #12]
 80003b8:	042d      	lsls	r5, r5, #16
 80003ba:	0c2d      	lsrs	r5, r5, #16
       ((0x0000FFFFU & (uint32_t)sFilterConfig->FilterMaskIdHigh) << 16U) |
 80003bc:	432b      	orrs	r3, r5
    hcan->Instance->sFilterRegister[sFilterConfig->FilterNumber].FR2 = 
 80003be:	694d      	ldr	r5, [r1, #20]
 80003c0:	3548      	adds	r5, #72	; 0x48
 80003c2:	00ed      	lsls	r5, r5, #3
 80003c4:	6806      	ldr	r6, [r0, #0]
 80003c6:	46b4      	mov	ip, r6
 80003c8:	4465      	add	r5, ip
 80003ca:	606b      	str	r3, [r5, #4]
 80003cc:	e7c2      	b.n	8000354 <HAL_CAN_ConfigFilter+0x74>
    SET_BIT(hcan->Instance->FM1R, filternbrbitpos);
 80003ce:	6806      	ldr	r6, [r0, #0]
 80003d0:	2581      	movs	r5, #129	; 0x81
 80003d2:	00ad      	lsls	r5, r5, #2
 80003d4:	5973      	ldr	r3, [r6, r5]
 80003d6:	4313      	orrs	r3, r2
 80003d8:	5173      	str	r3, [r6, r5]
 80003da:	e7c4      	b.n	8000366 <HAL_CAN_ConfigFilter+0x86>
    SET_BIT(hcan->Instance->FFA1R, filternbrbitpos);
 80003dc:	6805      	ldr	r5, [r0, #0]
 80003de:	2485      	movs	r4, #133	; 0x85
 80003e0:	00a4      	lsls	r4, r4, #2
 80003e2:	592b      	ldr	r3, [r5, r4]
 80003e4:	4313      	orrs	r3, r2
 80003e6:	512b      	str	r3, [r5, r4]
 80003e8:	e7c6      	b.n	8000378 <HAL_CAN_ConfigFilter+0x98>
    SET_BIT(hcan->Instance->FA1R, filternbrbitpos);
 80003ea:	6801      	ldr	r1, [r0, #0]
 80003ec:	2387      	movs	r3, #135	; 0x87
 80003ee:	009b      	lsls	r3, r3, #2
 80003f0:	58cc      	ldr	r4, [r1, r3]
 80003f2:	4322      	orrs	r2, r4
 80003f4:	50ca      	str	r2, [r1, r3]
 80003f6:	e7c2      	b.n	800037e <HAL_CAN_ConfigFilter+0x9e>
 80003f8:	ffffc0ff 	.word	0xffffc0ff

080003fc <HAL_CAN_Init>:
{
 80003fc:	b570      	push	{r4, r5, r6, lr}
 80003fe:	1e04      	subs	r4, r0, #0
  if(hcan == NULL)
 8000400:	d100      	bne.n	8000404 <HAL_CAN_Init+0x8>
 8000402:	e0b9      	b.n	8000578 <HAL_CAN_Init+0x17c>
  if(hcan->State == HAL_CAN_STATE_RESET)
 8000404:	233d      	movs	r3, #61	; 0x3d
 8000406:	5cc3      	ldrb	r3, [r0, r3]
 8000408:	2b00      	cmp	r3, #0
 800040a:	d01f      	beq.n	800044c <HAL_CAN_Init+0x50>
  hcan->State = HAL_CAN_STATE_BUSY;
 800040c:	2102      	movs	r1, #2
 800040e:	233d      	movs	r3, #61	; 0x3d
 8000410:	54e1      	strb	r1, [r4, r3]
  CLEAR_BIT(hcan->Instance->MCR, CAN_MCR_SLEEP);
 8000412:	6822      	ldr	r2, [r4, #0]
 8000414:	6813      	ldr	r3, [r2, #0]
 8000416:	438b      	bics	r3, r1
 8000418:	6013      	str	r3, [r2, #0]
  SET_BIT(hcan->Instance->MCR, CAN_MCR_INRQ);
 800041a:	6822      	ldr	r2, [r4, #0]
 800041c:	6813      	ldr	r3, [r2, #0]
 800041e:	3901      	subs	r1, #1
 8000420:	430b      	orrs	r3, r1
 8000422:	6013      	str	r3, [r2, #0]
  tickstart = HAL_GetTick();   
 8000424:	f7ff ff44 	bl	80002b0 <HAL_GetTick>
 8000428:	0005      	movs	r5, r0
  while(HAL_IS_BIT_CLR(hcan->Instance->MSR, CAN_MSR_INAK))
 800042a:	6823      	ldr	r3, [r4, #0]
 800042c:	685a      	ldr	r2, [r3, #4]
 800042e:	07d2      	lsls	r2, r2, #31
 8000430:	d412      	bmi.n	8000458 <HAL_CAN_Init+0x5c>
    if((HAL_GetTick()-tickstart) > CAN_TIMEOUT_VALUE)
 8000432:	f7ff ff3d 	bl	80002b0 <HAL_GetTick>
 8000436:	1b40      	subs	r0, r0, r5
 8000438:	280a      	cmp	r0, #10
 800043a:	d9f6      	bls.n	800042a <HAL_CAN_Init+0x2e>
      hcan->State= HAL_CAN_STATE_TIMEOUT;
 800043c:	2203      	movs	r2, #3
 800043e:	233d      	movs	r3, #61	; 0x3d
 8000440:	54e2      	strb	r2, [r4, r3]
      __HAL_UNLOCK(hcan);
 8000442:	2200      	movs	r2, #0
 8000444:	3b01      	subs	r3, #1
 8000446:	54e2      	strb	r2, [r4, r3]
      return HAL_TIMEOUT;
 8000448:	2003      	movs	r0, #3
}
 800044a:	bd70      	pop	{r4, r5, r6, pc}
    hcan->Lock = HAL_UNLOCKED;
 800044c:	2200      	movs	r2, #0
 800044e:	333c      	adds	r3, #60	; 0x3c
 8000450:	54c2      	strb	r2, [r0, r3]
    HAL_CAN_MspInit(hcan);
 8000452:	f005 f965 	bl	8005720 <HAL_CAN_MspInit>
 8000456:	e7d9      	b.n	800040c <HAL_CAN_Init+0x10>
  if (HAL_IS_BIT_SET(hcan->Instance->MSR, CAN_MSR_INAK))
 8000458:	685a      	ldr	r2, [r3, #4]
 800045a:	07d2      	lsls	r2, r2, #31
 800045c:	d57b      	bpl.n	8000556 <HAL_CAN_Init+0x15a>
    if (hcan->Init.TTCM == ENABLE)
 800045e:	69a2      	ldr	r2, [r4, #24]
 8000460:	2a01      	cmp	r2, #1
 8000462:	d050      	beq.n	8000506 <HAL_CAN_Init+0x10a>
      CLEAR_BIT(hcan->Instance->MCR, CAN_MCR_TTCM);
 8000464:	681a      	ldr	r2, [r3, #0]
 8000466:	2180      	movs	r1, #128	; 0x80
 8000468:	438a      	bics	r2, r1
 800046a:	601a      	str	r2, [r3, #0]
    if (hcan->Init.ABOM == ENABLE)
 800046c:	69e3      	ldr	r3, [r4, #28]
 800046e:	2b01      	cmp	r3, #1
 8000470:	d04e      	beq.n	8000510 <HAL_CAN_Init+0x114>
      CLEAR_BIT(hcan->Instance->MCR, CAN_MCR_ABOM);
 8000472:	6822      	ldr	r2, [r4, #0]
 8000474:	6813      	ldr	r3, [r2, #0]
 8000476:	2140      	movs	r1, #64	; 0x40
 8000478:	438b      	bics	r3, r1
 800047a:	6013      	str	r3, [r2, #0]
    if (hcan->Init.AWUM == ENABLE)
 800047c:	6a23      	ldr	r3, [r4, #32]
 800047e:	2b01      	cmp	r3, #1
 8000480:	d04c      	beq.n	800051c <HAL_CAN_Init+0x120>
      CLEAR_BIT(hcan->Instance->MCR, CAN_MCR_AWUM);
 8000482:	6822      	ldr	r2, [r4, #0]
 8000484:	6813      	ldr	r3, [r2, #0]
 8000486:	2120      	movs	r1, #32
 8000488:	438b      	bics	r3, r1
 800048a:	6013      	str	r3, [r2, #0]
    if (hcan->Init.NART == ENABLE)
 800048c:	6a63      	ldr	r3, [r4, #36]	; 0x24
 800048e:	2b01      	cmp	r3, #1
 8000490:	d04a      	beq.n	8000528 <HAL_CAN_Init+0x12c>
      CLEAR_BIT(hcan->Instance->MCR, CAN_MCR_NART);
 8000492:	6822      	ldr	r2, [r4, #0]
 8000494:	6813      	ldr	r3, [r2, #0]
 8000496:	2110      	movs	r1, #16
 8000498:	438b      	bics	r3, r1
 800049a:	6013      	str	r3, [r2, #0]
    if (hcan->Init.RFLM == ENABLE)
 800049c:	6aa3      	ldr	r3, [r4, #40]	; 0x28
 800049e:	2b01      	cmp	r3, #1
 80004a0:	d048      	beq.n	8000534 <HAL_CAN_Init+0x138>
      CLEAR_BIT(hcan->Instance->MCR, CAN_MCR_RFLM);
 80004a2:	6822      	ldr	r2, [r4, #0]
 80004a4:	6813      	ldr	r3, [r2, #0]
 80004a6:	2108      	movs	r1, #8
 80004a8:	438b      	bics	r3, r1
 80004aa:	6013      	str	r3, [r2, #0]
    if (hcan->Init.TXFP == ENABLE)
 80004ac:	6ae3      	ldr	r3, [r4, #44]	; 0x2c
 80004ae:	2b01      	cmp	r3, #1
 80004b0:	d046      	beq.n	8000540 <HAL_CAN_Init+0x144>
      CLEAR_BIT(hcan->Instance->MCR, CAN_MCR_TXFP);
 80004b2:	6822      	ldr	r2, [r4, #0]
 80004b4:	6813      	ldr	r3, [r2, #0]
 80004b6:	2104      	movs	r1, #4
 80004b8:	438b      	bics	r3, r1
 80004ba:	6013      	str	r3, [r2, #0]
    WRITE_REG(hcan->Instance->BTR, (uint32_t)(hcan->Init.Mode           |
 80004bc:	6821      	ldr	r1, [r4, #0]
 80004be:	68a3      	ldr	r3, [r4, #8]
 80004c0:	68e2      	ldr	r2, [r4, #12]
 80004c2:	4313      	orrs	r3, r2
 80004c4:	6922      	ldr	r2, [r4, #16]
 80004c6:	4313      	orrs	r3, r2
 80004c8:	6962      	ldr	r2, [r4, #20]
 80004ca:	4313      	orrs	r3, r2
 80004cc:	6862      	ldr	r2, [r4, #4]
 80004ce:	3a01      	subs	r2, #1
 80004d0:	4313      	orrs	r3, r2
 80004d2:	61cb      	str	r3, [r1, #28]
    CLEAR_BIT(hcan->Instance->MCR, CAN_MCR_INRQ);
 80004d4:	6822      	ldr	r2, [r4, #0]
 80004d6:	6813      	ldr	r3, [r2, #0]
 80004d8:	2101      	movs	r1, #1
 80004da:	438b      	bics	r3, r1
 80004dc:	6013      	str	r3, [r2, #0]
    tickstart = HAL_GetTick();   
 80004de:	f7ff fee7 	bl	80002b0 <HAL_GetTick>
 80004e2:	0005      	movs	r5, r0
    while(HAL_IS_BIT_SET(hcan->Instance->MSR, CAN_MSR_INAK))
 80004e4:	6823      	ldr	r3, [r4, #0]
 80004e6:	685a      	ldr	r2, [r3, #4]
 80004e8:	07d2      	lsls	r2, r2, #31
 80004ea:	d52f      	bpl.n	800054c <HAL_CAN_Init+0x150>
      if((HAL_GetTick()-tickstart) > CAN_TIMEOUT_VALUE)
 80004ec:	f7ff fee0 	bl	80002b0 <HAL_GetTick>
 80004f0:	1b40      	subs	r0, r0, r5
 80004f2:	280a      	cmp	r0, #10
 80004f4:	d9f6      	bls.n	80004e4 <HAL_CAN_Init+0xe8>
         hcan->State= HAL_CAN_STATE_TIMEOUT;
 80004f6:	2203      	movs	r2, #3
 80004f8:	233d      	movs	r3, #61	; 0x3d
 80004fa:	54e2      	strb	r2, [r4, r3]
       __HAL_UNLOCK(hcan);
 80004fc:	2200      	movs	r2, #0
 80004fe:	3b01      	subs	r3, #1
 8000500:	54e2      	strb	r2, [r4, r3]
       return HAL_TIMEOUT;
 8000502:	2003      	movs	r0, #3
 8000504:	e7a1      	b.n	800044a <HAL_CAN_Init+0x4e>
      SET_BIT(hcan->Instance->MCR, CAN_MCR_TTCM);
 8000506:	681a      	ldr	r2, [r3, #0]
 8000508:	2180      	movs	r1, #128	; 0x80
 800050a:	430a      	orrs	r2, r1
 800050c:	601a      	str	r2, [r3, #0]
 800050e:	e7ad      	b.n	800046c <HAL_CAN_Init+0x70>
      SET_BIT(hcan->Instance->MCR, CAN_MCR_ABOM);
 8000510:	6822      	ldr	r2, [r4, #0]
 8000512:	6813      	ldr	r3, [r2, #0]
 8000514:	2140      	movs	r1, #64	; 0x40
 8000516:	430b      	orrs	r3, r1
 8000518:	6013      	str	r3, [r2, #0]
 800051a:	e7af      	b.n	800047c <HAL_CAN_Init+0x80>
      SET_BIT(hcan->Instance->MCR, CAN_MCR_AWUM);
 800051c:	6822      	ldr	r2, [r4, #0]
 800051e:	6813      	ldr	r3, [r2, #0]
 8000520:	2120      	movs	r1, #32
 8000522:	430b      	orrs	r3, r1
 8000524:	6013      	str	r3, [r2, #0]
 8000526:	e7b1      	b.n	800048c <HAL_CAN_Init+0x90>
      SET_BIT(hcan->Instance->MCR, CAN_MCR_NART);
 8000528:	6822      	ldr	r2, [r4, #0]
 800052a:	6813      	ldr	r3, [r2, #0]
 800052c:	2110      	movs	r1, #16
 800052e:	430b      	orrs	r3, r1
 8000530:	6013      	str	r3, [r2, #0]
 8000532:	e7b3      	b.n	800049c <HAL_CAN_Init+0xa0>
      SET_BIT(hcan->Instance->MCR, CAN_MCR_RFLM);
 8000534:	6822      	ldr	r2, [r4, #0]
 8000536:	6813      	ldr	r3, [r2, #0]
 8000538:	2108      	movs	r1, #8
 800053a:	430b      	orrs	r3, r1
 800053c:	6013      	str	r3, [r2, #0]
 800053e:	e7b5      	b.n	80004ac <HAL_CAN_Init+0xb0>
      SET_BIT(hcan->Instance->MCR, CAN_MCR_TXFP);
 8000540:	6822      	ldr	r2, [r4, #0]
 8000542:	6813      	ldr	r3, [r2, #0]
 8000544:	2104      	movs	r1, #4
 8000546:	430b      	orrs	r3, r1
 8000548:	6013      	str	r3, [r2, #0]
 800054a:	e7b7      	b.n	80004bc <HAL_CAN_Init+0xc0>
    if(HAL_IS_BIT_CLR(hcan->Instance->MSR, CAN_MSR_INAK))
 800054c:	685b      	ldr	r3, [r3, #4]
 800054e:	07db      	lsls	r3, r3, #31
 8000550:	d509      	bpl.n	8000566 <HAL_CAN_Init+0x16a>
  uint32_t status = CAN_INITSTATUS_FAILED;  /* Default init status */
 8000552:	2300      	movs	r3, #0
 8000554:	e000      	b.n	8000558 <HAL_CAN_Init+0x15c>
 8000556:	2300      	movs	r3, #0
  if(status == CAN_INITSTATUS_SUCCESS)
 8000558:	2b01      	cmp	r3, #1
 800055a:	d006      	beq.n	800056a <HAL_CAN_Init+0x16e>
    hcan->State = HAL_CAN_STATE_ERROR;
 800055c:	2204      	movs	r2, #4
 800055e:	233d      	movs	r3, #61	; 0x3d
 8000560:	54e2      	strb	r2, [r4, r3]
    return HAL_ERROR;
 8000562:	2001      	movs	r0, #1
 8000564:	e771      	b.n	800044a <HAL_CAN_Init+0x4e>
      status = CAN_INITSTATUS_SUCCESS;
 8000566:	2301      	movs	r3, #1
 8000568:	e7f6      	b.n	8000558 <HAL_CAN_Init+0x15c>
    hcan->ErrorCode = HAL_CAN_ERROR_NONE;
 800056a:	2300      	movs	r3, #0
 800056c:	6423      	str	r3, [r4, #64]	; 0x40
    hcan->State = HAL_CAN_STATE_READY;
 800056e:	2201      	movs	r2, #1
 8000570:	333d      	adds	r3, #61	; 0x3d
 8000572:	54e2      	strb	r2, [r4, r3]
    return HAL_OK;
 8000574:	2000      	movs	r0, #0
 8000576:	e768      	b.n	800044a <HAL_CAN_Init+0x4e>
     return HAL_ERROR;
 8000578:	2001      	movs	r0, #1
 800057a:	e766      	b.n	800044a <HAL_CAN_Init+0x4e>

0800057c <HAL_CAN_Transmit>:
  *         the configuration information for the specified CAN.  
  * @param  Timeout Timeout duration.
  * @retval HAL status
  */
HAL_StatusTypeDef HAL_CAN_Transmit(CAN_HandleTypeDef* hcan, uint32_t Timeout)
{
 800057c:	b5f8      	push	{r3, r4, r5, r6, r7, lr}
 800057e:	0004      	movs	r4, r0
  /* Check the parameters */
  assert_param(IS_CAN_IDTYPE(hcan->pTxMsg->IDE));
  assert_param(IS_CAN_RTR(hcan->pTxMsg->RTR));
  assert_param(IS_CAN_DLC(hcan->pTxMsg->DLC));

  if(((hcan->Instance->TSR&CAN_TSR_TME0) == CAN_TSR_TME0) || \
 8000580:	6803      	ldr	r3, [r0, #0]
 8000582:	689a      	ldr	r2, [r3, #8]
 8000584:	0152      	lsls	r2, r2, #5
 8000586:	d406      	bmi.n	8000596 <HAL_CAN_Transmit+0x1a>
     ((hcan->Instance->TSR&CAN_TSR_TME1) == CAN_TSR_TME1) || \
 8000588:	689a      	ldr	r2, [r3, #8]
  if(((hcan->Instance->TSR&CAN_TSR_TME0) == CAN_TSR_TME0) || \
 800058a:	0112      	lsls	r2, r2, #4
 800058c:	d403      	bmi.n	8000596 <HAL_CAN_Transmit+0x1a>
     ((hcan->Instance->TSR&CAN_TSR_TME2) == CAN_TSR_TME2))
 800058e:	689a      	ldr	r2, [r3, #8]
     ((hcan->Instance->TSR&CAN_TSR_TME1) == CAN_TSR_TME1) || \
 8000590:	00d2      	lsls	r2, r2, #3
 8000592:	d400      	bmi.n	8000596 <HAL_CAN_Transmit+0x1a>
 8000594:	e0a7      	b.n	80006e6 <HAL_CAN_Transmit+0x16a>
  {
    /* Process locked */
    __HAL_LOCK(hcan);
 8000596:	223c      	movs	r2, #60	; 0x3c
 8000598:	5ca2      	ldrb	r2, [r4, r2]
 800059a:	2a01      	cmp	r2, #1
 800059c:	d100      	bne.n	80005a0 <HAL_CAN_Transmit+0x24>
 800059e:	e0a7      	b.n	80006f0 <HAL_CAN_Transmit+0x174>
 80005a0:	2101      	movs	r1, #1
 80005a2:	223c      	movs	r2, #60	; 0x3c
 80005a4:	54a1      	strb	r1, [r4, r2]

    /* Change CAN state */
    switch(hcan->State)
 80005a6:	3201      	adds	r2, #1
 80005a8:	5ca2      	ldrb	r2, [r4, r2]
 80005aa:	b2d2      	uxtb	r2, r2
 80005ac:	2a32      	cmp	r2, #50	; 0x32
 80005ae:	d012      	beq.n	80005d6 <HAL_CAN_Transmit+0x5a>
 80005b0:	2a62      	cmp	r2, #98	; 0x62
 80005b2:	d014      	beq.n	80005de <HAL_CAN_Transmit+0x62>
 80005b4:	2a22      	cmp	r2, #34	; 0x22
 80005b6:	d003      	beq.n	80005c0 <HAL_CAN_Transmit+0x44>
          break;
      case(HAL_CAN_STATE_BUSY_RX0_RX1):
          hcan->State = HAL_CAN_STATE_BUSY_TX_RX0_RX1;
          break;
      default: /* HAL_CAN_STATE_READY */
          hcan->State = HAL_CAN_STATE_BUSY_TX;
 80005b8:	2112      	movs	r1, #18
 80005ba:	223d      	movs	r2, #61	; 0x3d
 80005bc:	54a1      	strb	r1, [r4, r2]
          break;
 80005be:	e002      	b.n	80005c6 <HAL_CAN_Transmit+0x4a>
          hcan->State = HAL_CAN_STATE_BUSY_TX_RX0;
 80005c0:	3141      	adds	r1, #65	; 0x41
 80005c2:	321b      	adds	r2, #27
 80005c4:	54a1      	strb	r1, [r4, r2]
    }

    /* Select one empty transmit mailbox */
    if (HAL_IS_BIT_SET(hcan->Instance->TSR, CAN_TSR_TME0))
 80005c6:	689a      	ldr	r2, [r3, #8]
 80005c8:	0152      	lsls	r2, r2, #5
 80005ca:	d40c      	bmi.n	80005e6 <HAL_CAN_Transmit+0x6a>
    {
      transmitmailbox = CAN_TXMAILBOX_0;
    }
    else if (HAL_IS_BIT_SET(hcan->Instance->TSR, CAN_TSR_TME1))
 80005cc:	689a      	ldr	r2, [r3, #8]
 80005ce:	0112      	lsls	r2, r2, #4
 80005d0:	d56a      	bpl.n	80006a8 <HAL_CAN_Transmit+0x12c>
    {
      transmitmailbox = CAN_TXMAILBOX_1;
 80005d2:	2201      	movs	r2, #1
 80005d4:	e008      	b.n	80005e8 <HAL_CAN_Transmit+0x6c>
          hcan->State = HAL_CAN_STATE_BUSY_TX_RX1;
 80005d6:	2152      	movs	r1, #82	; 0x52
 80005d8:	223d      	movs	r2, #61	; 0x3d
 80005da:	54a1      	strb	r1, [r4, r2]
          break;
 80005dc:	e7f3      	b.n	80005c6 <HAL_CAN_Transmit+0x4a>
          hcan->State = HAL_CAN_STATE_BUSY_TX_RX0_RX1;
 80005de:	2172      	movs	r1, #114	; 0x72
 80005e0:	223d      	movs	r2, #61	; 0x3d
 80005e2:	54a1      	strb	r1, [r4, r2]
          break;
 80005e4:	e7ef      	b.n	80005c6 <HAL_CAN_Transmit+0x4a>
      transmitmailbox = CAN_TXMAILBOX_0;
 80005e6:	2200      	movs	r2, #0
    {
      transmitmailbox = CAN_TXMAILBOX_2;
    }

    /* Set up the Id */
    hcan->Instance->sTxMailBox[transmitmailbox].TIR &= CAN_TI0R_TXRQ;
 80005e8:	0011      	movs	r1, r2
 80005ea:	3118      	adds	r1, #24
 80005ec:	0109      	lsls	r1, r1, #4
 80005ee:	58cd      	ldr	r5, [r1, r3]
 80005f0:	2001      	movs	r0, #1
 80005f2:	4028      	ands	r0, r5
 80005f4:	50c8      	str	r0, [r1, r3]
    if (hcan->pTxMsg->IDE == CAN_ID_STD)
 80005f6:	6b21      	ldr	r1, [r4, #48]	; 0x30
 80005f8:	688b      	ldr	r3, [r1, #8]
 80005fa:	2b00      	cmp	r3, #0
 80005fc:	d156      	bne.n	80006ac <HAL_CAN_Transmit+0x130>
    {
      assert_param(IS_CAN_STDID(hcan->pTxMsg->StdId));  
      hcan->Instance->sTxMailBox[transmitmailbox].TIR |= ((hcan->pTxMsg->StdId << CAN_TI0R_STID_Pos) | \
 80005fe:	6825      	ldr	r5, [r4, #0]
 8000600:	0010      	movs	r0, r2
 8000602:	3018      	adds	r0, #24
 8000604:	0100      	lsls	r0, r0, #4
 8000606:	5946      	ldr	r6, [r0, r5]
 8000608:	680b      	ldr	r3, [r1, #0]
 800060a:	055b      	lsls	r3, r3, #21
                                                           hcan->pTxMsg->RTR);
 800060c:	68c9      	ldr	r1, [r1, #12]
      hcan->Instance->sTxMailBox[transmitmailbox].TIR |= ((hcan->pTxMsg->StdId << CAN_TI0R_STID_Pos) | \
 800060e:	430b      	orrs	r3, r1
 8000610:	4333      	orrs	r3, r6
 8000612:	5143      	str	r3, [r0, r5]
                                                           hcan->pTxMsg->IDE | \
                                                           hcan->pTxMsg->RTR);
    }
    
    /* Set up the DLC */
    hcan->pTxMsg->DLC &= (uint8_t)0x0000000FU;
 8000614:	6b21      	ldr	r1, [r4, #48]	; 0x30
 8000616:	250f      	movs	r5, #15
 8000618:	690b      	ldr	r3, [r1, #16]
 800061a:	402b      	ands	r3, r5
 800061c:	610b      	str	r3, [r1, #16]
    hcan->Instance->sTxMailBox[transmitmailbox].TDTR &= 0xFFFFFFF0U;
 800061e:	0011      	movs	r1, r2
 8000620:	3118      	adds	r1, #24
 8000622:	0109      	lsls	r1, r1, #4
 8000624:	6823      	ldr	r3, [r4, #0]
 8000626:	185b      	adds	r3, r3, r1
 8000628:	6858      	ldr	r0, [r3, #4]
 800062a:	43a8      	bics	r0, r5
 800062c:	6058      	str	r0, [r3, #4]
    hcan->Instance->sTxMailBox[transmitmailbox].TDTR |= hcan->pTxMsg->DLC;
 800062e:	6823      	ldr	r3, [r4, #0]
 8000630:	185b      	adds	r3, r3, r1
 8000632:	6858      	ldr	r0, [r3, #4]
 8000634:	6b25      	ldr	r5, [r4, #48]	; 0x30
 8000636:	692d      	ldr	r5, [r5, #16]
 8000638:	4328      	orrs	r0, r5
 800063a:	6058      	str	r0, [r3, #4]

    /* Set up the data field */
    WRITE_REG(hcan->Instance->sTxMailBox[transmitmailbox].TDLR, ((uint32_t)hcan->pTxMsg->Data[3] << CAN_TDL0R_DATA3_Pos) |
 800063c:	6b20      	ldr	r0, [r4, #48]	; 0x30
 800063e:	7dc3      	ldrb	r3, [r0, #23]
 8000640:	061b      	lsls	r3, r3, #24
 8000642:	7d85      	ldrb	r5, [r0, #22]
 8000644:	042d      	lsls	r5, r5, #16
 8000646:	432b      	orrs	r3, r5
 8000648:	7d45      	ldrb	r5, [r0, #21]
 800064a:	022d      	lsls	r5, r5, #8
 800064c:	432b      	orrs	r3, r5
 800064e:	7d00      	ldrb	r0, [r0, #20]
 8000650:	4303      	orrs	r3, r0
 8000652:	0112      	lsls	r2, r2, #4
 8000654:	6820      	ldr	r0, [r4, #0]
 8000656:	1880      	adds	r0, r0, r2
 8000658:	3089      	adds	r0, #137	; 0x89
 800065a:	30ff      	adds	r0, #255	; 0xff
 800065c:	6003      	str	r3, [r0, #0]
                                                                ((uint32_t)hcan->pTxMsg->Data[2] << CAN_TDL0R_DATA2_Pos) |
                                                                ((uint32_t)hcan->pTxMsg->Data[1] << CAN_TDL0R_DATA1_Pos) |
                                                                ((uint32_t)hcan->pTxMsg->Data[0] << CAN_TDL0R_DATA0_Pos));
    WRITE_REG(hcan->Instance->sTxMailBox[transmitmailbox].TDHR, ((uint32_t)hcan->pTxMsg->Data[7] << CAN_TDL0R_DATA3_Pos) |
 800065e:	6b20      	ldr	r0, [r4, #48]	; 0x30
 8000660:	7ec3      	ldrb	r3, [r0, #27]
 8000662:	061b      	lsls	r3, r3, #24
 8000664:	7e85      	ldrb	r5, [r0, #26]
 8000666:	042d      	lsls	r5, r5, #16
 8000668:	432b      	orrs	r3, r5
 800066a:	7e45      	ldrb	r5, [r0, #25]
 800066c:	022d      	lsls	r5, r5, #8
 800066e:	432b      	orrs	r3, r5
 8000670:	7e00      	ldrb	r0, [r0, #24]
 8000672:	4303      	orrs	r3, r0
 8000674:	6820      	ldr	r0, [r4, #0]
 8000676:	4684      	mov	ip, r0
 8000678:	4462      	add	r2, ip
 800067a:	328d      	adds	r2, #141	; 0x8d
 800067c:	32ff      	adds	r2, #255	; 0xff
 800067e:	6013      	str	r3, [r2, #0]
                                                                ((uint32_t)hcan->pTxMsg->Data[6] << CAN_TDL0R_DATA2_Pos) |
                                                                ((uint32_t)hcan->pTxMsg->Data[5] << CAN_TDL0R_DATA1_Pos) |
                                                                ((uint32_t)hcan->pTxMsg->Data[4] << CAN_TDL0R_DATA0_Pos));

    /* Request transmission */
    SET_BIT(hcan->Instance->sTxMailBox[transmitmailbox].TIR, CAN_TI0R_TXRQ);
 8000680:	6822      	ldr	r2, [r4, #0]
 8000682:	588b      	ldr	r3, [r1, r2]
 8000684:	2001      	movs	r0, #1
 8000686:	4303      	orrs	r3, r0
 8000688:	508b      	str	r3, [r1, r2]
  
    /* Get tick */
    tickstart = HAL_GetTick();   
 800068a:	f7ff fe11 	bl	80002b0 <HAL_GetTick>
//        }
//      }
//    }

    /* Change CAN state */
    switch(hcan->State)
 800068e:	233d      	movs	r3, #61	; 0x3d
 8000690:	5ce3      	ldrb	r3, [r4, r3]
 8000692:	b2db      	uxtb	r3, r3
 8000694:	2b52      	cmp	r3, #82	; 0x52
 8000696:	d01e      	beq.n	80006d6 <HAL_CAN_Transmit+0x15a>
 8000698:	2b72      	cmp	r3, #114	; 0x72
 800069a:	d020      	beq.n	80006de <HAL_CAN_Transmit+0x162>
 800069c:	2b42      	cmp	r3, #66	; 0x42
 800069e:	d012      	beq.n	80006c6 <HAL_CAN_Transmit+0x14a>
          break;
      case(HAL_CAN_STATE_BUSY_TX_RX0_RX1):
          hcan->State = HAL_CAN_STATE_BUSY_RX0_RX1;
          break;
      default: /* HAL_CAN_STATE_BUSY_TX */
          hcan->State = HAL_CAN_STATE_READY;
 80006a0:	2201      	movs	r2, #1
 80006a2:	233d      	movs	r3, #61	; 0x3d
 80006a4:	54e2      	strb	r2, [r4, r3]
          break;
 80006a6:	e011      	b.n	80006cc <HAL_CAN_Transmit+0x150>
      transmitmailbox = CAN_TXMAILBOX_2;
 80006a8:	2202      	movs	r2, #2
 80006aa:	e79d      	b.n	80005e8 <HAL_CAN_Transmit+0x6c>
      hcan->Instance->sTxMailBox[transmitmailbox].TIR |= ((hcan->pTxMsg->ExtId << CAN_TI0R_EXID_Pos) | \
 80006ac:	6825      	ldr	r5, [r4, #0]
 80006ae:	0010      	movs	r0, r2
 80006b0:	3018      	adds	r0, #24
 80006b2:	0100      	lsls	r0, r0, #4
 80006b4:	5946      	ldr	r6, [r0, r5]
 80006b6:	684f      	ldr	r7, [r1, #4]
 80006b8:	00ff      	lsls	r7, r7, #3
 80006ba:	433b      	orrs	r3, r7
                                                           hcan->pTxMsg->RTR);
 80006bc:	68c9      	ldr	r1, [r1, #12]
                                                           hcan->pTxMsg->IDE | \
 80006be:	430b      	orrs	r3, r1
      hcan->Instance->sTxMailBox[transmitmailbox].TIR |= ((hcan->pTxMsg->ExtId << CAN_TI0R_EXID_Pos) | \
 80006c0:	4333      	orrs	r3, r6
 80006c2:	5143      	str	r3, [r0, r5]
 80006c4:	e7a6      	b.n	8000614 <HAL_CAN_Transmit+0x98>
          hcan->State = HAL_CAN_STATE_BUSY_RX0;
 80006c6:	2222      	movs	r2, #34	; 0x22
 80006c8:	3b05      	subs	r3, #5
 80006ca:	54e2      	strb	r2, [r4, r3]
    }

    /* Process unlocked */
    __HAL_UNLOCK(hcan);
 80006cc:	2200      	movs	r2, #0
 80006ce:	233c      	movs	r3, #60	; 0x3c
 80006d0:	54e2      	strb	r2, [r4, r3]
    
    /* Return function status */
    return HAL_OK;
 80006d2:	2000      	movs	r0, #0
    hcan->State = HAL_CAN_STATE_ERROR; 

    /* Return function status */
    return HAL_ERROR;
  }
}
 80006d4:	bdf8      	pop	{r3, r4, r5, r6, r7, pc}
          hcan->State = HAL_CAN_STATE_BUSY_RX1;
 80006d6:	2232      	movs	r2, #50	; 0x32
 80006d8:	233d      	movs	r3, #61	; 0x3d
 80006da:	54e2      	strb	r2, [r4, r3]
          break;
 80006dc:	e7f6      	b.n	80006cc <HAL_CAN_Transmit+0x150>
          hcan->State = HAL_CAN_STATE_BUSY_RX0_RX1;
 80006de:	2262      	movs	r2, #98	; 0x62
 80006e0:	233d      	movs	r3, #61	; 0x3d
 80006e2:	54e2      	strb	r2, [r4, r3]
          break;
 80006e4:	e7f2      	b.n	80006cc <HAL_CAN_Transmit+0x150>
    hcan->State = HAL_CAN_STATE_ERROR; 
 80006e6:	2204      	movs	r2, #4
 80006e8:	233d      	movs	r3, #61	; 0x3d
 80006ea:	54c2      	strb	r2, [r0, r3]
    return HAL_ERROR;
 80006ec:	2001      	movs	r0, #1
 80006ee:	e7f1      	b.n	80006d4 <HAL_CAN_Transmit+0x158>
    __HAL_LOCK(hcan);
 80006f0:	2002      	movs	r0, #2
 80006f2:	e7ef      	b.n	80006d4 <HAL_CAN_Transmit+0x158>

080006f4 <HAL_CAN_Receive_IT>:
  *         the configuration information for the specified CAN.  
  * @param  FIFONumber    FIFO number.
  * @retval HAL status
  */
HAL_StatusTypeDef HAL_CAN_Receive_IT(CAN_HandleTypeDef* hcan, uint8_t FIFONumber)
{
 80006f4:	b530      	push	{r4, r5, lr}
  /* Check the parameters */
  assert_param(IS_CAN_FIFO(FIFONumber));

  /* Process locked */
  __HAL_LOCK(hcan);
 80006f6:	233c      	movs	r3, #60	; 0x3c
 80006f8:	5cc3      	ldrb	r3, [r0, r3]
 80006fa:	2b01      	cmp	r3, #1
 80006fc:	d07d      	beq.n	80007fa <HAL_CAN_Receive_IT+0x106>
 80006fe:	2201      	movs	r2, #1
 8000700:	233c      	movs	r3, #60	; 0x3c
 8000702:	54c2      	strb	r2, [r0, r3]

  /* Check if CAN state is not busy for RX FIFO0 */
  if ((FIFONumber == CAN_FIFO0) && ((hcan->State == HAL_CAN_STATE_BUSY_RX0) ||        \
 8000704:	2900      	cmp	r1, #0
 8000706:	d10f      	bne.n	8000728 <HAL_CAN_Receive_IT+0x34>
 8000708:	3301      	adds	r3, #1
 800070a:	5cc3      	ldrb	r3, [r0, r3]
 800070c:	2b22      	cmp	r3, #34	; 0x22
 800070e:	d01c      	beq.n	800074a <HAL_CAN_Receive_IT+0x56>
                                    (hcan->State == HAL_CAN_STATE_BUSY_TX_RX0) ||      \
 8000710:	233d      	movs	r3, #61	; 0x3d
 8000712:	5cc3      	ldrb	r3, [r0, r3]
  if ((FIFONumber == CAN_FIFO0) && ((hcan->State == HAL_CAN_STATE_BUSY_RX0) ||        \
 8000714:	2b42      	cmp	r3, #66	; 0x42
 8000716:	d018      	beq.n	800074a <HAL_CAN_Receive_IT+0x56>
                                    (hcan->State == HAL_CAN_STATE_BUSY_RX0_RX1) ||     \
 8000718:	233d      	movs	r3, #61	; 0x3d
 800071a:	5cc3      	ldrb	r3, [r0, r3]
                                    (hcan->State == HAL_CAN_STATE_BUSY_TX_RX0) ||      \
 800071c:	2b62      	cmp	r3, #98	; 0x62
 800071e:	d014      	beq.n	800074a <HAL_CAN_Receive_IT+0x56>
                                    (hcan->State == HAL_CAN_STATE_BUSY_TX_RX0_RX1)))
 8000720:	233d      	movs	r3, #61	; 0x3d
 8000722:	5cc3      	ldrb	r3, [r0, r3]
                                    (hcan->State == HAL_CAN_STATE_BUSY_RX0_RX1) ||     \
 8000724:	2b72      	cmp	r3, #114	; 0x72
 8000726:	d010      	beq.n	800074a <HAL_CAN_Receive_IT+0x56>

    return HAL_BUSY;
  }

  /* Check if CAN state is not busy for RX FIFO1 */
  if ((FIFONumber == CAN_FIFO1) && ((hcan->State == HAL_CAN_STATE_BUSY_RX1) ||        \
 8000728:	2901      	cmp	r1, #1
 800072a:	d013      	beq.n	8000754 <HAL_CAN_Receive_IT+0x60>

    return HAL_BUSY;
  }

  /* Change CAN state */
  if (FIFONumber == CAN_FIFO0)
 800072c:	2900      	cmp	r1, #0
 800072e:	d144      	bne.n	80007ba <HAL_CAN_Receive_IT+0xc6>
  {
    switch(hcan->State)
 8000730:	233d      	movs	r3, #61	; 0x3d
 8000732:	5cc3      	ldrb	r3, [r0, r3]
 8000734:	b2db      	uxtb	r3, r3
 8000736:	2b32      	cmp	r3, #50	; 0x32
 8000738:	d037      	beq.n	80007aa <HAL_CAN_Receive_IT+0xb6>
 800073a:	2b52      	cmp	r3, #82	; 0x52
 800073c:	d039      	beq.n	80007b2 <HAL_CAN_Receive_IT+0xbe>
 800073e:	2b12      	cmp	r3, #18
 8000740:	d01d      	beq.n	800077e <HAL_CAN_Receive_IT+0x8a>
        break;
      case(HAL_CAN_STATE_BUSY_TX_RX1):
        hcan->State = HAL_CAN_STATE_BUSY_TX_RX0_RX1;
        break;
      default: /* HAL_CAN_STATE_READY */
        hcan->State = HAL_CAN_STATE_BUSY_RX0;
 8000742:	2222      	movs	r2, #34	; 0x22
 8000744:	233d      	movs	r3, #61	; 0x3d
 8000746:	54c2      	strb	r2, [r0, r3]
        break;
 8000748:	e01c      	b.n	8000784 <HAL_CAN_Receive_IT+0x90>
    __HAL_UNLOCK(hcan);
 800074a:	2200      	movs	r2, #0
 800074c:	233c      	movs	r3, #60	; 0x3c
 800074e:	54c2      	strb	r2, [r0, r3]
    return HAL_BUSY;
 8000750:	2002      	movs	r0, #2
 8000752:	e053      	b.n	80007fc <HAL_CAN_Receive_IT+0x108>
  if ((FIFONumber == CAN_FIFO1) && ((hcan->State == HAL_CAN_STATE_BUSY_RX1) ||        \
 8000754:	233d      	movs	r3, #61	; 0x3d
 8000756:	5cc3      	ldrb	r3, [r0, r3]
 8000758:	2b32      	cmp	r3, #50	; 0x32
 800075a:	d00b      	beq.n	8000774 <HAL_CAN_Receive_IT+0x80>
                                    (hcan->State == HAL_CAN_STATE_BUSY_TX_RX1) ||      \
 800075c:	233d      	movs	r3, #61	; 0x3d
 800075e:	5cc3      	ldrb	r3, [r0, r3]
  if ((FIFONumber == CAN_FIFO1) && ((hcan->State == HAL_CAN_STATE_BUSY_RX1) ||        \
 8000760:	2b52      	cmp	r3, #82	; 0x52
 8000762:	d007      	beq.n	8000774 <HAL_CAN_Receive_IT+0x80>
                                    (hcan->State == HAL_CAN_STATE_BUSY_RX0_RX1) ||     \
 8000764:	233d      	movs	r3, #61	; 0x3d
 8000766:	5cc3      	ldrb	r3, [r0, r3]
                                    (hcan->State == HAL_CAN_STATE_BUSY_TX_RX1) ||      \
 8000768:	2b62      	cmp	r3, #98	; 0x62
 800076a:	d003      	beq.n	8000774 <HAL_CAN_Receive_IT+0x80>
                                    (hcan->State == HAL_CAN_STATE_BUSY_TX_RX0_RX1)))
 800076c:	233d      	movs	r3, #61	; 0x3d
 800076e:	5cc3      	ldrb	r3, [r0, r3]
                                    (hcan->State == HAL_CAN_STATE_BUSY_RX0_RX1) ||     \
 8000770:	2b72      	cmp	r3, #114	; 0x72
 8000772:	d1db      	bne.n	800072c <HAL_CAN_Receive_IT+0x38>
    __HAL_UNLOCK(hcan);
 8000774:	2200      	movs	r2, #0
 8000776:	233c      	movs	r3, #60	; 0x3c
 8000778:	54c2      	strb	r2, [r0, r3]
    return HAL_BUSY;
 800077a:	2002      	movs	r0, #2
 800077c:	e03e      	b.n	80007fc <HAL_CAN_Receive_IT+0x108>
        hcan->State = HAL_CAN_STATE_BUSY_TX_RX0;
 800077e:	2242      	movs	r2, #66	; 0x42
 8000780:	332b      	adds	r3, #43	; 0x2b
 8000782:	54c2      	strb	r2, [r0, r3]
        break;
    }
  }

  /* Set CAN error code to none */
  hcan->ErrorCode = HAL_CAN_ERROR_NONE;
 8000784:	2200      	movs	r2, #0
 8000786:	6402      	str	r2, [r0, #64]	; 0x40
  /*  - Enable Error warning Interrupt */
  /*  - Enable Error passive Interrupt */
  /*  - Enable Bus-off Interrupt */
  /*  - Enable Last error code Interrupt */
  /*  - Enable Error Interrupt */
  __HAL_CAN_ENABLE_IT(hcan, CAN_IT_EWG |
 8000788:	6804      	ldr	r4, [r0, #0]
 800078a:	6965      	ldr	r5, [r4, #20]
 800078c:	238f      	movs	r3, #143	; 0x8f
 800078e:	021b      	lsls	r3, r3, #8
 8000790:	432b      	orrs	r3, r5
 8000792:	6163      	str	r3, [r4, #20]
                            CAN_IT_BOF |
                            CAN_IT_LEC |
                            CAN_IT_ERR);

  /* Process unlocked */
  __HAL_UNLOCK(hcan);
 8000794:	233c      	movs	r3, #60	; 0x3c
 8000796:	54c2      	strb	r2, [r0, r3]

  if(FIFONumber == CAN_FIFO0)
 8000798:	2900      	cmp	r1, #0
 800079a:	d027      	beq.n	80007ec <HAL_CAN_Receive_IT+0xf8>
    __HAL_CAN_ENABLE_IT(hcan, CAN_IT_FOV0 | CAN_IT_FMP0);
  }
  else
  {
    /* Enable FIFO 1 overrun and message pending Interrupt */
    __HAL_CAN_ENABLE_IT(hcan, CAN_IT_FOV1 | CAN_IT_FMP1);
 800079c:	6802      	ldr	r2, [r0, #0]
 800079e:	6953      	ldr	r3, [r2, #20]
 80007a0:	2150      	movs	r1, #80	; 0x50
 80007a2:	430b      	orrs	r3, r1
 80007a4:	6153      	str	r3, [r2, #20]
  }
  
  /* Return function status */
  return HAL_OK;
 80007a6:	2000      	movs	r0, #0
 80007a8:	e028      	b.n	80007fc <HAL_CAN_Receive_IT+0x108>
        hcan->State = HAL_CAN_STATE_BUSY_RX0_RX1;
 80007aa:	2262      	movs	r2, #98	; 0x62
 80007ac:	233d      	movs	r3, #61	; 0x3d
 80007ae:	54c2      	strb	r2, [r0, r3]
        break;
 80007b0:	e7e8      	b.n	8000784 <HAL_CAN_Receive_IT+0x90>
        hcan->State = HAL_CAN_STATE_BUSY_TX_RX0_RX1;
 80007b2:	2272      	movs	r2, #114	; 0x72
 80007b4:	233d      	movs	r3, #61	; 0x3d
 80007b6:	54c2      	strb	r2, [r0, r3]
        break;
 80007b8:	e7e4      	b.n	8000784 <HAL_CAN_Receive_IT+0x90>
    switch(hcan->State)
 80007ba:	233d      	movs	r3, #61	; 0x3d
 80007bc:	5cc3      	ldrb	r3, [r0, r3]
 80007be:	b2db      	uxtb	r3, r3
 80007c0:	2b22      	cmp	r3, #34	; 0x22
 80007c2:	d00b      	beq.n	80007dc <HAL_CAN_Receive_IT+0xe8>
 80007c4:	2b42      	cmp	r3, #66	; 0x42
 80007c6:	d00d      	beq.n	80007e4 <HAL_CAN_Receive_IT+0xf0>
 80007c8:	2b12      	cmp	r3, #18
 80007ca:	d003      	beq.n	80007d4 <HAL_CAN_Receive_IT+0xe0>
        hcan->State = HAL_CAN_STATE_BUSY_RX1;
 80007cc:	2232      	movs	r2, #50	; 0x32
 80007ce:	233d      	movs	r3, #61	; 0x3d
 80007d0:	54c2      	strb	r2, [r0, r3]
        break;
 80007d2:	e7d7      	b.n	8000784 <HAL_CAN_Receive_IT+0x90>
        hcan->State = HAL_CAN_STATE_BUSY_TX_RX1;
 80007d4:	2252      	movs	r2, #82	; 0x52
 80007d6:	332b      	adds	r3, #43	; 0x2b
 80007d8:	54c2      	strb	r2, [r0, r3]
        break;
 80007da:	e7d3      	b.n	8000784 <HAL_CAN_Receive_IT+0x90>
        hcan->State = HAL_CAN_STATE_BUSY_RX0_RX1;
 80007dc:	2262      	movs	r2, #98	; 0x62
 80007de:	233d      	movs	r3, #61	; 0x3d
 80007e0:	54c2      	strb	r2, [r0, r3]
        break;
 80007e2:	e7cf      	b.n	8000784 <HAL_CAN_Receive_IT+0x90>
        hcan->State = HAL_CAN_STATE_BUSY_TX_RX0_RX1;
 80007e4:	2272      	movs	r2, #114	; 0x72
 80007e6:	233d      	movs	r3, #61	; 0x3d
 80007e8:	54c2      	strb	r2, [r0, r3]
        break;
 80007ea:	e7cb      	b.n	8000784 <HAL_CAN_Receive_IT+0x90>
    __HAL_CAN_ENABLE_IT(hcan, CAN_IT_FOV0 | CAN_IT_FMP0);
 80007ec:	6802      	ldr	r2, [r0, #0]
 80007ee:	6953      	ldr	r3, [r2, #20]
 80007f0:	310a      	adds	r1, #10
 80007f2:	430b      	orrs	r3, r1
 80007f4:	6153      	str	r3, [r2, #20]
  return HAL_OK;
 80007f6:	2000      	movs	r0, #0
 80007f8:	e000      	b.n	80007fc <HAL_CAN_Receive_IT+0x108>
  __HAL_LOCK(hcan);
 80007fa:	2002      	movs	r0, #2
}
 80007fc:	bd30      	pop	{r4, r5, pc}
	...

08000800 <CAN_Transmit_IT>:
  * @param  hcan pointer to a CAN_HandleTypeDef structure that contains
  *         the configuration information for the specified CAN.  
  * @retval HAL status
  */
static HAL_StatusTypeDef CAN_Transmit_IT(CAN_HandleTypeDef* hcan)
{
 8000800:	b510      	push	{r4, lr}
  /* Disable Transmit mailbox empty Interrupt */
  __HAL_CAN_DISABLE_IT(hcan, CAN_IT_TME);
 8000802:	6802      	ldr	r2, [r0, #0]
 8000804:	6953      	ldr	r3, [r2, #20]
 8000806:	2101      	movs	r1, #1
 8000808:	438b      	bics	r3, r1
 800080a:	6153      	str	r3, [r2, #20]
  
  if(hcan->State == HAL_CAN_STATE_BUSY_TX)
 800080c:	233d      	movs	r3, #61	; 0x3d
 800080e:	5cc3      	ldrb	r3, [r0, r3]
 8000810:	2b12      	cmp	r3, #18
 8000812:	d00c      	beq.n	800082e <CAN_Transmit_IT+0x2e>
                               CAN_IT_LEC |
                               CAN_IT_ERR );
  }

  /* Change CAN state */
  switch(hcan->State)
 8000814:	233d      	movs	r3, #61	; 0x3d
 8000816:	5cc3      	ldrb	r3, [r0, r3]
 8000818:	b2db      	uxtb	r3, r3
 800081a:	2b52      	cmp	r3, #82	; 0x52
 800081c:	d014      	beq.n	8000848 <CAN_Transmit_IT+0x48>
 800081e:	2b72      	cmp	r3, #114	; 0x72
 8000820:	d016      	beq.n	8000850 <CAN_Transmit_IT+0x50>
 8000822:	2b42      	cmp	r3, #66	; 0x42
 8000824:	d009      	beq.n	800083a <CAN_Transmit_IT+0x3a>
      break;
    case(HAL_CAN_STATE_BUSY_TX_RX0_RX1):
      hcan->State = HAL_CAN_STATE_BUSY_RX0_RX1;
      break;
    default: /* HAL_CAN_STATE_BUSY_TX */
      hcan->State = HAL_CAN_STATE_READY;
 8000826:	2201      	movs	r2, #1
 8000828:	233d      	movs	r3, #61	; 0x3d
 800082a:	54c2      	strb	r2, [r0, r3]
      break;
 800082c:	e008      	b.n	8000840 <CAN_Transmit_IT+0x40>
    __HAL_CAN_DISABLE_IT(hcan, CAN_IT_EWG |
 800082e:	6802      	ldr	r2, [r0, #0]
 8000830:	6953      	ldr	r3, [r2, #20]
 8000832:	4909      	ldr	r1, [pc, #36]	; (8000858 <CAN_Transmit_IT+0x58>)
 8000834:	400b      	ands	r3, r1
 8000836:	6153      	str	r3, [r2, #20]
 8000838:	e7ec      	b.n	8000814 <CAN_Transmit_IT+0x14>
      hcan->State = HAL_CAN_STATE_BUSY_RX0;
 800083a:	2222      	movs	r2, #34	; 0x22
 800083c:	3b05      	subs	r3, #5
 800083e:	54c2      	strb	r2, [r0, r3]
  }

  /* Transmission complete callback */ 
  HAL_CAN_TxCpltCallback(hcan);
 8000840:	f004 f910 	bl	8004a64 <HAL_CAN_TxCpltCallback>
  
  return HAL_OK;
}
 8000844:	2000      	movs	r0, #0
 8000846:	bd10      	pop	{r4, pc}
      hcan->State = HAL_CAN_STATE_BUSY_RX1;
 8000848:	2232      	movs	r2, #50	; 0x32
 800084a:	233d      	movs	r3, #61	; 0x3d
 800084c:	54c2      	strb	r2, [r0, r3]
      break;
 800084e:	e7f7      	b.n	8000840 <CAN_Transmit_IT+0x40>
      hcan->State = HAL_CAN_STATE_BUSY_RX0_RX1;
 8000850:	2262      	movs	r2, #98	; 0x62
 8000852:	233d      	movs	r3, #61	; 0x3d
 8000854:	54c2      	strb	r2, [r0, r3]
      break;
 8000856:	e7f3      	b.n	8000840 <CAN_Transmit_IT+0x40>
 8000858:	ffff70ff 	.word	0xffff70ff

0800085c <CAN_Receive_IT>:
  * @param  FIFONumber Specify the FIFO number    
  * @retval HAL status
  * @retval None
  */
static HAL_StatusTypeDef CAN_Receive_IT(CAN_HandleTypeDef* hcan, uint8_t FIFONumber)
{
 800085c:	b570      	push	{r4, r5, r6, lr}
  CanRxMsgTypeDef* pRxMsg = NULL;

  /* Set RxMsg pointer */
  if(FIFONumber == CAN_FIFO0)
 800085e:	2900      	cmp	r1, #0
 8000860:	d000      	beq.n	8000864 <CAN_Receive_IT+0x8>
 8000862:	e083      	b.n	800096c <CAN_Receive_IT+0x110>
  {
    pRxMsg = hcan->pRxMsg;
 8000864:	6b43      	ldr	r3, [r0, #52]	; 0x34
  {
    pRxMsg = hcan->pRx1Msg;
  }

  /* Get the Id */
  pRxMsg->IDE = CAN_RI0R_IDE & hcan->Instance->sFIFOMailBox[FIFONumber].RIR;
 8000866:	000a      	movs	r2, r1
 8000868:	321b      	adds	r2, #27
 800086a:	0112      	lsls	r2, r2, #4
 800086c:	6804      	ldr	r4, [r0, #0]
 800086e:	5914      	ldr	r4, [r2, r4]
 8000870:	2204      	movs	r2, #4
 8000872:	4022      	ands	r2, r4
 8000874:	609a      	str	r2, [r3, #8]
  if (pRxMsg->IDE == CAN_ID_STD)
 8000876:	d17b      	bne.n	8000970 <CAN_Receive_IT+0x114>
  {
    pRxMsg->StdId = (CAN_RI0R_STID & hcan->Instance->sFIFOMailBox[FIFONumber].RIR) >> CAN_TI0R_STID_Pos;
 8000878:	000a      	movs	r2, r1
 800087a:	321b      	adds	r2, #27
 800087c:	0112      	lsls	r2, r2, #4
 800087e:	6804      	ldr	r4, [r0, #0]
 8000880:	5912      	ldr	r2, [r2, r4]
 8000882:	0d52      	lsrs	r2, r2, #21
 8000884:	601a      	str	r2, [r3, #0]
  }
  else
  {
    pRxMsg->ExtId = (0xFFFFFFF8U & hcan->Instance->sFIFOMailBox[FIFONumber].RIR) >> CAN_RI0R_EXID_Pos;
  }
  pRxMsg->RTR = (CAN_RI0R_RTR & hcan->Instance->sFIFOMailBox[FIFONumber].RIR) >> CAN_RI0R_RTR_Pos;
 8000886:	000a      	movs	r2, r1
 8000888:	321b      	adds	r2, #27
 800088a:	0112      	lsls	r2, r2, #4
 800088c:	6804      	ldr	r4, [r0, #0]
 800088e:	5915      	ldr	r5, [r2, r4]
 8000890:	086d      	lsrs	r5, r5, #1
 8000892:	2401      	movs	r4, #1
 8000894:	402c      	ands	r4, r5
 8000896:	60dc      	str	r4, [r3, #12]
  /* Get the DLC */
  pRxMsg->DLC = (CAN_RDT0R_DLC & hcan->Instance->sFIFOMailBox[FIFONumber].RDTR) >> CAN_RDT0R_DLC_Pos;
 8000898:	6804      	ldr	r4, [r0, #0]
 800089a:	18a4      	adds	r4, r4, r2
 800089c:	6865      	ldr	r5, [r4, #4]
 800089e:	240f      	movs	r4, #15
 80008a0:	402c      	ands	r4, r5
 80008a2:	611c      	str	r4, [r3, #16]
  /* Get the FMI */
  pRxMsg->FMI = (CAN_RDT0R_FMI & hcan->Instance->sFIFOMailBox[FIFONumber].RDTR) >> CAN_RDT0R_FMI_Pos;
 80008a4:	6804      	ldr	r4, [r0, #0]
 80008a6:	46a4      	mov	ip, r4
 80008a8:	4462      	add	r2, ip
 80008aa:	6854      	ldr	r4, [r2, #4]
 80008ac:	0a24      	lsrs	r4, r4, #8
 80008ae:	22ff      	movs	r2, #255	; 0xff
 80008b0:	4022      	ands	r2, r4
 80008b2:	61da      	str	r2, [r3, #28]
  /* Get the FIFONumber */
  pRxMsg->FIFONumber = FIFONumber;
 80008b4:	6219      	str	r1, [r3, #32]
  /* Get the data field */
  pRxMsg->Data[0] = (CAN_RDL0R_DATA0 & hcan->Instance->sFIFOMailBox[FIFONumber].RDLR) >> CAN_RDL0R_DATA0_Pos;
 80008b6:	010a      	lsls	r2, r1, #4
 80008b8:	6804      	ldr	r4, [r0, #0]
 80008ba:	18a4      	adds	r4, r4, r2
 80008bc:	34b9      	adds	r4, #185	; 0xb9
 80008be:	34ff      	adds	r4, #255	; 0xff
 80008c0:	6824      	ldr	r4, [r4, #0]
 80008c2:	751c      	strb	r4, [r3, #20]
  pRxMsg->Data[1] = (CAN_RDL0R_DATA1 & hcan->Instance->sFIFOMailBox[FIFONumber].RDLR) >> CAN_RDL0R_DATA1_Pos;
 80008c4:	6804      	ldr	r4, [r0, #0]
 80008c6:	18a4      	adds	r4, r4, r2
 80008c8:	34b9      	adds	r4, #185	; 0xb9
 80008ca:	34ff      	adds	r4, #255	; 0xff
 80008cc:	6824      	ldr	r4, [r4, #0]
 80008ce:	0a24      	lsrs	r4, r4, #8
 80008d0:	755c      	strb	r4, [r3, #21]
  pRxMsg->Data[2] = (CAN_RDL0R_DATA2 & hcan->Instance->sFIFOMailBox[FIFONumber].RDLR) >> CAN_RDL0R_DATA2_Pos;
 80008d2:	6804      	ldr	r4, [r0, #0]
 80008d4:	18a4      	adds	r4, r4, r2
 80008d6:	34b9      	adds	r4, #185	; 0xb9
 80008d8:	34ff      	adds	r4, #255	; 0xff
 80008da:	6824      	ldr	r4, [r4, #0]
 80008dc:	0c24      	lsrs	r4, r4, #16
 80008de:	759c      	strb	r4, [r3, #22]
  pRxMsg->Data[3] = (CAN_RDL0R_DATA3 & hcan->Instance->sFIFOMailBox[FIFONumber].RDLR) >> CAN_RDL0R_DATA3_Pos;
 80008e0:	6804      	ldr	r4, [r0, #0]
 80008e2:	18a4      	adds	r4, r4, r2
 80008e4:	34b9      	adds	r4, #185	; 0xb9
 80008e6:	34ff      	adds	r4, #255	; 0xff
 80008e8:	6824      	ldr	r4, [r4, #0]
 80008ea:	0e24      	lsrs	r4, r4, #24
 80008ec:	75dc      	strb	r4, [r3, #23]
  pRxMsg->Data[4] = (CAN_RDH0R_DATA4 & hcan->Instance->sFIFOMailBox[FIFONumber].RDHR) >> CAN_RDH0R_DATA4_Pos;
 80008ee:	6804      	ldr	r4, [r0, #0]
 80008f0:	18a4      	adds	r4, r4, r2
 80008f2:	34bd      	adds	r4, #189	; 0xbd
 80008f4:	34ff      	adds	r4, #255	; 0xff
 80008f6:	6824      	ldr	r4, [r4, #0]
 80008f8:	761c      	strb	r4, [r3, #24]
  pRxMsg->Data[5] = (CAN_RDH0R_DATA5 & hcan->Instance->sFIFOMailBox[FIFONumber].RDHR) >> CAN_RDH0R_DATA5_Pos;
 80008fa:	6804      	ldr	r4, [r0, #0]
 80008fc:	18a4      	adds	r4, r4, r2
 80008fe:	34bd      	adds	r4, #189	; 0xbd
 8000900:	34ff      	adds	r4, #255	; 0xff
 8000902:	6824      	ldr	r4, [r4, #0]
 8000904:	0a24      	lsrs	r4, r4, #8
 8000906:	765c      	strb	r4, [r3, #25]
  pRxMsg->Data[6] = (CAN_RDH0R_DATA6 & hcan->Instance->sFIFOMailBox[FIFONumber].RDHR) >> CAN_RDH0R_DATA6_Pos;
 8000908:	6804      	ldr	r4, [r0, #0]
 800090a:	18a4      	adds	r4, r4, r2
 800090c:	34bd      	adds	r4, #189	; 0xbd
 800090e:	34ff      	adds	r4, #255	; 0xff
 8000910:	6824      	ldr	r4, [r4, #0]
 8000912:	0c24      	lsrs	r4, r4, #16
 8000914:	769c      	strb	r4, [r3, #26]
  pRxMsg->Data[7] = (CAN_RDH0R_DATA7 & hcan->Instance->sFIFOMailBox[FIFONumber].RDHR) >> CAN_RDH0R_DATA7_Pos;
 8000916:	6804      	ldr	r4, [r0, #0]
 8000918:	46a4      	mov	ip, r4
 800091a:	4462      	add	r2, ip
 800091c:	32bd      	adds	r2, #189	; 0xbd
 800091e:	32ff      	adds	r2, #255	; 0xff
 8000920:	6812      	ldr	r2, [r2, #0]
 8000922:	0e12      	lsrs	r2, r2, #24
 8000924:	76da      	strb	r2, [r3, #27]

  /* Release the FIFO */
  /* Release FIFO0 */
  if (FIFONumber == CAN_FIFO0)
 8000926:	2900      	cmp	r1, #0
 8000928:	d12a      	bne.n	8000980 <CAN_Receive_IT+0x124>
  {
    __HAL_CAN_FIFO_RELEASE(hcan, CAN_FIFO0);
 800092a:	6802      	ldr	r2, [r0, #0]
 800092c:	68d3      	ldr	r3, [r2, #12]
 800092e:	2420      	movs	r4, #32
 8000930:	4323      	orrs	r3, r4
 8000932:	60d3      	str	r3, [r2, #12]
    
    /* Disable FIFO 0 overrun and message pending Interrupt */
    __HAL_CAN_DISABLE_IT(hcan, CAN_IT_FOV0 | CAN_IT_FMP0);
 8000934:	6802      	ldr	r2, [r0, #0]
 8000936:	6953      	ldr	r3, [r2, #20]
 8000938:	3c16      	subs	r4, #22
 800093a:	43a3      	bics	r3, r4
 800093c:	6153      	str	r3, [r2, #20]
    
    /* Disable FIFO 1 overrun and message pending Interrupt */
    __HAL_CAN_DISABLE_IT(hcan, CAN_IT_FOV1 | CAN_IT_FMP1);
  }
  
  if((hcan->State == HAL_CAN_STATE_BUSY_RX0) || (hcan->State == HAL_CAN_STATE_BUSY_RX1))
 800093e:	233d      	movs	r3, #61	; 0x3d
 8000940:	5cc3      	ldrb	r3, [r0, r3]
 8000942:	2b22      	cmp	r3, #34	; 0x22
 8000944:	d027      	beq.n	8000996 <CAN_Receive_IT+0x13a>
 8000946:	233d      	movs	r3, #61	; 0x3d
 8000948:	5cc3      	ldrb	r3, [r0, r3]
 800094a:	2b32      	cmp	r3, #50	; 0x32
 800094c:	d023      	beq.n	8000996 <CAN_Receive_IT+0x13a>
                               CAN_IT_LEC |
                               CAN_IT_ERR );
  }

  /* Change CAN state */
  if (FIFONumber == CAN_FIFO0)
 800094e:	2900      	cmp	r1, #0
 8000950:	d136      	bne.n	80009c0 <CAN_Receive_IT+0x164>
  {
    switch(hcan->State)
 8000952:	233d      	movs	r3, #61	; 0x3d
 8000954:	5cc3      	ldrb	r3, [r0, r3]
 8000956:	b2db      	uxtb	r3, r3
 8000958:	2b62      	cmp	r3, #98	; 0x62
 800095a:	d029      	beq.n	80009b0 <CAN_Receive_IT+0x154>
 800095c:	2b72      	cmp	r3, #114	; 0x72
 800095e:	d02b      	beq.n	80009b8 <CAN_Receive_IT+0x15c>
 8000960:	2b42      	cmp	r3, #66	; 0x42
 8000962:	d01e      	beq.n	80009a2 <CAN_Receive_IT+0x146>
        break;
      case(HAL_CAN_STATE_BUSY_TX_RX0_RX1):
        hcan->State = HAL_CAN_STATE_BUSY_TX_RX1;
        break;
      default: /* HAL_CAN_STATE_BUSY_RX0 */
        hcan->State = HAL_CAN_STATE_READY;
 8000964:	2201      	movs	r2, #1
 8000966:	233d      	movs	r3, #61	; 0x3d
 8000968:	54c2      	strb	r2, [r0, r3]
        break;
 800096a:	e01d      	b.n	80009a8 <CAN_Receive_IT+0x14c>
    pRxMsg = hcan->pRx1Msg;
 800096c:	6b83      	ldr	r3, [r0, #56]	; 0x38
 800096e:	e77a      	b.n	8000866 <CAN_Receive_IT+0xa>
    pRxMsg->ExtId = (0xFFFFFFF8U & hcan->Instance->sFIFOMailBox[FIFONumber].RIR) >> CAN_RI0R_EXID_Pos;
 8000970:	000a      	movs	r2, r1
 8000972:	321b      	adds	r2, #27
 8000974:	0112      	lsls	r2, r2, #4
 8000976:	6804      	ldr	r4, [r0, #0]
 8000978:	5912      	ldr	r2, [r2, r4]
 800097a:	08d2      	lsrs	r2, r2, #3
 800097c:	605a      	str	r2, [r3, #4]
 800097e:	e782      	b.n	8000886 <CAN_Receive_IT+0x2a>
    __HAL_CAN_FIFO_RELEASE(hcan, CAN_FIFO1);
 8000980:	6802      	ldr	r2, [r0, #0]
 8000982:	6913      	ldr	r3, [r2, #16]
 8000984:	2420      	movs	r4, #32
 8000986:	4323      	orrs	r3, r4
 8000988:	6113      	str	r3, [r2, #16]
    __HAL_CAN_DISABLE_IT(hcan, CAN_IT_FOV1 | CAN_IT_FMP1);
 800098a:	6802      	ldr	r2, [r0, #0]
 800098c:	6953      	ldr	r3, [r2, #20]
 800098e:	3430      	adds	r4, #48	; 0x30
 8000990:	43a3      	bics	r3, r4
 8000992:	6153      	str	r3, [r2, #20]
 8000994:	e7d3      	b.n	800093e <CAN_Receive_IT+0xe2>
    __HAL_CAN_DISABLE_IT(hcan, CAN_IT_EWG |
 8000996:	6802      	ldr	r2, [r0, #0]
 8000998:	6953      	ldr	r3, [r2, #20]
 800099a:	4c16      	ldr	r4, [pc, #88]	; (80009f4 <CAN_Receive_IT+0x198>)
 800099c:	4023      	ands	r3, r4
 800099e:	6153      	str	r3, [r2, #20]
 80009a0:	e7d5      	b.n	800094e <CAN_Receive_IT+0xf2>
        hcan->State = HAL_CAN_STATE_BUSY_TX;
 80009a2:	2212      	movs	r2, #18
 80009a4:	3b05      	subs	r3, #5
 80009a6:	54c2      	strb	r2, [r0, r3]
        break;
    }
  }

  /* Receive complete callback */ 
  HAL_CAN_RxCpltCallback(hcan);
 80009a8:	f004 f83a 	bl	8004a20 <HAL_CAN_RxCpltCallback>

  /* Return function status */
  return HAL_OK;
}
 80009ac:	2000      	movs	r0, #0
 80009ae:	bd70      	pop	{r4, r5, r6, pc}
        hcan->State = HAL_CAN_STATE_BUSY_RX1;
 80009b0:	2232      	movs	r2, #50	; 0x32
 80009b2:	233d      	movs	r3, #61	; 0x3d
 80009b4:	54c2      	strb	r2, [r0, r3]
        break;
 80009b6:	e7f7      	b.n	80009a8 <CAN_Receive_IT+0x14c>
        hcan->State = HAL_CAN_STATE_BUSY_TX_RX1;
 80009b8:	2252      	movs	r2, #82	; 0x52
 80009ba:	233d      	movs	r3, #61	; 0x3d
 80009bc:	54c2      	strb	r2, [r0, r3]
        break;
 80009be:	e7f3      	b.n	80009a8 <CAN_Receive_IT+0x14c>
    switch(hcan->State)
 80009c0:	233d      	movs	r3, #61	; 0x3d
 80009c2:	5cc3      	ldrb	r3, [r0, r3]
 80009c4:	b2db      	uxtb	r3, r3
 80009c6:	2b62      	cmp	r3, #98	; 0x62
 80009c8:	d00b      	beq.n	80009e2 <CAN_Receive_IT+0x186>
 80009ca:	2b72      	cmp	r3, #114	; 0x72
 80009cc:	d00d      	beq.n	80009ea <CAN_Receive_IT+0x18e>
 80009ce:	2b52      	cmp	r3, #82	; 0x52
 80009d0:	d003      	beq.n	80009da <CAN_Receive_IT+0x17e>
        hcan->State = HAL_CAN_STATE_READY;
 80009d2:	2201      	movs	r2, #1
 80009d4:	233d      	movs	r3, #61	; 0x3d
 80009d6:	54c2      	strb	r2, [r0, r3]
        break;
 80009d8:	e7e6      	b.n	80009a8 <CAN_Receive_IT+0x14c>
        hcan->State = HAL_CAN_STATE_BUSY_TX;
 80009da:	2212      	movs	r2, #18
 80009dc:	3b15      	subs	r3, #21
 80009de:	54c2      	strb	r2, [r0, r3]
        break;
 80009e0:	e7e2      	b.n	80009a8 <CAN_Receive_IT+0x14c>
        hcan->State = HAL_CAN_STATE_BUSY_RX0;
 80009e2:	2222      	movs	r2, #34	; 0x22
 80009e4:	233d      	movs	r3, #61	; 0x3d
 80009e6:	54c2      	strb	r2, [r0, r3]
        break;
 80009e8:	e7de      	b.n	80009a8 <CAN_Receive_IT+0x14c>
        hcan->State = HAL_CAN_STATE_BUSY_TX_RX0;
 80009ea:	2242      	movs	r2, #66	; 0x42
 80009ec:	233d      	movs	r3, #61	; 0x3d
 80009ee:	54c2      	strb	r2, [r0, r3]
        break;
 80009f0:	e7da      	b.n	80009a8 <CAN_Receive_IT+0x14c>
 80009f2:	46c0      	nop			; (mov r8, r8)
 80009f4:	ffff70ff 	.word	0xffff70ff

080009f8 <HAL_CAN_IRQHandler>:
{
 80009f8:	b570      	push	{r4, r5, r6, lr}
 80009fa:	0004      	movs	r4, r0
  if((__HAL_CAN_GET_FLAG(hcan, CAN_FLAG_FOV0))    &&
 80009fc:	6803      	ldr	r3, [r0, #0]
 80009fe:	68da      	ldr	r2, [r3, #12]
 8000a00:	06d2      	lsls	r2, r2, #27
 8000a02:	d508      	bpl.n	8000a16 <HAL_CAN_IRQHandler+0x1e>
     (__HAL_CAN_GET_IT_SOURCE(hcan, CAN_IT_FOV0)))
 8000a04:	695a      	ldr	r2, [r3, #20]
  if((__HAL_CAN_GET_FLAG(hcan, CAN_FLAG_FOV0))    &&
 8000a06:	0712      	lsls	r2, r2, #28
 8000a08:	d400      	bmi.n	8000a0c <HAL_CAN_IRQHandler+0x14>
 8000a0a:	e089      	b.n	8000b20 <HAL_CAN_IRQHandler+0x128>
    __HAL_CAN_CLEAR_FLAG(hcan, CAN_FLAG_FOV0);
 8000a0c:	2210      	movs	r2, #16
 8000a0e:	60da      	str	r2, [r3, #12]
    errorcode |= HAL_CAN_ERROR_FOV0;
 8000a10:	2580      	movs	r5, #128	; 0x80
 8000a12:	00ad      	lsls	r5, r5, #2
 8000a14:	e000      	b.n	8000a18 <HAL_CAN_IRQHandler+0x20>
  uint32_t errorcode = HAL_CAN_ERROR_NONE;
 8000a16:	2500      	movs	r5, #0
  if((__HAL_CAN_GET_FLAG(hcan, CAN_FLAG_FOV1))    &&
 8000a18:	6823      	ldr	r3, [r4, #0]
 8000a1a:	691a      	ldr	r2, [r3, #16]
 8000a1c:	06d2      	lsls	r2, r2, #27
 8000a1e:	d507      	bpl.n	8000a30 <HAL_CAN_IRQHandler+0x38>
     (__HAL_CAN_GET_IT_SOURCE(hcan, CAN_IT_FOV1)))
 8000a20:	695a      	ldr	r2, [r3, #20]
  if((__HAL_CAN_GET_FLAG(hcan, CAN_FLAG_FOV1))    &&
 8000a22:	0652      	lsls	r2, r2, #25
 8000a24:	d504      	bpl.n	8000a30 <HAL_CAN_IRQHandler+0x38>
    errorcode |= HAL_CAN_ERROR_FOV1;
 8000a26:	2280      	movs	r2, #128	; 0x80
 8000a28:	00d2      	lsls	r2, r2, #3
 8000a2a:	4315      	orrs	r5, r2
    __HAL_CAN_CLEAR_FLAG(hcan, CAN_FLAG_FOV1);
 8000a2c:	2210      	movs	r2, #16
 8000a2e:	611a      	str	r2, [r3, #16]
  if(__HAL_CAN_GET_IT_SOURCE(hcan, CAN_IT_TME))
 8000a30:	6823      	ldr	r3, [r4, #0]
 8000a32:	695a      	ldr	r2, [r3, #20]
 8000a34:	07d2      	lsls	r2, r2, #31
 8000a36:	d51f      	bpl.n	8000a78 <HAL_CAN_IRQHandler+0x80>
    if((__HAL_CAN_TRANSMIT_STATUS(hcan, CAN_TXMAILBOX_0)) ||
 8000a38:	689a      	ldr	r2, [r3, #8]
 8000a3a:	495c      	ldr	r1, [pc, #368]	; (8000bac <HAL_CAN_IRQHandler+0x1b4>)
 8000a3c:	400a      	ands	r2, r1
 8000a3e:	428a      	cmp	r2, r1
 8000a40:	d009      	beq.n	8000a56 <HAL_CAN_IRQHandler+0x5e>
       (__HAL_CAN_TRANSMIT_STATUS(hcan, CAN_TXMAILBOX_1)) ||
 8000a42:	689a      	ldr	r2, [r3, #8]
 8000a44:	495a      	ldr	r1, [pc, #360]	; (8000bb0 <HAL_CAN_IRQHandler+0x1b8>)
 8000a46:	400a      	ands	r2, r1
    if((__HAL_CAN_TRANSMIT_STATUS(hcan, CAN_TXMAILBOX_0)) ||
 8000a48:	428a      	cmp	r2, r1
 8000a4a:	d004      	beq.n	8000a56 <HAL_CAN_IRQHandler+0x5e>
       (__HAL_CAN_TRANSMIT_STATUS(hcan, CAN_TXMAILBOX_2)))
 8000a4c:	689a      	ldr	r2, [r3, #8]
 8000a4e:	4959      	ldr	r1, [pc, #356]	; (8000bb4 <HAL_CAN_IRQHandler+0x1bc>)
 8000a50:	400a      	ands	r2, r1
       (__HAL_CAN_TRANSMIT_STATUS(hcan, CAN_TXMAILBOX_1)) ||
 8000a52:	428a      	cmp	r2, r1
 8000a54:	d110      	bne.n	8000a78 <HAL_CAN_IRQHandler+0x80>
      if((__HAL_CAN_GET_FLAG(hcan, CAN_FLAG_TXOK0)) ||
 8000a56:	689a      	ldr	r2, [r3, #8]
 8000a58:	0792      	lsls	r2, r2, #30
 8000a5a:	d405      	bmi.n	8000a68 <HAL_CAN_IRQHandler+0x70>
         (__HAL_CAN_GET_FLAG(hcan, CAN_FLAG_TXOK1)) ||
 8000a5c:	689a      	ldr	r2, [r3, #8]
      if((__HAL_CAN_GET_FLAG(hcan, CAN_FLAG_TXOK0)) ||
 8000a5e:	0592      	lsls	r2, r2, #22
 8000a60:	d402      	bmi.n	8000a68 <HAL_CAN_IRQHandler+0x70>
         (__HAL_CAN_GET_FLAG(hcan, CAN_FLAG_TXOK2)))
 8000a62:	689b      	ldr	r3, [r3, #8]
         (__HAL_CAN_GET_FLAG(hcan, CAN_FLAG_TXOK1)) ||
 8000a64:	039b      	lsls	r3, r3, #14
 8000a66:	d55d      	bpl.n	8000b24 <HAL_CAN_IRQHandler+0x12c>
        CAN_Transmit_IT(hcan);
 8000a68:	0020      	movs	r0, r4
 8000a6a:	f7ff fec9 	bl	8000800 <CAN_Transmit_IT>
      SET_BIT(hcan->Instance->TSR, CAN_TSR_RQCP0  | CAN_TSR_RQCP1  | CAN_TSR_RQCP2 | \
 8000a6e:	6822      	ldr	r2, [r4, #0]
 8000a70:	6891      	ldr	r1, [r2, #8]
 8000a72:	4b51      	ldr	r3, [pc, #324]	; (8000bb8 <HAL_CAN_IRQHandler+0x1c0>)
 8000a74:	430b      	orrs	r3, r1
 8000a76:	6093      	str	r3, [r2, #8]
  if((__HAL_CAN_GET_IT_SOURCE(hcan, CAN_IT_FMP0)) &&
 8000a78:	6823      	ldr	r3, [r4, #0]
 8000a7a:	695a      	ldr	r2, [r3, #20]
 8000a7c:	0792      	lsls	r2, r2, #30
 8000a7e:	d502      	bpl.n	8000a86 <HAL_CAN_IRQHandler+0x8e>
     (__HAL_CAN_MSG_PENDING(hcan, CAN_FIFO0) != 0U))
 8000a80:	68db      	ldr	r3, [r3, #12]
  if((__HAL_CAN_GET_IT_SOURCE(hcan, CAN_IT_FMP0)) &&
 8000a82:	079b      	lsls	r3, r3, #30
 8000a84:	d152      	bne.n	8000b2c <HAL_CAN_IRQHandler+0x134>
  if((__HAL_CAN_GET_IT_SOURCE(hcan, CAN_IT_FMP1)) &&
 8000a86:	6823      	ldr	r3, [r4, #0]
 8000a88:	695a      	ldr	r2, [r3, #20]
 8000a8a:	06d2      	lsls	r2, r2, #27
 8000a8c:	d502      	bpl.n	8000a94 <HAL_CAN_IRQHandler+0x9c>
     (__HAL_CAN_MSG_PENDING(hcan, CAN_FIFO1) != 0U))
 8000a8e:	691b      	ldr	r3, [r3, #16]
  if((__HAL_CAN_GET_IT_SOURCE(hcan, CAN_IT_FMP1)) &&
 8000a90:	079b      	lsls	r3, r3, #30
 8000a92:	d150      	bne.n	8000b36 <HAL_CAN_IRQHandler+0x13e>
  hcan->ErrorCode |= errorcode;
 8000a94:	6c23      	ldr	r3, [r4, #64]	; 0x40
 8000a96:	431d      	orrs	r5, r3
 8000a98:	6425      	str	r5, [r4, #64]	; 0x40
  if((__HAL_CAN_GET_FLAG(hcan, CAN_FLAG_EWG))    &&
 8000a9a:	6823      	ldr	r3, [r4, #0]
 8000a9c:	699a      	ldr	r2, [r3, #24]
 8000a9e:	07d2      	lsls	r2, r2, #31
 8000aa0:	d509      	bpl.n	8000ab6 <HAL_CAN_IRQHandler+0xbe>
     (__HAL_CAN_GET_IT_SOURCE(hcan, CAN_IT_EWG)) &&
 8000aa2:	695a      	ldr	r2, [r3, #20]
  if((__HAL_CAN_GET_FLAG(hcan, CAN_FLAG_EWG))    &&
 8000aa4:	05d2      	lsls	r2, r2, #23
 8000aa6:	d506      	bpl.n	8000ab6 <HAL_CAN_IRQHandler+0xbe>
     (__HAL_CAN_GET_IT_SOURCE(hcan, CAN_IT_ERR)))
 8000aa8:	695a      	ldr	r2, [r3, #20]
     (__HAL_CAN_GET_IT_SOURCE(hcan, CAN_IT_EWG)) &&
 8000aaa:	0412      	lsls	r2, r2, #16
 8000aac:	d503      	bpl.n	8000ab6 <HAL_CAN_IRQHandler+0xbe>
    hcan->ErrorCode |= HAL_CAN_ERROR_EWG;
 8000aae:	6c22      	ldr	r2, [r4, #64]	; 0x40
 8000ab0:	2101      	movs	r1, #1
 8000ab2:	430a      	orrs	r2, r1
 8000ab4:	6422      	str	r2, [r4, #64]	; 0x40
  if((__HAL_CAN_GET_FLAG(hcan, CAN_FLAG_EPV))    &&
 8000ab6:	699a      	ldr	r2, [r3, #24]
 8000ab8:	0792      	lsls	r2, r2, #30
 8000aba:	d509      	bpl.n	8000ad0 <HAL_CAN_IRQHandler+0xd8>
     (__HAL_CAN_GET_IT_SOURCE(hcan, CAN_IT_EPV)) &&
 8000abc:	695a      	ldr	r2, [r3, #20]
  if((__HAL_CAN_GET_FLAG(hcan, CAN_FLAG_EPV))    &&
 8000abe:	0592      	lsls	r2, r2, #22
 8000ac0:	d506      	bpl.n	8000ad0 <HAL_CAN_IRQHandler+0xd8>
     (__HAL_CAN_GET_IT_SOURCE(hcan, CAN_IT_ERR)))
 8000ac2:	695a      	ldr	r2, [r3, #20]
     (__HAL_CAN_GET_IT_SOURCE(hcan, CAN_IT_EPV)) &&
 8000ac4:	0412      	lsls	r2, r2, #16
 8000ac6:	d503      	bpl.n	8000ad0 <HAL_CAN_IRQHandler+0xd8>
    hcan->ErrorCode |= HAL_CAN_ERROR_EPV;
 8000ac8:	6c22      	ldr	r2, [r4, #64]	; 0x40
 8000aca:	2102      	movs	r1, #2
 8000acc:	430a      	orrs	r2, r1
 8000ace:	6422      	str	r2, [r4, #64]	; 0x40
  if((__HAL_CAN_GET_FLAG(hcan, CAN_FLAG_BOF))    &&
 8000ad0:	699a      	ldr	r2, [r3, #24]
 8000ad2:	0752      	lsls	r2, r2, #29
 8000ad4:	d509      	bpl.n	8000aea <HAL_CAN_IRQHandler+0xf2>
     (__HAL_CAN_GET_IT_SOURCE(hcan, CAN_IT_BOF)) &&
 8000ad6:	695a      	ldr	r2, [r3, #20]
  if((__HAL_CAN_GET_FLAG(hcan, CAN_FLAG_BOF))    &&
 8000ad8:	0552      	lsls	r2, r2, #21
 8000ada:	d506      	bpl.n	8000aea <HAL_CAN_IRQHandler+0xf2>
     (__HAL_CAN_GET_IT_SOURCE(hcan, CAN_IT_ERR)))
 8000adc:	695a      	ldr	r2, [r3, #20]
     (__HAL_CAN_GET_IT_SOURCE(hcan, CAN_IT_BOF)) &&
 8000ade:	0412      	lsls	r2, r2, #16
 8000ae0:	d503      	bpl.n	8000aea <HAL_CAN_IRQHandler+0xf2>
    hcan->ErrorCode |= HAL_CAN_ERROR_BOF;
 8000ae2:	6c22      	ldr	r2, [r4, #64]	; 0x40
 8000ae4:	2104      	movs	r1, #4
 8000ae6:	430a      	orrs	r2, r1
 8000ae8:	6422      	str	r2, [r4, #64]	; 0x40
  if((!HAL_IS_BIT_CLR(hcan->Instance->ESR, CAN_ESR_LEC)) &&
 8000aea:	699a      	ldr	r2, [r3, #24]
 8000aec:	2170      	movs	r1, #112	; 0x70
 8000aee:	4211      	tst	r1, r2
 8000af0:	d037      	beq.n	8000b62 <HAL_CAN_IRQHandler+0x16a>
     (__HAL_CAN_GET_IT_SOURCE(hcan, CAN_IT_LEC))         &&
 8000af2:	695a      	ldr	r2, [r3, #20]
  if((!HAL_IS_BIT_CLR(hcan->Instance->ESR, CAN_ESR_LEC)) &&
 8000af4:	0512      	lsls	r2, r2, #20
 8000af6:	d534      	bpl.n	8000b62 <HAL_CAN_IRQHandler+0x16a>
     (__HAL_CAN_GET_IT_SOURCE(hcan, CAN_IT_ERR)))
 8000af8:	695a      	ldr	r2, [r3, #20]
     (__HAL_CAN_GET_IT_SOURCE(hcan, CAN_IT_LEC))         &&
 8000afa:	0412      	lsls	r2, r2, #16
 8000afc:	d531      	bpl.n	8000b62 <HAL_CAN_IRQHandler+0x16a>
    switch(hcan->Instance->ESR & CAN_ESR_LEC)
 8000afe:	6999      	ldr	r1, [r3, #24]
 8000b00:	2270      	movs	r2, #112	; 0x70
 8000b02:	400a      	ands	r2, r1
 8000b04:	2a30      	cmp	r2, #48	; 0x30
 8000b06:	d030      	beq.n	8000b6a <HAL_CAN_IRQHandler+0x172>
 8000b08:	d91a      	bls.n	8000b40 <HAL_CAN_IRQHandler+0x148>
 8000b0a:	2a50      	cmp	r2, #80	; 0x50
 8000b0c:	d032      	beq.n	8000b74 <HAL_CAN_IRQHandler+0x17c>
 8000b0e:	2a60      	cmp	r2, #96	; 0x60
 8000b10:	d035      	beq.n	8000b7e <HAL_CAN_IRQHandler+0x186>
 8000b12:	2a40      	cmp	r2, #64	; 0x40
 8000b14:	d121      	bne.n	8000b5a <HAL_CAN_IRQHandler+0x162>
          hcan->ErrorCode |= HAL_CAN_ERROR_BR;
 8000b16:	6c22      	ldr	r2, [r4, #64]	; 0x40
 8000b18:	2140      	movs	r1, #64	; 0x40
 8000b1a:	430a      	orrs	r2, r1
 8000b1c:	6422      	str	r2, [r4, #64]	; 0x40
          break;
 8000b1e:	e01c      	b.n	8000b5a <HAL_CAN_IRQHandler+0x162>
  uint32_t errorcode = HAL_CAN_ERROR_NONE;
 8000b20:	2500      	movs	r5, #0
 8000b22:	e779      	b.n	8000a18 <HAL_CAN_IRQHandler+0x20>
        errorcode |= HAL_CAN_ERROR_TXFAIL;
 8000b24:	2380      	movs	r3, #128	; 0x80
 8000b26:	011b      	lsls	r3, r3, #4
 8000b28:	431d      	orrs	r5, r3
 8000b2a:	e7a0      	b.n	8000a6e <HAL_CAN_IRQHandler+0x76>
    CAN_Receive_IT(hcan, CAN_FIFO0);
 8000b2c:	2100      	movs	r1, #0
 8000b2e:	0020      	movs	r0, r4
 8000b30:	f7ff fe94 	bl	800085c <CAN_Receive_IT>
 8000b34:	e7a7      	b.n	8000a86 <HAL_CAN_IRQHandler+0x8e>
    CAN_Receive_IT(hcan, CAN_FIFO1);
 8000b36:	2101      	movs	r1, #1
 8000b38:	0020      	movs	r0, r4
 8000b3a:	f7ff fe8f 	bl	800085c <CAN_Receive_IT>
 8000b3e:	e7a9      	b.n	8000a94 <HAL_CAN_IRQHandler+0x9c>
    switch(hcan->Instance->ESR & CAN_ESR_LEC)
 8000b40:	2a10      	cmp	r2, #16
 8000b42:	d006      	beq.n	8000b52 <HAL_CAN_IRQHandler+0x15a>
 8000b44:	2a20      	cmp	r2, #32
 8000b46:	d108      	bne.n	8000b5a <HAL_CAN_IRQHandler+0x162>
          hcan->ErrorCode |= HAL_CAN_ERROR_FOR;
 8000b48:	6c22      	ldr	r2, [r4, #64]	; 0x40
 8000b4a:	2110      	movs	r1, #16
 8000b4c:	430a      	orrs	r2, r1
 8000b4e:	6422      	str	r2, [r4, #64]	; 0x40
          break;
 8000b50:	e003      	b.n	8000b5a <HAL_CAN_IRQHandler+0x162>
          hcan->ErrorCode |= HAL_CAN_ERROR_STF;
 8000b52:	6c22      	ldr	r2, [r4, #64]	; 0x40
 8000b54:	2108      	movs	r1, #8
 8000b56:	430a      	orrs	r2, r1
 8000b58:	6422      	str	r2, [r4, #64]	; 0x40
    CLEAR_BIT(hcan->Instance->ESR, CAN_ESR_LEC);
 8000b5a:	699a      	ldr	r2, [r3, #24]
 8000b5c:	2170      	movs	r1, #112	; 0x70
 8000b5e:	438a      	bics	r2, r1
 8000b60:	619a      	str	r2, [r3, #24]
  if(hcan->ErrorCode != HAL_CAN_ERROR_NONE)
 8000b62:	6c23      	ldr	r3, [r4, #64]	; 0x40
 8000b64:	2b00      	cmp	r3, #0
 8000b66:	d110      	bne.n	8000b8a <HAL_CAN_IRQHandler+0x192>
}
 8000b68:	bd70      	pop	{r4, r5, r6, pc}
          hcan->ErrorCode |= HAL_CAN_ERROR_ACK;
 8000b6a:	6c22      	ldr	r2, [r4, #64]	; 0x40
 8000b6c:	2120      	movs	r1, #32
 8000b6e:	430a      	orrs	r2, r1
 8000b70:	6422      	str	r2, [r4, #64]	; 0x40
          break;
 8000b72:	e7f2      	b.n	8000b5a <HAL_CAN_IRQHandler+0x162>
          hcan->ErrorCode |= HAL_CAN_ERROR_BD;
 8000b74:	6c22      	ldr	r2, [r4, #64]	; 0x40
 8000b76:	2180      	movs	r1, #128	; 0x80
 8000b78:	430a      	orrs	r2, r1
 8000b7a:	6422      	str	r2, [r4, #64]	; 0x40
          break;
 8000b7c:	e7ed      	b.n	8000b5a <HAL_CAN_IRQHandler+0x162>
          hcan->ErrorCode |= HAL_CAN_ERROR_CRC;
 8000b7e:	6c21      	ldr	r1, [r4, #64]	; 0x40
 8000b80:	2280      	movs	r2, #128	; 0x80
 8000b82:	0052      	lsls	r2, r2, #1
 8000b84:	430a      	orrs	r2, r1
 8000b86:	6422      	str	r2, [r4, #64]	; 0x40
          break;
 8000b88:	e7e7      	b.n	8000b5a <HAL_CAN_IRQHandler+0x162>
    SET_BIT(hcan->Instance->MSR, CAN_MSR_ERRI);
 8000b8a:	6822      	ldr	r2, [r4, #0]
 8000b8c:	6853      	ldr	r3, [r2, #4]
 8000b8e:	2104      	movs	r1, #4
 8000b90:	430b      	orrs	r3, r1
 8000b92:	6053      	str	r3, [r2, #4]
    hcan->State = HAL_CAN_STATE_READY;
 8000b94:	2201      	movs	r2, #1
 8000b96:	233d      	movs	r3, #61	; 0x3d
 8000b98:	54e2      	strb	r2, [r4, r3]
    __HAL_CAN_DISABLE_IT(hcan, CAN_IT_EWG |
 8000b9a:	6822      	ldr	r2, [r4, #0]
 8000b9c:	6953      	ldr	r3, [r2, #20]
 8000b9e:	4907      	ldr	r1, [pc, #28]	; (8000bbc <HAL_CAN_IRQHandler+0x1c4>)
 8000ba0:	400b      	ands	r3, r1
 8000ba2:	6153      	str	r3, [r2, #20]
    HAL_CAN_ErrorCallback(hcan);
 8000ba4:	0020      	movs	r0, r4
 8000ba6:	f003 ff35 	bl	8004a14 <HAL_CAN_ErrorCallback>
}
 8000baa:	e7dd      	b.n	8000b68 <HAL_CAN_IRQHandler+0x170>
 8000bac:	04000001 	.word	0x04000001
 8000bb0:	08000100 	.word	0x08000100
 8000bb4:	10010000 	.word	0x10010000
 8000bb8:	00010519 	.word	0x00010519
 8000bbc:	ffff70a4 	.word	0xffff70a4

08000bc0 <HAL_CAN_GetError>:
  return hcan->ErrorCode;
 8000bc0:	6c00      	ldr	r0, [r0, #64]	; 0x40
}
 8000bc2:	4770      	bx	lr

08000bc4 <HAL_NVIC_SetPriority>:
  *         with stm32f0xx devices, this parameter is a dummy value and it is ignored, because 
  *         no subpriority supported in Cortex M0 based products.   
  * @retval None
  */
void HAL_NVIC_SetPriority(IRQn_Type IRQn, uint32_t PreemptPriority, uint32_t SubPriority)
{ 
 8000bc4:	b570      	push	{r4, r5, r6, lr}
  \param [in]      IRQn  Interrupt number.
  \param [in]  priority  Priority to set.
 */
__STATIC_INLINE void NVIC_SetPriority(IRQn_Type IRQn, uint32_t priority)
{
  if ((int32_t)(IRQn) < 0)
 8000bc6:	2800      	cmp	r0, #0
 8000bc8:	db11      	blt.n	8000bee <HAL_NVIC_SetPriority+0x2a>
    SCB->SHP[_SHP_IDX(IRQn)] = ((uint32_t)(SCB->SHP[_SHP_IDX(IRQn)] & ~(0xFFUL << _BIT_SHIFT(IRQn))) |
       (((priority << (8U - __NVIC_PRIO_BITS)) & (uint32_t)0xFFUL) << _BIT_SHIFT(IRQn)));
  }
  else
  {
    NVIC->IP[_IP_IDX(IRQn)]  = ((uint32_t)(NVIC->IP[_IP_IDX(IRQn)]  & ~(0xFFUL << _BIT_SHIFT(IRQn))) |
 8000bca:	0883      	lsrs	r3, r0, #2
 8000bcc:	4d14      	ldr	r5, [pc, #80]	; (8000c20 <HAL_NVIC_SetPriority+0x5c>)
 8000bce:	33c0      	adds	r3, #192	; 0xc0
 8000bd0:	009b      	lsls	r3, r3, #2
 8000bd2:	595c      	ldr	r4, [r3, r5]
 8000bd4:	2203      	movs	r2, #3
 8000bd6:	4010      	ands	r0, r2
 8000bd8:	00c0      	lsls	r0, r0, #3
 8000bda:	32fc      	adds	r2, #252	; 0xfc
 8000bdc:	0016      	movs	r6, r2
 8000bde:	4086      	lsls	r6, r0
 8000be0:	43b4      	bics	r4, r6
       (((priority << (8U - __NVIC_PRIO_BITS)) & (uint32_t)0xFFUL) << _BIT_SHIFT(IRQn)));
 8000be2:	0189      	lsls	r1, r1, #6
 8000be4:	400a      	ands	r2, r1
 8000be6:	4082      	lsls	r2, r0
    NVIC->IP[_IP_IDX(IRQn)]  = ((uint32_t)(NVIC->IP[_IP_IDX(IRQn)]  & ~(0xFFUL << _BIT_SHIFT(IRQn))) |
 8000be8:	4322      	orrs	r2, r4
 8000bea:	515a      	str	r2, [r3, r5]
  /* Check the parameters */
  assert_param(IS_NVIC_PREEMPTION_PRIORITY(PreemptPriority));
  NVIC_SetPriority(IRQn,PreemptPriority);
}
 8000bec:	bd70      	pop	{r4, r5, r6, pc}
    SCB->SHP[_SHP_IDX(IRQn)] = ((uint32_t)(SCB->SHP[_SHP_IDX(IRQn)] & ~(0xFFUL << _BIT_SHIFT(IRQn))) |
 8000bee:	b2c0      	uxtb	r0, r0
 8000bf0:	230f      	movs	r3, #15
 8000bf2:	4003      	ands	r3, r0
 8000bf4:	3b08      	subs	r3, #8
 8000bf6:	089b      	lsrs	r3, r3, #2
 8000bf8:	3306      	adds	r3, #6
 8000bfa:	009b      	lsls	r3, r3, #2
 8000bfc:	4a09      	ldr	r2, [pc, #36]	; (8000c24 <HAL_NVIC_SetPriority+0x60>)
 8000bfe:	4694      	mov	ip, r2
 8000c00:	4463      	add	r3, ip
 8000c02:	685d      	ldr	r5, [r3, #4]
 8000c04:	2203      	movs	r2, #3
 8000c06:	4010      	ands	r0, r2
 8000c08:	00c0      	lsls	r0, r0, #3
 8000c0a:	24ff      	movs	r4, #255	; 0xff
 8000c0c:	0022      	movs	r2, r4
 8000c0e:	4082      	lsls	r2, r0
 8000c10:	4395      	bics	r5, r2
       (((priority << (8U - __NVIC_PRIO_BITS)) & (uint32_t)0xFFUL) << _BIT_SHIFT(IRQn)));
 8000c12:	0189      	lsls	r1, r1, #6
 8000c14:	400c      	ands	r4, r1
 8000c16:	4084      	lsls	r4, r0
    SCB->SHP[_SHP_IDX(IRQn)] = ((uint32_t)(SCB->SHP[_SHP_IDX(IRQn)] & ~(0xFFUL << _BIT_SHIFT(IRQn))) |
 8000c18:	432c      	orrs	r4, r5
 8000c1a:	605c      	str	r4, [r3, #4]
 8000c1c:	e7e6      	b.n	8000bec <HAL_NVIC_SetPriority+0x28>
 8000c1e:	46c0      	nop			; (mov r8, r8)
 8000c20:	e000e100 	.word	0xe000e100
 8000c24:	e000ed00 	.word	0xe000ed00

08000c28 <HAL_NVIC_EnableIRQ>:
  NVIC->ISER[0U] = (uint32_t)(1UL << (((uint32_t)(int32_t)IRQn) & 0x1FUL));
 8000c28:	231f      	movs	r3, #31
 8000c2a:	4018      	ands	r0, r3
 8000c2c:	3b1e      	subs	r3, #30
 8000c2e:	4083      	lsls	r3, r0
 8000c30:	4a01      	ldr	r2, [pc, #4]	; (8000c38 <HAL_NVIC_EnableIRQ+0x10>)
 8000c32:	6013      	str	r3, [r2, #0]
  /* Check the parameters */
  assert_param(IS_NVIC_DEVICE_IRQ(IRQn));
  
  /* Enable interrupt */
  NVIC_EnableIRQ(IRQn);
}
 8000c34:	4770      	bx	lr
 8000c36:	46c0      	nop			; (mov r8, r8)
 8000c38:	e000e100 	.word	0xe000e100

08000c3c <HAL_NVIC_DisableIRQ>:
  NVIC->ICER[0U] = (uint32_t)(1UL << (((uint32_t)(int32_t)IRQn) & 0x1FUL));
 8000c3c:	231f      	movs	r3, #31
 8000c3e:	4018      	ands	r0, r3
 8000c40:	3b1e      	subs	r3, #30
 8000c42:	4083      	lsls	r3, r0
 8000c44:	2280      	movs	r2, #128	; 0x80
 8000c46:	4901      	ldr	r1, [pc, #4]	; (8000c4c <HAL_NVIC_DisableIRQ+0x10>)
 8000c48:	508b      	str	r3, [r1, r2]
  /* Check the parameters */
  assert_param(IS_NVIC_DEVICE_IRQ(IRQn));
  
  /* Disable interrupt */
  NVIC_DisableIRQ(IRQn);
}
 8000c4a:	4770      	bx	lr
 8000c4c:	e000e100 	.word	0xe000e100

08000c50 <HAL_SYSTICK_Config>:
           function <b>SysTick_Config</b> is not included. In this case, the file <b><i>device</i>.h</b>
           must contain a vendor-specific implementation of this function.
 */
__STATIC_INLINE uint32_t SysTick_Config(uint32_t ticks)
{
  if ((ticks - 1UL) > SysTick_LOAD_RELOAD_Msk)
 8000c50:	3801      	subs	r0, #1
 8000c52:	4b0a      	ldr	r3, [pc, #40]	; (8000c7c <HAL_SYSTICK_Config+0x2c>)
 8000c54:	4298      	cmp	r0, r3
 8000c56:	d80f      	bhi.n	8000c78 <HAL_SYSTICK_Config+0x28>
  {
    return (1UL);                                                   /* Reload value impossible */
  }

  SysTick->LOAD  = (uint32_t)(ticks - 1UL);                         /* set reload register */
 8000c58:	4a09      	ldr	r2, [pc, #36]	; (8000c80 <HAL_SYSTICK_Config+0x30>)
 8000c5a:	6050      	str	r0, [r2, #4]
    SCB->SHP[_SHP_IDX(IRQn)] = ((uint32_t)(SCB->SHP[_SHP_IDX(IRQn)] & ~(0xFFUL << _BIT_SHIFT(IRQn))) |
 8000c5c:	4809      	ldr	r0, [pc, #36]	; (8000c84 <HAL_SYSTICK_Config+0x34>)
 8000c5e:	6a03      	ldr	r3, [r0, #32]
 8000c60:	021b      	lsls	r3, r3, #8
 8000c62:	0a1b      	lsrs	r3, r3, #8
 8000c64:	21c0      	movs	r1, #192	; 0xc0
 8000c66:	0609      	lsls	r1, r1, #24
 8000c68:	430b      	orrs	r3, r1
 8000c6a:	6203      	str	r3, [r0, #32]
  NVIC_SetPriority (SysTick_IRQn, (1UL << __NVIC_PRIO_BITS) - 1UL); /* set Priority for Systick Interrupt */
  SysTick->VAL   = 0UL;                                             /* Load the SysTick Counter Value */
 8000c6c:	2300      	movs	r3, #0
 8000c6e:	6093      	str	r3, [r2, #8]
  SysTick->CTRL  = SysTick_CTRL_CLKSOURCE_Msk |
 8000c70:	3307      	adds	r3, #7
 8000c72:	6013      	str	r3, [r2, #0]
                   SysTick_CTRL_TICKINT_Msk   |
                   SysTick_CTRL_ENABLE_Msk;                         /* Enable SysTick IRQ and SysTick Timer */
  return (0UL);                                                     /* Function successful */
 8000c74:	2000      	movs	r0, #0
  *                  - 1  Function failed.
  */
uint32_t HAL_SYSTICK_Config(uint32_t TicksNumb)
{
   return SysTick_Config(TicksNumb);
}
 8000c76:	4770      	bx	lr
    return (1UL);                                                   /* Reload value impossible */
 8000c78:	2001      	movs	r0, #1
   return SysTick_Config(TicksNumb);
 8000c7a:	e7fc      	b.n	8000c76 <HAL_SYSTICK_Config+0x26>
 8000c7c:	00ffffff 	.word	0x00ffffff
 8000c80:	e000e010 	.word	0xe000e010
 8000c84:	e000ed00 	.word	0xe000ed00

08000c88 <HAL_SYSTICK_CLKSourceConfig>:
  */
void HAL_SYSTICK_CLKSourceConfig(uint32_t CLKSource)
{
  /* Check the parameters */
  assert_param(IS_SYSTICK_CLK_SOURCE(CLKSource));
  if (CLKSource == SYSTICK_CLKSOURCE_HCLK)
 8000c88:	2804      	cmp	r0, #4
 8000c8a:	d005      	beq.n	8000c98 <HAL_SYSTICK_CLKSourceConfig+0x10>
  {
    SysTick->CTRL |= SYSTICK_CLKSOURCE_HCLK;
  }
  else
  {
    SysTick->CTRL &= ~SYSTICK_CLKSOURCE_HCLK;
 8000c8c:	4a05      	ldr	r2, [pc, #20]	; (8000ca4 <HAL_SYSTICK_CLKSourceConfig+0x1c>)
 8000c8e:	6813      	ldr	r3, [r2, #0]
 8000c90:	2104      	movs	r1, #4
 8000c92:	438b      	bics	r3, r1
 8000c94:	6013      	str	r3, [r2, #0]
  }
}
 8000c96:	4770      	bx	lr
    SysTick->CTRL |= SYSTICK_CLKSOURCE_HCLK;
 8000c98:	4a02      	ldr	r2, [pc, #8]	; (8000ca4 <HAL_SYSTICK_CLKSourceConfig+0x1c>)
 8000c9a:	6813      	ldr	r3, [r2, #0]
 8000c9c:	2104      	movs	r1, #4
 8000c9e:	430b      	orrs	r3, r1
 8000ca0:	6013      	str	r3, [r2, #0]
 8000ca2:	e7f8      	b.n	8000c96 <HAL_SYSTICK_CLKSourceConfig+0xe>
 8000ca4:	e000e010 	.word	0xe000e010

08000ca8 <HAL_SYSTICK_Callback>:
__weak void HAL_SYSTICK_Callback(void)
{
  /* NOTE : This function Should not be modified, when the callback is needed,
            the HAL_SYSTICK_Callback could be implemented in the user file
   */
}
 8000ca8:	4770      	bx	lr

08000caa <HAL_SYSTICK_IRQHandler>:
{
 8000caa:	b510      	push	{r4, lr}
  HAL_SYSTICK_Callback();
 8000cac:	f7ff fffc 	bl	8000ca8 <HAL_SYSTICK_Callback>
}
 8000cb0:	bd10      	pop	{r4, pc}

08000cb2 <CRC_Handle_8>:
  * @param  pBuffer pointer to the input data buffer
  * @param  BufferLength input data buffer length
  * @retval uint32_t CRC (returned value LSBs for CRC shorter than 32 bits)
  */
static uint32_t CRC_Handle_8(CRC_HandleTypeDef *hcrc, uint8_t pBuffer[], uint32_t BufferLength)
{
 8000cb2:	b5f0      	push	{r4, r5, r6, r7, lr}
  __IO uint16_t *pReg;

  /* Processing time optimization: 4 bytes are entered in a row with a single word write,
   * last bytes must be carefully fed to the CRC calculator to ensure a correct type
   * handling by the peripheral */
  for (i = 0U; i < (BufferLength / 4U); i++)
 8000cb4:	2600      	movs	r6, #0
 8000cb6:	e00e      	b.n	8000cd6 <CRC_Handle_8+0x24>
  {
    hcrc->Instance->DR = ((uint32_t)pBuffer[4U * i] << 24U) | \
 8000cb8:	6805      	ldr	r5, [r0, #0]
 8000cba:	00b4      	lsls	r4, r6, #2
 8000cbc:	5d0b      	ldrb	r3, [r1, r4]
 8000cbe:	061b      	lsls	r3, r3, #24
                         ((uint32_t)pBuffer[(4U * i) + 1U] << 16U) | \
 8000cc0:	190c      	adds	r4, r1, r4
 8000cc2:	7867      	ldrb	r7, [r4, #1]
 8000cc4:	043f      	lsls	r7, r7, #16
    hcrc->Instance->DR = ((uint32_t)pBuffer[4U * i] << 24U) | \
 8000cc6:	433b      	orrs	r3, r7
                         ((uint32_t)pBuffer[(4U * i) + 2U] << 8U)  | \
 8000cc8:	78a7      	ldrb	r7, [r4, #2]
 8000cca:	023f      	lsls	r7, r7, #8
                         ((uint32_t)pBuffer[(4U * i) + 1U] << 16U) | \
 8000ccc:	433b      	orrs	r3, r7
                         (uint32_t)pBuffer[(4U * i) + 3U];
 8000cce:	78e4      	ldrb	r4, [r4, #3]
                         ((uint32_t)pBuffer[(4U * i) + 2U] << 8U)  | \
 8000cd0:	4323      	orrs	r3, r4
    hcrc->Instance->DR = ((uint32_t)pBuffer[4U * i] << 24U) | \
 8000cd2:	602b      	str	r3, [r5, #0]
  for (i = 0U; i < (BufferLength / 4U); i++)
 8000cd4:	3601      	adds	r6, #1
 8000cd6:	0893      	lsrs	r3, r2, #2
 8000cd8:	429e      	cmp	r6, r3
 8000cda:	d3ed      	bcc.n	8000cb8 <CRC_Handle_8+0x6>
  }
  /* last bytes specific handling */
  if ((BufferLength % 4U) != 0U)
 8000cdc:	2303      	movs	r3, #3
 8000cde:	401a      	ands	r2, r3
 8000ce0:	d005      	beq.n	8000cee <CRC_Handle_8+0x3c>
  {
    if ((BufferLength % 4U) == 1U)
 8000ce2:	2a01      	cmp	r2, #1
 8000ce4:	d006      	beq.n	8000cf4 <CRC_Handle_8+0x42>
    {
      *(__IO uint8_t *)(__IO void *)(&hcrc->Instance->DR) = pBuffer[4U * i];         /* Derogation MisraC2012 R.11.5 */
    }
    if ((BufferLength % 4U) == 2U)
 8000ce6:	2a02      	cmp	r2, #2
 8000ce8:	d009      	beq.n	8000cfe <CRC_Handle_8+0x4c>
    {
      data = ((uint16_t)(pBuffer[4U * i]) << 8U) | (uint16_t)pBuffer[(4U * i) + 1U];
      pReg = (__IO uint16_t *)(__IO void *)(&hcrc->Instance->DR);                    /* Derogation MisraC2012 R.11.5 */
      *pReg = data;
    }
    if ((BufferLength % 4U) == 3U)
 8000cea:	2a03      	cmp	r2, #3
 8000cec:	d010      	beq.n	8000d10 <CRC_Handle_8+0x5e>
      *(__IO uint8_t *)(__IO void *)(&hcrc->Instance->DR) = pBuffer[(4U * i) + 2U];  /* Derogation MisraC2012 R.11.5 */
    }
  }

  /* Return the CRC computed value */
  return hcrc->Instance->DR;
 8000cee:	6803      	ldr	r3, [r0, #0]
 8000cf0:	6818      	ldr	r0, [r3, #0]
}
 8000cf2:	bdf0      	pop	{r4, r5, r6, r7, pc}
      *(__IO uint8_t *)(__IO void *)(&hcrc->Instance->DR) = pBuffer[4U * i];         /* Derogation MisraC2012 R.11.5 */
 8000cf4:	00b3      	lsls	r3, r6, #2
 8000cf6:	5ccb      	ldrb	r3, [r1, r3]
 8000cf8:	6804      	ldr	r4, [r0, #0]
 8000cfa:	7023      	strb	r3, [r4, #0]
 8000cfc:	e7f3      	b.n	8000ce6 <CRC_Handle_8+0x34>
      data = ((uint16_t)(pBuffer[4U * i]) << 8U) | (uint16_t)pBuffer[(4U * i) + 1U];
 8000cfe:	00b3      	lsls	r3, r6, #2
 8000d00:	5ccc      	ldrb	r4, [r1, r3]
 8000d02:	0224      	lsls	r4, r4, #8
 8000d04:	18cb      	adds	r3, r1, r3
 8000d06:	785b      	ldrb	r3, [r3, #1]
 8000d08:	4323      	orrs	r3, r4
      *pReg = data;
 8000d0a:	6804      	ldr	r4, [r0, #0]
 8000d0c:	8023      	strh	r3, [r4, #0]
 8000d0e:	e7ec      	b.n	8000cea <CRC_Handle_8+0x38>
      data = ((uint16_t)(pBuffer[4U * i]) << 8U) | (uint16_t)pBuffer[(4U * i) + 1U];
 8000d10:	00b6      	lsls	r6, r6, #2
 8000d12:	5d8a      	ldrb	r2, [r1, r6]
 8000d14:	0212      	lsls	r2, r2, #8
 8000d16:	198e      	adds	r6, r1, r6
 8000d18:	7873      	ldrb	r3, [r6, #1]
 8000d1a:	4313      	orrs	r3, r2
      *pReg = data;
 8000d1c:	6802      	ldr	r2, [r0, #0]
 8000d1e:	8013      	strh	r3, [r2, #0]
      *(__IO uint8_t *)(__IO void *)(&hcrc->Instance->DR) = pBuffer[(4U * i) + 2U];  /* Derogation MisraC2012 R.11.5 */
 8000d20:	78b3      	ldrb	r3, [r6, #2]
 8000d22:	6802      	ldr	r2, [r0, #0]
 8000d24:	7013      	strb	r3, [r2, #0]
 8000d26:	e7e2      	b.n	8000cee <CRC_Handle_8+0x3c>

08000d28 <CRC_Handle_16>:
  * @param  pBuffer pointer to the input data buffer
  * @param  BufferLength input data buffer length
  * @retval uint32_t CRC (returned value LSBs for CRC shorter than 32 bits)
  */
static uint32_t CRC_Handle_16(CRC_HandleTypeDef *hcrc, uint16_t pBuffer[], uint32_t BufferLength)
{
 8000d28:	b570      	push	{r4, r5, r6, lr}
  __IO uint16_t *pReg;

  /* Processing time optimization: 2 HalfWords are entered in a row with a single word write,
   * in case of odd length, last HalfWord must be carefully fed to the CRC calculator to ensure
   * a correct type handling by the peripheral */
  for (i = 0U; i < (BufferLength / 2U); i++)
 8000d2a:	2500      	movs	r5, #0
 8000d2c:	e008      	b.n	8000d40 <CRC_Handle_16+0x18>
  {
    hcrc->Instance->DR = ((uint32_t)pBuffer[2U * i] << 16U) | (uint32_t)pBuffer[(2U * i) + 1U];
 8000d2e:	6806      	ldr	r6, [r0, #0]
 8000d30:	00ac      	lsls	r4, r5, #2
 8000d32:	5b0b      	ldrh	r3, [r1, r4]
 8000d34:	041b      	lsls	r3, r3, #16
 8000d36:	190c      	adds	r4, r1, r4
 8000d38:	8864      	ldrh	r4, [r4, #2]
 8000d3a:	4323      	orrs	r3, r4
 8000d3c:	6033      	str	r3, [r6, #0]
  for (i = 0U; i < (BufferLength / 2U); i++)
 8000d3e:	3501      	adds	r5, #1
 8000d40:	0853      	lsrs	r3, r2, #1
 8000d42:	429d      	cmp	r5, r3
 8000d44:	d3f3      	bcc.n	8000d2e <CRC_Handle_16+0x6>
  }
  if ((BufferLength % 2U) != 0U)
 8000d46:	07d3      	lsls	r3, r2, #31
 8000d48:	d503      	bpl.n	8000d52 <CRC_Handle_16+0x2a>
  {
    pReg = (__IO uint16_t *)(__IO void *)(&hcrc->Instance->DR);                 /* Derogation MisraC2012 R.11.5 */
    *pReg = pBuffer[2U * i];
 8000d4a:	00ad      	lsls	r5, r5, #2
 8000d4c:	5a6b      	ldrh	r3, [r5, r1]
 8000d4e:	6802      	ldr	r2, [r0, #0]
 8000d50:	8013      	strh	r3, [r2, #0]
  }

  /* Return the CRC computed value */
  return hcrc->Instance->DR;
 8000d52:	6803      	ldr	r3, [r0, #0]
 8000d54:	6818      	ldr	r0, [r3, #0]
}
 8000d56:	bd70      	pop	{r4, r5, r6, pc}

08000d58 <HAL_CRC_MspInit>:
}
 8000d58:	4770      	bx	lr
	...

08000d5c <HAL_CRC_Init>:
{
 8000d5c:	b510      	push	{r4, lr}
 8000d5e:	1e04      	subs	r4, r0, #0
  if (hcrc == NULL)
 8000d60:	d039      	beq.n	8000dd6 <HAL_CRC_Init+0x7a>
  if (hcrc->State == HAL_CRC_STATE_RESET)
 8000d62:	7f43      	ldrb	r3, [r0, #29]
 8000d64:	2b00      	cmp	r3, #0
 8000d66:	d025      	beq.n	8000db4 <HAL_CRC_Init+0x58>
  hcrc->State = HAL_CRC_STATE_BUSY;
 8000d68:	2302      	movs	r3, #2
 8000d6a:	7763      	strb	r3, [r4, #29]
  if (hcrc->Init.DefaultPolynomialUse == DEFAULT_POLYNOMIAL_ENABLE)
 8000d6c:	7923      	ldrb	r3, [r4, #4]
 8000d6e:	2b00      	cmp	r3, #0
 8000d70:	d124      	bne.n	8000dbc <HAL_CRC_Init+0x60>
    WRITE_REG(hcrc->Instance->POL, DEFAULT_CRC32_POLY);
 8000d72:	6823      	ldr	r3, [r4, #0]
 8000d74:	4a19      	ldr	r2, [pc, #100]	; (8000ddc <HAL_CRC_Init+0x80>)
 8000d76:	615a      	str	r2, [r3, #20]
    MODIFY_REG(hcrc->Instance->CR, CRC_CR_POLYSIZE, CRC_POLYLENGTH_32B);
 8000d78:	6822      	ldr	r2, [r4, #0]
 8000d7a:	6893      	ldr	r3, [r2, #8]
 8000d7c:	2118      	movs	r1, #24
 8000d7e:	438b      	bics	r3, r1
 8000d80:	6093      	str	r3, [r2, #8]
  if (hcrc->Init.DefaultInitValueUse == DEFAULT_INIT_VALUE_ENABLE)
 8000d82:	7963      	ldrb	r3, [r4, #5]
 8000d84:	2b00      	cmp	r3, #0
 8000d86:	d122      	bne.n	8000dce <HAL_CRC_Init+0x72>
    WRITE_REG(hcrc->Instance->INIT, DEFAULT_CRC_INITVALUE);
 8000d88:	6823      	ldr	r3, [r4, #0]
 8000d8a:	2201      	movs	r2, #1
 8000d8c:	4252      	negs	r2, r2
 8000d8e:	611a      	str	r2, [r3, #16]
  MODIFY_REG(hcrc->Instance->CR, CRC_CR_REV_IN, hcrc->Init.InputDataInversionMode);
 8000d90:	6822      	ldr	r2, [r4, #0]
 8000d92:	6893      	ldr	r3, [r2, #8]
 8000d94:	2160      	movs	r1, #96	; 0x60
 8000d96:	438b      	bics	r3, r1
 8000d98:	6961      	ldr	r1, [r4, #20]
 8000d9a:	430b      	orrs	r3, r1
 8000d9c:	6093      	str	r3, [r2, #8]
  MODIFY_REG(hcrc->Instance->CR, CRC_CR_REV_OUT, hcrc->Init.OutputDataInversionMode);
 8000d9e:	6822      	ldr	r2, [r4, #0]
 8000da0:	6893      	ldr	r3, [r2, #8]
 8000da2:	2180      	movs	r1, #128	; 0x80
 8000da4:	438b      	bics	r3, r1
 8000da6:	69a1      	ldr	r1, [r4, #24]
 8000da8:	430b      	orrs	r3, r1
 8000daa:	6093      	str	r3, [r2, #8]
  hcrc->State = HAL_CRC_STATE_READY;
 8000dac:	2301      	movs	r3, #1
 8000dae:	7763      	strb	r3, [r4, #29]
  return HAL_OK;
 8000db0:	2000      	movs	r0, #0
}
 8000db2:	bd10      	pop	{r4, pc}
    hcrc->Lock = HAL_UNLOCKED;
 8000db4:	7703      	strb	r3, [r0, #28]
    HAL_CRC_MspInit(hcrc);
 8000db6:	f7ff ffcf 	bl	8000d58 <HAL_CRC_MspInit>
 8000dba:	e7d5      	b.n	8000d68 <HAL_CRC_Init+0xc>
    if (HAL_CRCEx_Polynomial_Set(hcrc, hcrc->Init.GeneratingPolynomial, hcrc->Init.CRCLength) != HAL_OK)
 8000dbc:	68e2      	ldr	r2, [r4, #12]
 8000dbe:	68a1      	ldr	r1, [r4, #8]
 8000dc0:	0020      	movs	r0, r4
 8000dc2:	f000 f835 	bl	8000e30 <HAL_CRCEx_Polynomial_Set>
 8000dc6:	2800      	cmp	r0, #0
 8000dc8:	d0db      	beq.n	8000d82 <HAL_CRC_Init+0x26>
      return HAL_ERROR;
 8000dca:	2001      	movs	r0, #1
 8000dcc:	e7f1      	b.n	8000db2 <HAL_CRC_Init+0x56>
    WRITE_REG(hcrc->Instance->INIT, hcrc->Init.InitValue);
 8000dce:	6823      	ldr	r3, [r4, #0]
 8000dd0:	6922      	ldr	r2, [r4, #16]
 8000dd2:	611a      	str	r2, [r3, #16]
 8000dd4:	e7dc      	b.n	8000d90 <HAL_CRC_Init+0x34>
    return HAL_ERROR;
 8000dd6:	2001      	movs	r0, #1
 8000dd8:	e7eb      	b.n	8000db2 <HAL_CRC_Init+0x56>
 8000dda:	46c0      	nop			; (mov r8, r8)
 8000ddc:	04c11db7 	.word	0x04c11db7

08000de0 <HAL_CRC_Calculate>:
{
 8000de0:	b570      	push	{r4, r5, r6, lr}
 8000de2:	0004      	movs	r4, r0
  hcrc->State = HAL_CRC_STATE_BUSY;
 8000de4:	2302      	movs	r3, #2
 8000de6:	7743      	strb	r3, [r0, #29]
  __HAL_CRC_DR_RESET(hcrc);
 8000de8:	6800      	ldr	r0, [r0, #0]
 8000dea:	6883      	ldr	r3, [r0, #8]
 8000dec:	2501      	movs	r5, #1
 8000dee:	432b      	orrs	r3, r5
 8000df0:	6083      	str	r3, [r0, #8]
  switch (hcrc->InputDataFormat)
 8000df2:	6a23      	ldr	r3, [r4, #32]
 8000df4:	2b02      	cmp	r3, #2
 8000df6:	d017      	beq.n	8000e28 <HAL_CRC_Calculate+0x48>
 8000df8:	2b03      	cmp	r3, #3
 8000dfa:	d00f      	beq.n	8000e1c <HAL_CRC_Calculate+0x3c>
 8000dfc:	2b01      	cmp	r3, #1
 8000dfe:	d00f      	beq.n	8000e20 <HAL_CRC_Calculate+0x40>
  uint32_t temp = 0U;  /* CRC output (read from hcrc->Instance->DR register) */
 8000e00:	2000      	movs	r0, #0
 8000e02:	e008      	b.n	8000e16 <HAL_CRC_Calculate+0x36>
        hcrc->Instance->DR = pBuffer[index];
 8000e04:	6820      	ldr	r0, [r4, #0]
 8000e06:	009d      	lsls	r5, r3, #2
 8000e08:	586d      	ldr	r5, [r5, r1]
 8000e0a:	6005      	str	r5, [r0, #0]
      for (index = 0U; index < BufferLength; index++)
 8000e0c:	3301      	adds	r3, #1
 8000e0e:	4293      	cmp	r3, r2
 8000e10:	d3f8      	bcc.n	8000e04 <HAL_CRC_Calculate+0x24>
      temp = hcrc->Instance->DR;
 8000e12:	6823      	ldr	r3, [r4, #0]
 8000e14:	6818      	ldr	r0, [r3, #0]
  hcrc->State = HAL_CRC_STATE_READY;
 8000e16:	2301      	movs	r3, #1
 8000e18:	7763      	strb	r3, [r4, #29]
}
 8000e1a:	bd70      	pop	{r4, r5, r6, pc}
  switch (hcrc->InputDataFormat)
 8000e1c:	2300      	movs	r3, #0
 8000e1e:	e7f6      	b.n	8000e0e <HAL_CRC_Calculate+0x2e>
      temp = CRC_Handle_8(hcrc, (uint8_t *)pBuffer, BufferLength);
 8000e20:	0020      	movs	r0, r4
 8000e22:	f7ff ff46 	bl	8000cb2 <CRC_Handle_8>
      break;
 8000e26:	e7f6      	b.n	8000e16 <HAL_CRC_Calculate+0x36>
      temp = CRC_Handle_16(hcrc, (uint16_t *)(void *)pBuffer, BufferLength);    /* Derogation MisraC2012 R.11.5 */
 8000e28:	0020      	movs	r0, r4
 8000e2a:	f7ff ff7d 	bl	8000d28 <CRC_Handle_16>
      break;
 8000e2e:	e7f2      	b.n	8000e16 <HAL_CRC_Calculate+0x36>

08000e30 <HAL_CRCEx_Polynomial_Set>:
  *          @arg @ref CRC_POLYLENGTH_16B 16-bit long CRC (generating polynomial of degree 16)
  *          @arg @ref CRC_POLYLENGTH_32B 32-bit long CRC (generating polynomial of degree 32)
  * @retval HAL status
  */
HAL_StatusTypeDef HAL_CRCEx_Polynomial_Set(CRC_HandleTypeDef *hcrc, uint32_t Pol, uint32_t PolyLength)
{
 8000e30:	b530      	push	{r4, r5, lr}

  /* Check the parameters */
  assert_param(IS_CRC_POL_LENGTH(PolyLength));

  /* Ensure that the generating polynomial is odd */
  if ((Pol & (uint32_t)(0x1U)) ==  0U)
 8000e32:	07cb      	lsls	r3, r1, #31
 8000e34:	d521      	bpl.n	8000e7a <HAL_CRCEx_Polynomial_Set+0x4a>
 8000e36:	231f      	movs	r3, #31
     * definition. HAL_ERROR is reported if Pol degree is
     * larger than that indicated by PolyLength.
     * Look for MSB position: msb will contain the degree of
     *  the second to the largest polynomial member. E.g., for
     *  X^7 + X^6 + X^5 + X^2 + 1, msb = 6. */
    while ((msb-- > 0U) && ((Pol & ((uint32_t)(0x1U) << (msb & 0x1FU))) == 0U))
 8000e38:	1e5c      	subs	r4, r3, #1
 8000e3a:	2b00      	cmp	r3, #0
 8000e3c:	d006      	beq.n	8000e4c <HAL_CRCEx_Polynomial_Set+0x1c>
 8000e3e:	231f      	movs	r3, #31
 8000e40:	4023      	ands	r3, r4
 8000e42:	000d      	movs	r5, r1
 8000e44:	40dd      	lsrs	r5, r3
 8000e46:	0023      	movs	r3, r4
 8000e48:	07ed      	lsls	r5, r5, #31
 8000e4a:	d5f5      	bpl.n	8000e38 <HAL_CRCEx_Polynomial_Set+0x8>
    {
    }

    switch (PolyLength)
 8000e4c:	2a08      	cmp	r2, #8
 8000e4e:	d010      	beq.n	8000e72 <HAL_CRCEx_Polynomial_Set+0x42>
 8000e50:	d907      	bls.n	8000e62 <HAL_CRCEx_Polynomial_Set+0x32>
 8000e52:	2a10      	cmp	r2, #16
 8000e54:	d009      	beq.n	8000e6a <HAL_CRCEx_Polynomial_Set+0x3a>
 8000e56:	2a18      	cmp	r2, #24
 8000e58:	d11c      	bne.n	8000e94 <HAL_CRCEx_Polynomial_Set+0x64>
    {

      case CRC_POLYLENGTH_7B:
        if (msb >= HAL_CRC_LENGTH_7B)
 8000e5a:	2c06      	cmp	r4, #6
 8000e5c:	d81c      	bhi.n	8000e98 <HAL_CRCEx_Polynomial_Set+0x68>
  HAL_StatusTypeDef status = HAL_OK;
 8000e5e:	2300      	movs	r3, #0
 8000e60:	e00c      	b.n	8000e7c <HAL_CRCEx_Polynomial_Set+0x4c>
    switch (PolyLength)
 8000e62:	2a00      	cmp	r2, #0
 8000e64:	d116      	bne.n	8000e94 <HAL_CRCEx_Polynomial_Set+0x64>
  HAL_StatusTypeDef status = HAL_OK;
 8000e66:	2300      	movs	r3, #0
 8000e68:	e008      	b.n	8000e7c <HAL_CRCEx_Polynomial_Set+0x4c>
        {
          status =   HAL_ERROR;
        }
        break;
      case CRC_POLYLENGTH_8B:
        if (msb >= HAL_CRC_LENGTH_8B)
 8000e6a:	2c07      	cmp	r4, #7
 8000e6c:	d816      	bhi.n	8000e9c <HAL_CRCEx_Polynomial_Set+0x6c>
  HAL_StatusTypeDef status = HAL_OK;
 8000e6e:	2300      	movs	r3, #0
 8000e70:	e004      	b.n	8000e7c <HAL_CRCEx_Polynomial_Set+0x4c>
        {
          status =   HAL_ERROR;
        }
        break;
      case CRC_POLYLENGTH_16B:
        if (msb >= HAL_CRC_LENGTH_16B)
 8000e72:	2c0f      	cmp	r4, #15
 8000e74:	d814      	bhi.n	8000ea0 <HAL_CRCEx_Polynomial_Set+0x70>
  HAL_StatusTypeDef status = HAL_OK;
 8000e76:	2300      	movs	r3, #0
 8000e78:	e000      	b.n	8000e7c <HAL_CRCEx_Polynomial_Set+0x4c>
    status =  HAL_ERROR;
 8000e7a:	2301      	movs	r3, #1
      default:
        status =  HAL_ERROR;
        break;
    }
  }
  if (status == HAL_OK)
 8000e7c:	2b00      	cmp	r3, #0
 8000e7e:	d107      	bne.n	8000e90 <HAL_CRCEx_Polynomial_Set+0x60>
  {
    /* set generating polynomial */
    WRITE_REG(hcrc->Instance->POL, Pol);
 8000e80:	6804      	ldr	r4, [r0, #0]
 8000e82:	6161      	str	r1, [r4, #20]

    /* set generating polynomial size */
    MODIFY_REG(hcrc->Instance->CR, CRC_CR_POLYSIZE, PolyLength);
 8000e84:	6800      	ldr	r0, [r0, #0]
 8000e86:	6881      	ldr	r1, [r0, #8]
 8000e88:	2418      	movs	r4, #24
 8000e8a:	43a1      	bics	r1, r4
 8000e8c:	430a      	orrs	r2, r1
 8000e8e:	6082      	str	r2, [r0, #8]
  }
  /* Return function status */
  return status;
}
 8000e90:	0018      	movs	r0, r3
 8000e92:	bd30      	pop	{r4, r5, pc}
        status =  HAL_ERROR;
 8000e94:	2301      	movs	r3, #1
 8000e96:	e7f1      	b.n	8000e7c <HAL_CRCEx_Polynomial_Set+0x4c>
          status =   HAL_ERROR;
 8000e98:	2301      	movs	r3, #1
 8000e9a:	e7ef      	b.n	8000e7c <HAL_CRCEx_Polynomial_Set+0x4c>
          status =   HAL_ERROR;
 8000e9c:	2301      	movs	r3, #1
 8000e9e:	e7ed      	b.n	8000e7c <HAL_CRCEx_Polynomial_Set+0x4c>
          status =   HAL_ERROR;
 8000ea0:	2301      	movs	r3, #1
 8000ea2:	e7eb      	b.n	8000e7c <HAL_CRCEx_Polynomial_Set+0x4c>

08000ea4 <HAL_DMA_Init>:
  * @param  hdma Pointer to a DMA_HandleTypeDef structure that contains
  *               the configuration information for the specified DMA Channel.  
  * @retval HAL status
  */
HAL_StatusTypeDef HAL_DMA_Init(DMA_HandleTypeDef *hdma)
{ 
 8000ea4:	b570      	push	{r4, r5, r6, lr}
 8000ea6:	0004      	movs	r4, r0
  uint32_t tmp = 0U;
  
  /* Check the DMA handle allocation */
  if(NULL == hdma)
  {
    return HAL_ERROR;
 8000ea8:	2001      	movs	r0, #1
  if(NULL == hdma)
 8000eaa:	2c00      	cmp	r4, #0
 8000eac:	d028      	beq.n	8000f00 <HAL_DMA_Init+0x5c>
  assert_param(IS_DMA_MEMORY_DATA_SIZE(hdma->Init.MemDataAlignment));
  assert_param(IS_DMA_MODE(hdma->Init.Mode));
  assert_param(IS_DMA_PRIORITY(hdma->Init.Priority));
  
  /* Change DMA peripheral state */
  hdma->State = HAL_DMA_STATE_BUSY;
 8000eae:	2302      	movs	r3, #2

  /* Get the CR register value */
  tmp = hdma->Instance->CCR;
 8000eb0:	6820      	ldr	r0, [r4, #0]
  hdma->State = HAL_DMA_STATE_BUSY;
 8000eb2:	1ca5      	adds	r5, r4, #2
 8000eb4:	77eb      	strb	r3, [r5, #31]
  tmp = hdma->Instance->CCR;
 8000eb6:	6802      	ldr	r2, [r0, #0]
  
  /* Clear PL, MSIZE, PSIZE, MINC, PINC, CIRC, DIR bits */
  tmp &= ((uint32_t)~(DMA_CCR_PL    | DMA_CCR_MSIZE  | DMA_CCR_PSIZE  | \
 8000eb8:	4b12      	ldr	r3, [pc, #72]	; (8000f04 <HAL_DMA_Init+0x60>)
                      DMA_CCR_MINC  | DMA_CCR_PINC   | DMA_CCR_CIRC   | \
                      DMA_CCR_DIR));
  
  /* Prepare the DMA Channel configuration */
  tmp |=  hdma->Init.Direction        |
 8000eba:	68a1      	ldr	r1, [r4, #8]
  tmp &= ((uint32_t)~(DMA_CCR_PL    | DMA_CCR_MSIZE  | DMA_CCR_PSIZE  | \
 8000ebc:	401a      	ands	r2, r3
  tmp |=  hdma->Init.Direction        |
 8000ebe:	6863      	ldr	r3, [r4, #4]
 8000ec0:	430b      	orrs	r3, r1
          hdma->Init.PeriphInc           | hdma->Init.MemInc           |
 8000ec2:	68e1      	ldr	r1, [r4, #12]
 8000ec4:	430b      	orrs	r3, r1
 8000ec6:	6921      	ldr	r1, [r4, #16]
 8000ec8:	430b      	orrs	r3, r1
          hdma->Init.PeriphDataAlignment | hdma->Init.MemDataAlignment |
 8000eca:	6961      	ldr	r1, [r4, #20]
 8000ecc:	430b      	orrs	r3, r1
 8000ece:	69a1      	ldr	r1, [r4, #24]
 8000ed0:	430b      	orrs	r3, r1
          hdma->Init.Mode                | hdma->Init.Priority;
 8000ed2:	69e1      	ldr	r1, [r4, #28]
 8000ed4:	430b      	orrs	r3, r1
  tmp |=  hdma->Init.Direction        |
 8000ed6:	4313      	orrs	r3, r2

  /* Write to DMA Channel CR register */
  hdma->Instance->CCR = tmp;  
 8000ed8:	6003      	str	r3, [r0, #0]
    hdma->DmaBaseAddress = DMA2;
  }
#else
  /* calculation of the channel index */
  /* DMA1 */
  hdma->ChannelIndex = (((uint32_t)hdma->Instance - (uint32_t)DMA1_Channel1) / ((uint32_t)DMA1_Channel2 - (uint32_t)DMA1_Channel1)) << 2U;
 8000eda:	4b0b      	ldr	r3, [pc, #44]	; (8000f08 <HAL_DMA_Init+0x64>)
 8000edc:	2114      	movs	r1, #20
 8000ede:	18c0      	adds	r0, r0, r3
 8000ee0:	f7ff f930 	bl	8000144 <__udivsi3>
  hdma->DmaBaseAddress = DMA1;
 8000ee4:	4b09      	ldr	r3, [pc, #36]	; (8000f0c <HAL_DMA_Init+0x68>)
  hdma->ChannelIndex = (((uint32_t)hdma->Instance - (uint32_t)DMA1_Channel1) / ((uint32_t)DMA1_Channel2 - (uint32_t)DMA1_Channel1)) << 2U;
 8000ee6:	0080      	lsls	r0, r0, #2
 8000ee8:	6420      	str	r0, [r4, #64]	; 0x40
  hdma->DmaBaseAddress = DMA1;
 8000eea:	63e3      	str	r3, [r4, #60]	; 0x3c
  hdma->XferCpltCallback = NULL;
 8000eec:	2000      	movs	r0, #0
  hdma->State = HAL_DMA_STATE_READY;
 8000eee:	2301      	movs	r3, #1
  hdma->XferCpltCallback = NULL;
 8000ef0:	62a0      	str	r0, [r4, #40]	; 0x28
  hdma->XferHalfCpltCallback = NULL;
 8000ef2:	62e0      	str	r0, [r4, #44]	; 0x2c
  hdma->XferErrorCallback = NULL;
 8000ef4:	6320      	str	r0, [r4, #48]	; 0x30
  hdma->XferAbortCallback = NULL;
 8000ef6:	6360      	str	r0, [r4, #52]	; 0x34
  hdma->ErrorCode = HAL_DMA_ERROR_NONE;
 8000ef8:	63a0      	str	r0, [r4, #56]	; 0x38
  hdma->Lock = HAL_UNLOCKED;
 8000efa:	18e4      	adds	r4, r4, r3
  hdma->State = HAL_DMA_STATE_READY;
 8000efc:	77eb      	strb	r3, [r5, #31]
  hdma->Lock = HAL_UNLOCKED;
 8000efe:	77e0      	strb	r0, [r4, #31]
}  
 8000f00:	bd70      	pop	{r4, r5, r6, pc}
 8000f02:	46c0      	nop			; (mov r8, r8)
 8000f04:	ffffc00f 	.word	0xffffc00f
 8000f08:	bffdfff8 	.word	0xbffdfff8
 8000f0c:	40020000 	.word	0x40020000

08000f10 <HAL_DMA_Start_IT>:
{
 8000f10:	b5f0      	push	{r4, r5, r6, r7, lr}
  __HAL_LOCK(hdma);
 8000f12:	1c46      	adds	r6, r0, #1
 8000f14:	7ff5      	ldrb	r5, [r6, #31]
 8000f16:	2402      	movs	r4, #2
 8000f18:	2d01      	cmp	r5, #1
 8000f1a:	d026      	beq.n	8000f6a <HAL_DMA_Start_IT+0x5a>
 8000f1c:	2501      	movs	r5, #1
 8000f1e:	77f5      	strb	r5, [r6, #31]
  if(HAL_DMA_STATE_READY == hdma->State)
 8000f20:	1905      	adds	r5, r0, r4
 8000f22:	46ac      	mov	ip, r5
 8000f24:	7fed      	ldrb	r5, [r5, #31]
 8000f26:	2700      	movs	r7, #0
 8000f28:	b2ed      	uxtb	r5, r5
 8000f2a:	2d01      	cmp	r5, #1
 8000f2c:	d129      	bne.n	8000f82 <HAL_DMA_Start_IT+0x72>
  	hdma->State = HAL_DMA_STATE_BUSY;
 8000f2e:	4666      	mov	r6, ip
 8000f30:	77f4      	strb	r4, [r6, #31]
  	hdma->Instance->CCR &= ~DMA_CCR_EN;
 8000f32:	6804      	ldr	r4, [r0, #0]
  	hdma->ErrorCode = HAL_DMA_ERROR_NONE;
 8000f34:	6387      	str	r7, [r0, #56]	; 0x38
  	hdma->Instance->CCR &= ~DMA_CCR_EN;
 8000f36:	6826      	ldr	r6, [r4, #0]
  hdma->DmaBaseAddress->IFCR  = (DMA_FLAG_GL1 << hdma->ChannelIndex);
 8000f38:	6c07      	ldr	r7, [r0, #64]	; 0x40
  	hdma->Instance->CCR &= ~DMA_CCR_EN;
 8000f3a:	43ae      	bics	r6, r5
  hdma->DmaBaseAddress->IFCR  = (DMA_FLAG_GL1 << hdma->ChannelIndex);
 8000f3c:	40bd      	lsls	r5, r7
  	hdma->Instance->CCR &= ~DMA_CCR_EN;
 8000f3e:	6026      	str	r6, [r4, #0]
  hdma->DmaBaseAddress->IFCR  = (DMA_FLAG_GL1 << hdma->ChannelIndex);
 8000f40:	6bc6      	ldr	r6, [r0, #60]	; 0x3c
 8000f42:	6075      	str	r5, [r6, #4]
  hdma->Instance->CNDTR = DataLength;
 8000f44:	6063      	str	r3, [r4, #4]
  if((hdma->Init.Direction) == DMA_MEMORY_TO_PERIPH)
 8000f46:	6843      	ldr	r3, [r0, #4]
 8000f48:	6805      	ldr	r5, [r0, #0]
 8000f4a:	2b10      	cmp	r3, #16
 8000f4c:	d10f      	bne.n	8000f6e <HAL_DMA_Start_IT+0x5e>
    hdma->Instance->CPAR = DstAddress;
 8000f4e:	60a2      	str	r2, [r4, #8]
    hdma->Instance->CMAR = SrcAddress;
 8000f50:	60e1      	str	r1, [r4, #12]
    if(NULL != hdma->XferHalfCpltCallback )
 8000f52:	6ac3      	ldr	r3, [r0, #44]	; 0x2c
      hdma->Instance->CCR |= (DMA_IT_TC | DMA_IT_HT | DMA_IT_TE);
 8000f54:	6822      	ldr	r2, [r4, #0]
    if(NULL != hdma->XferHalfCpltCallback )
 8000f56:	2b00      	cmp	r3, #0
 8000f58:	d00c      	beq.n	8000f74 <HAL_DMA_Start_IT+0x64>
      hdma->Instance->CCR |= (DMA_IT_TC | DMA_IT_HT | DMA_IT_TE);
 8000f5a:	230e      	movs	r3, #14
 8000f5c:	4313      	orrs	r3, r2
  		hdma->Instance->CCR &= ~DMA_IT_HT;
 8000f5e:	6023      	str	r3, [r4, #0]
  	hdma->Instance->CCR |= DMA_CCR_EN;
 8000f60:	2301      	movs	r3, #1
	HAL_StatusTypeDef status = HAL_OK;
 8000f62:	2400      	movs	r4, #0
  	hdma->Instance->CCR |= DMA_CCR_EN;
 8000f64:	682a      	ldr	r2, [r5, #0]
 8000f66:	4313      	orrs	r3, r2
 8000f68:	602b      	str	r3, [r5, #0]
} 
 8000f6a:	0020      	movs	r0, r4
 8000f6c:	bdf0      	pop	{r4, r5, r6, r7, pc}
    hdma->Instance->CPAR = SrcAddress;
 8000f6e:	60a1      	str	r1, [r4, #8]
    hdma->Instance->CMAR = DstAddress;
 8000f70:	60e2      	str	r2, [r4, #12]
 8000f72:	e7ee      	b.n	8000f52 <HAL_DMA_Start_IT+0x42>
  		hdma->Instance->CCR |= (DMA_IT_TC | DMA_IT_TE);
 8000f74:	230a      	movs	r3, #10
 8000f76:	4313      	orrs	r3, r2
  		hdma->Instance->CCR &= ~DMA_IT_HT;
 8000f78:	2204      	movs	r2, #4
  		hdma->Instance->CCR |= (DMA_IT_TC | DMA_IT_TE);
 8000f7a:	6023      	str	r3, [r4, #0]
  		hdma->Instance->CCR &= ~DMA_IT_HT;
 8000f7c:	6823      	ldr	r3, [r4, #0]
 8000f7e:	4393      	bics	r3, r2
 8000f80:	e7ed      	b.n	8000f5e <HAL_DMA_Start_IT+0x4e>
    __HAL_UNLOCK(hdma); 
 8000f82:	77f7      	strb	r7, [r6, #31]
 8000f84:	e7f1      	b.n	8000f6a <HAL_DMA_Start_IT+0x5a>

08000f86 <HAL_DMA_Abort_IT>:
{  
 8000f86:	b570      	push	{r4, r5, r6, lr}
  if(HAL_DMA_STATE_BUSY != hdma->State)
 8000f88:	1c84      	adds	r4, r0, #2
 8000f8a:	7fe3      	ldrb	r3, [r4, #31]
 8000f8c:	2b02      	cmp	r3, #2
 8000f8e:	d004      	beq.n	8000f9a <HAL_DMA_Abort_IT+0x14>
    hdma->ErrorCode = HAL_DMA_ERROR_NO_XFER;
 8000f90:	2304      	movs	r3, #4
 8000f92:	6383      	str	r3, [r0, #56]	; 0x38
    status = HAL_ERROR;
 8000f94:	3b03      	subs	r3, #3
}
 8000f96:	0018      	movs	r0, r3
 8000f98:	bd70      	pop	{r4, r5, r6, pc}
    hdma->Instance->CCR &= ~(DMA_IT_TC | DMA_IT_HT | DMA_IT_TE);
 8000f9a:	210e      	movs	r1, #14
 8000f9c:	6803      	ldr	r3, [r0, #0]
    hdma->DmaBaseAddress->IFCR = DMA_FLAG_GL1 << hdma->ChannelIndex;
 8000f9e:	6c05      	ldr	r5, [r0, #64]	; 0x40
    hdma->Instance->CCR &= ~(DMA_IT_TC | DMA_IT_HT | DMA_IT_TE);
 8000fa0:	681a      	ldr	r2, [r3, #0]
 8000fa2:	438a      	bics	r2, r1
 8000fa4:	601a      	str	r2, [r3, #0]
    hdma->Instance->CCR &= ~DMA_CCR_EN;
 8000fa6:	2201      	movs	r2, #1
 8000fa8:	6819      	ldr	r1, [r3, #0]
 8000faa:	4391      	bics	r1, r2
 8000fac:	6019      	str	r1, [r3, #0]
    hdma->DmaBaseAddress->IFCR = DMA_FLAG_GL1 << hdma->ChannelIndex;
 8000fae:	0011      	movs	r1, r2
 8000fb0:	40a9      	lsls	r1, r5
 8000fb2:	6bc3      	ldr	r3, [r0, #60]	; 0x3c
 8000fb4:	6059      	str	r1, [r3, #4]
    hdma->State = HAL_DMA_STATE_READY;
 8000fb6:	77e2      	strb	r2, [r4, #31]
    __HAL_UNLOCK(hdma);
 8000fb8:	2400      	movs	r4, #0
 8000fba:	1883      	adds	r3, r0, r2
    if(hdma->XferAbortCallback != NULL)
 8000fbc:	6b42      	ldr	r2, [r0, #52]	; 0x34
    __HAL_UNLOCK(hdma);
 8000fbe:	77dc      	strb	r4, [r3, #31]
  HAL_StatusTypeDef status = HAL_OK;
 8000fc0:	0013      	movs	r3, r2
    if(hdma->XferAbortCallback != NULL)
 8000fc2:	42a2      	cmp	r2, r4
 8000fc4:	d0e7      	beq.n	8000f96 <HAL_DMA_Abort_IT+0x10>
      hdma->XferAbortCallback(hdma);
 8000fc6:	4790      	blx	r2
  HAL_StatusTypeDef status = HAL_OK;
 8000fc8:	0023      	movs	r3, r4
 8000fca:	e7e4      	b.n	8000f96 <HAL_DMA_Abort_IT+0x10>

08000fcc <HAL_DMA_IRQHandler>:
{
 8000fcc:	b5f8      	push	{r3, r4, r5, r6, r7, lr}
  if ((RESET != (flag_it & (DMA_FLAG_HT1 << hdma->ChannelIndex))) && (RESET != (source_it & DMA_IT_HT)))
 8000fce:	2704      	movs	r7, #4
 8000fd0:	003e      	movs	r6, r7
 8000fd2:	6c01      	ldr	r1, [r0, #64]	; 0x40
	uint32_t flag_it = hdma->DmaBaseAddress->ISR;
 8000fd4:	6bc2      	ldr	r2, [r0, #60]	; 0x3c
  if ((RESET != (flag_it & (DMA_FLAG_HT1 << hdma->ChannelIndex))) && (RESET != (source_it & DMA_IT_HT)))
 8000fd6:	408e      	lsls	r6, r1
	uint32_t flag_it = hdma->DmaBaseAddress->ISR;
 8000fd8:	6815      	ldr	r5, [r2, #0]
  uint32_t source_it = hdma->Instance->CCR;
 8000fda:	6803      	ldr	r3, [r0, #0]
 8000fdc:	681c      	ldr	r4, [r3, #0]
  if ((RESET != (flag_it & (DMA_FLAG_HT1 << hdma->ChannelIndex))) && (RESET != (source_it & DMA_IT_HT)))
 8000fde:	422e      	tst	r6, r5
 8000fe0:	d00d      	beq.n	8000ffe <HAL_DMA_IRQHandler+0x32>
 8000fe2:	423c      	tst	r4, r7
 8000fe4:	d00b      	beq.n	8000ffe <HAL_DMA_IRQHandler+0x32>
  	if((hdma->Instance->CCR & DMA_CCR_CIRC) == 0U)
 8000fe6:	6819      	ldr	r1, [r3, #0]
 8000fe8:	0689      	lsls	r1, r1, #26
 8000fea:	d402      	bmi.n	8000ff2 <HAL_DMA_IRQHandler+0x26>
  		hdma->Instance->CCR &= ~DMA_IT_HT;
 8000fec:	6819      	ldr	r1, [r3, #0]
 8000fee:	43b9      	bics	r1, r7
 8000ff0:	6019      	str	r1, [r3, #0]
  	if(hdma->XferHalfCpltCallback != NULL)
 8000ff2:	6ac3      	ldr	r3, [r0, #44]	; 0x2c
  	hdma->DmaBaseAddress->IFCR = DMA_FLAG_HT1 << hdma->ChannelIndex;
 8000ff4:	6056      	str	r6, [r2, #4]
  	if(hdma->XferHalfCpltCallback != NULL)
 8000ff6:	2b00      	cmp	r3, #0
 8000ff8:	d019      	beq.n	800102e <HAL_DMA_IRQHandler+0x62>
    	hdma->XferErrorCallback(hdma);
 8000ffa:	4798      	blx	r3
}  
 8000ffc:	e017      	b.n	800102e <HAL_DMA_IRQHandler+0x62>
  else if ((RESET != (flag_it & (DMA_FLAG_TC1 << hdma->ChannelIndex))) && (RESET != (source_it & DMA_IT_TC)))
 8000ffe:	2702      	movs	r7, #2
 8001000:	003e      	movs	r6, r7
 8001002:	408e      	lsls	r6, r1
 8001004:	422e      	tst	r6, r5
 8001006:	d013      	beq.n	8001030 <HAL_DMA_IRQHandler+0x64>
 8001008:	423c      	tst	r4, r7
 800100a:	d011      	beq.n	8001030 <HAL_DMA_IRQHandler+0x64>
  	if((hdma->Instance->CCR & DMA_CCR_CIRC) == 0U)
 800100c:	6819      	ldr	r1, [r3, #0]
 800100e:	0689      	lsls	r1, r1, #26
 8001010:	d406      	bmi.n	8001020 <HAL_DMA_IRQHandler+0x54>
  		hdma->Instance->CCR &= ~(DMA_IT_TC | DMA_IT_TE);
 8001012:	240a      	movs	r4, #10
 8001014:	6819      	ldr	r1, [r3, #0]
 8001016:	43a1      	bics	r1, r4
 8001018:	6019      	str	r1, [r3, #0]
  		hdma->State = HAL_DMA_STATE_READY;
 800101a:	2101      	movs	r1, #1
 800101c:	19c3      	adds	r3, r0, r7
 800101e:	77d9      	strb	r1, [r3, #31]
  	hdma->DmaBaseAddress->IFCR = DMA_FLAG_TC1 << hdma->ChannelIndex;
 8001020:	6056      	str	r6, [r2, #4]
  	__HAL_UNLOCK(hdma);
 8001022:	2200      	movs	r2, #0
 8001024:	1c43      	adds	r3, r0, #1
 8001026:	77da      	strb	r2, [r3, #31]
  	if(hdma->XferCpltCallback != NULL)
 8001028:	6a83      	ldr	r3, [r0, #40]	; 0x28
    if(hdma->XferErrorCallback != NULL)
 800102a:	4293      	cmp	r3, r2
 800102c:	d1e5      	bne.n	8000ffa <HAL_DMA_IRQHandler+0x2e>
}  
 800102e:	bdf8      	pop	{r3, r4, r5, r6, r7, pc}
  else if (( RESET != (flag_it & (DMA_FLAG_TE1 << hdma->ChannelIndex))) && (RESET != (source_it & DMA_IT_TE)))
 8001030:	2608      	movs	r6, #8
 8001032:	0037      	movs	r7, r6
 8001034:	408f      	lsls	r7, r1
 8001036:	423d      	tst	r5, r7
 8001038:	d0f9      	beq.n	800102e <HAL_DMA_IRQHandler+0x62>
 800103a:	4234      	tst	r4, r6
 800103c:	d0f7      	beq.n	800102e <HAL_DMA_IRQHandler+0x62>
    hdma->Instance->CCR &= ~(DMA_IT_TC | DMA_IT_HT | DMA_IT_TE);
 800103e:	250e      	movs	r5, #14
 8001040:	681c      	ldr	r4, [r3, #0]
 8001042:	43ac      	bics	r4, r5
 8001044:	601c      	str	r4, [r3, #0]
    hdma->DmaBaseAddress->IFCR = DMA_FLAG_GL1 << hdma->ChannelIndex;
 8001046:	2301      	movs	r3, #1
 8001048:	001c      	movs	r4, r3
 800104a:	408c      	lsls	r4, r1
 800104c:	6054      	str	r4, [r2, #4]
    hdma->State = HAL_DMA_STATE_READY;    
 800104e:	1c82      	adds	r2, r0, #2
    hdma->ErrorCode = HAL_DMA_ERROR_TE;
 8001050:	6383      	str	r3, [r0, #56]	; 0x38
    hdma->State = HAL_DMA_STATE_READY;    
 8001052:	77d3      	strb	r3, [r2, #31]
    __HAL_UNLOCK(hdma); 
 8001054:	2200      	movs	r2, #0
 8001056:	18c3      	adds	r3, r0, r3
 8001058:	77da      	strb	r2, [r3, #31]
    if(hdma->XferErrorCallback != NULL)
 800105a:	6b03      	ldr	r3, [r0, #48]	; 0x30
 800105c:	e7e5      	b.n	800102a <HAL_DMA_IRQHandler+0x5e>

0800105e <HAL_DMA_GetState>:
  return hdma->State;
 800105e:	3002      	adds	r0, #2
 8001060:	7fc0      	ldrb	r0, [r0, #31]
 8001062:	b2c0      	uxtb	r0, r0
}
 8001064:	4770      	bx	lr
	...

08001068 <FLASH_SetErrorCode>:
  */
static void FLASH_SetErrorCode(void)
{
  uint32_t flags = 0U;
  
  if(__HAL_FLASH_GET_FLAG(FLASH_FLAG_WRPERR))
 8001068:	2110      	movs	r1, #16
 800106a:	4b0c      	ldr	r3, [pc, #48]	; (800109c <FLASH_SetErrorCode+0x34>)
{
 800106c:	b530      	push	{r4, r5, lr}
  if(__HAL_FLASH_GET_FLAG(FLASH_FLAG_WRPERR))
 800106e:	68d8      	ldr	r0, [r3, #12]
  uint32_t flags = 0U;
 8001070:	2200      	movs	r2, #0
  if(__HAL_FLASH_GET_FLAG(FLASH_FLAG_WRPERR))
 8001072:	4208      	tst	r0, r1
 8001074:	d005      	beq.n	8001082 <FLASH_SetErrorCode+0x1a>
  {
    pFlash.ErrorCode |= HAL_FLASH_ERROR_WRP;
 8001076:	480a      	ldr	r0, [pc, #40]	; (80010a0 <FLASH_SetErrorCode+0x38>)
 8001078:	3202      	adds	r2, #2
 800107a:	69c4      	ldr	r4, [r0, #28]
 800107c:	4322      	orrs	r2, r4
 800107e:	61c2      	str	r2, [r0, #28]
    flags |= FLASH_FLAG_WRPERR;
 8001080:	000a      	movs	r2, r1
  }
  if(__HAL_FLASH_GET_FLAG(FLASH_FLAG_PGERR))
 8001082:	2004      	movs	r0, #4
 8001084:	68d9      	ldr	r1, [r3, #12]
 8001086:	4201      	tst	r1, r0
 8001088:	d005      	beq.n	8001096 <FLASH_SetErrorCode+0x2e>
  {
    pFlash.ErrorCode |= HAL_FLASH_ERROR_PROG;
 800108a:	2101      	movs	r1, #1
 800108c:	4c04      	ldr	r4, [pc, #16]	; (80010a0 <FLASH_SetErrorCode+0x38>)
    flags |= FLASH_FLAG_PGERR;
 800108e:	4302      	orrs	r2, r0
    pFlash.ErrorCode |= HAL_FLASH_ERROR_PROG;
 8001090:	69e5      	ldr	r5, [r4, #28]
 8001092:	4329      	orrs	r1, r5
 8001094:	61e1      	str	r1, [r4, #28]
  }
  /* Clear FLASH error pending bits */
  __HAL_FLASH_CLEAR_FLAG(flags);
 8001096:	60da      	str	r2, [r3, #12]
}  
 8001098:	bd30      	pop	{r4, r5, pc}
 800109a:	46c0      	nop			; (mov r8, r8)
 800109c:	40022000 	.word	0x40022000
 80010a0:	200004f8 	.word	0x200004f8

080010a4 <HAL_FLASH_Unlock>:
  if (HAL_IS_BIT_SET(FLASH->CR, FLASH_CR_LOCK))
 80010a4:	4b05      	ldr	r3, [pc, #20]	; (80010bc <HAL_FLASH_Unlock+0x18>)
    return HAL_ERROR;
 80010a6:	2001      	movs	r0, #1
  if (HAL_IS_BIT_SET(FLASH->CR, FLASH_CR_LOCK))
 80010a8:	691a      	ldr	r2, [r3, #16]
 80010aa:	0612      	lsls	r2, r2, #24
 80010ac:	d504      	bpl.n	80010b8 <HAL_FLASH_Unlock+0x14>
  return HAL_OK; 
 80010ae:	2000      	movs	r0, #0
    WRITE_REG(FLASH->KEYR, FLASH_KEY1);
 80010b0:	4a03      	ldr	r2, [pc, #12]	; (80010c0 <HAL_FLASH_Unlock+0x1c>)
 80010b2:	605a      	str	r2, [r3, #4]
    WRITE_REG(FLASH->KEYR, FLASH_KEY2);
 80010b4:	4a03      	ldr	r2, [pc, #12]	; (80010c4 <HAL_FLASH_Unlock+0x20>)
 80010b6:	605a      	str	r2, [r3, #4]
}
 80010b8:	4770      	bx	lr
 80010ba:	46c0      	nop			; (mov r8, r8)
 80010bc:	40022000 	.word	0x40022000
 80010c0:	45670123 	.word	0x45670123
 80010c4:	cdef89ab 	.word	0xcdef89ab

080010c8 <HAL_FLASH_Lock>:
  SET_BIT(FLASH->CR, FLASH_CR_LOCK);
 80010c8:	2380      	movs	r3, #128	; 0x80
 80010ca:	4a03      	ldr	r2, [pc, #12]	; (80010d8 <HAL_FLASH_Lock+0x10>)
}
 80010cc:	2000      	movs	r0, #0
  SET_BIT(FLASH->CR, FLASH_CR_LOCK);
 80010ce:	6911      	ldr	r1, [r2, #16]
 80010d0:	430b      	orrs	r3, r1
 80010d2:	6113      	str	r3, [r2, #16]
}
 80010d4:	4770      	bx	lr
 80010d6:	46c0      	nop			; (mov r8, r8)
 80010d8:	40022000 	.word	0x40022000

080010dc <HAL_FLASH_OB_Unlock>:
  if (HAL_IS_BIT_CLR(FLASH->CR, FLASH_CR_OPTWRE))
 80010dc:	2180      	movs	r1, #128	; 0x80
 80010de:	4a06      	ldr	r2, [pc, #24]	; (80010f8 <HAL_FLASH_OB_Unlock+0x1c>)
 80010e0:	0089      	lsls	r1, r1, #2
 80010e2:	6913      	ldr	r3, [r2, #16]
    return HAL_ERROR;
 80010e4:	2001      	movs	r0, #1
  if (HAL_IS_BIT_CLR(FLASH->CR, FLASH_CR_OPTWRE))
 80010e6:	400b      	ands	r3, r1
 80010e8:	d104      	bne.n	80010f4 <HAL_FLASH_OB_Unlock+0x18>
  return HAL_OK;  
 80010ea:	0018      	movs	r0, r3
    WRITE_REG(FLASH->OPTKEYR, FLASH_OPTKEY1);
 80010ec:	4903      	ldr	r1, [pc, #12]	; (80010fc <HAL_FLASH_OB_Unlock+0x20>)
 80010ee:	6091      	str	r1, [r2, #8]
    WRITE_REG(FLASH->OPTKEYR, FLASH_OPTKEY2);
 80010f0:	4903      	ldr	r1, [pc, #12]	; (8001100 <HAL_FLASH_OB_Unlock+0x24>)
 80010f2:	6091      	str	r1, [r2, #8]
}
 80010f4:	4770      	bx	lr
 80010f6:	46c0      	nop			; (mov r8, r8)
 80010f8:	40022000 	.word	0x40022000
 80010fc:	45670123 	.word	0x45670123
 8001100:	cdef89ab 	.word	0xcdef89ab

08001104 <HAL_FLASH_OB_Lock>:
  CLEAR_BIT(FLASH->CR, FLASH_CR_OPTWRE);
 8001104:	4a03      	ldr	r2, [pc, #12]	; (8001114 <HAL_FLASH_OB_Lock+0x10>)
 8001106:	4904      	ldr	r1, [pc, #16]	; (8001118 <HAL_FLASH_OB_Lock+0x14>)
 8001108:	6913      	ldr	r3, [r2, #16]
}
 800110a:	2000      	movs	r0, #0
  CLEAR_BIT(FLASH->CR, FLASH_CR_OPTWRE);
 800110c:	400b      	ands	r3, r1
 800110e:	6113      	str	r3, [r2, #16]
}
 8001110:	4770      	bx	lr
 8001112:	46c0      	nop			; (mov r8, r8)
 8001114:	40022000 	.word	0x40022000
 8001118:	fffffdff 	.word	0xfffffdff

0800111c <FLASH_WaitForLastOperation>:
{
 800111c:	b570      	push	{r4, r5, r6, lr}
 800111e:	0004      	movs	r4, r0
  uint32_t tickstart = HAL_GetTick();
 8001120:	f7ff f8c6 	bl	80002b0 <HAL_GetTick>
  while(__HAL_FLASH_GET_FLAG(FLASH_FLAG_BSY)) 
 8001124:	2501      	movs	r5, #1
  uint32_t tickstart = HAL_GetTick();
 8001126:	0006      	movs	r6, r0
  while(__HAL_FLASH_GET_FLAG(FLASH_FLAG_BSY)) 
 8001128:	4b10      	ldr	r3, [pc, #64]	; (800116c <FLASH_WaitForLastOperation+0x50>)
 800112a:	001a      	movs	r2, r3
 800112c:	68d9      	ldr	r1, [r3, #12]
 800112e:	4229      	tst	r1, r5
 8001130:	d10f      	bne.n	8001152 <FLASH_WaitForLastOperation+0x36>
  if (__HAL_FLASH_GET_FLAG(FLASH_FLAG_EOP))
 8001132:	2120      	movs	r1, #32
 8001134:	68d8      	ldr	r0, [r3, #12]
 8001136:	4208      	tst	r0, r1
 8001138:	d000      	beq.n	800113c <FLASH_WaitForLastOperation+0x20>
    __HAL_FLASH_CLEAR_FLAG(FLASH_FLAG_EOP);
 800113a:	60d9      	str	r1, [r3, #12]
  if(__HAL_FLASH_GET_FLAG(FLASH_FLAG_WRPERR)  || 
 800113c:	2310      	movs	r3, #16
 800113e:	68d0      	ldr	r0, [r2, #12]
 8001140:	4018      	ands	r0, r3
 8001142:	d102      	bne.n	800114a <FLASH_WaitForLastOperation+0x2e>
     __HAL_FLASH_GET_FLAG(FLASH_FLAG_PGERR))
 8001144:	68d3      	ldr	r3, [r2, #12]
  if(__HAL_FLASH_GET_FLAG(FLASH_FLAG_WRPERR)  || 
 8001146:	075b      	lsls	r3, r3, #29
 8001148:	d508      	bpl.n	800115c <FLASH_WaitForLastOperation+0x40>
    FLASH_SetErrorCode();
 800114a:	f7ff ff8d 	bl	8001068 <FLASH_SetErrorCode>
    return HAL_ERROR;
 800114e:	2001      	movs	r0, #1
 8001150:	e004      	b.n	800115c <FLASH_WaitForLastOperation+0x40>
    if (Timeout != HAL_MAX_DELAY)
 8001152:	1c61      	adds	r1, r4, #1
 8001154:	d0ea      	beq.n	800112c <FLASH_WaitForLastOperation+0x10>
      if((Timeout == 0U) || ((HAL_GetTick()-tickstart) > Timeout))
 8001156:	2c00      	cmp	r4, #0
 8001158:	d101      	bne.n	800115e <FLASH_WaitForLastOperation+0x42>
        return HAL_TIMEOUT;
 800115a:	2003      	movs	r0, #3
}
 800115c:	bd70      	pop	{r4, r5, r6, pc}
      if((Timeout == 0U) || ((HAL_GetTick()-tickstart) > Timeout))
 800115e:	f7ff f8a7 	bl	80002b0 <HAL_GetTick>
 8001162:	1b80      	subs	r0, r0, r6
 8001164:	4284      	cmp	r4, r0
 8001166:	d2df      	bcs.n	8001128 <FLASH_WaitForLastOperation+0xc>
 8001168:	e7f7      	b.n	800115a <FLASH_WaitForLastOperation+0x3e>
 800116a:	46c0      	nop			; (mov r8, r8)
 800116c:	40022000 	.word	0x40022000

08001170 <HAL_FLASH_OB_Launch>:
  SET_BIT(FLASH->CR, FLASH_CR_OBL_LAUNCH);
 8001170:	2380      	movs	r3, #128	; 0x80
 8001172:	4a05      	ldr	r2, [pc, #20]	; (8001188 <HAL_FLASH_OB_Launch+0x18>)
{
 8001174:	b510      	push	{r4, lr}
  SET_BIT(FLASH->CR, FLASH_CR_OBL_LAUNCH);
 8001176:	6911      	ldr	r1, [r2, #16]
 8001178:	019b      	lsls	r3, r3, #6
 800117a:	430b      	orrs	r3, r1
 800117c:	6113      	str	r3, [r2, #16]
  return(FLASH_WaitForLastOperation(FLASH_TIMEOUT_VALUE));
 800117e:	4803      	ldr	r0, [pc, #12]	; (800118c <HAL_FLASH_OB_Launch+0x1c>)
 8001180:	f7ff ffcc 	bl	800111c <FLASH_WaitForLastOperation>
}
 8001184:	bd10      	pop	{r4, pc}
 8001186:	46c0      	nop			; (mov r8, r8)
 8001188:	40022000 	.word	0x40022000
 800118c:	0000c350 	.word	0x0000c350

08001190 <FLASH_OB_RDP_LevelConfig>:
  *            @arg @ref OB_RDP_LEVEL_2 Full chip protection
  * @note   Warning: When enabling OB_RDP level 2 it's no more possible to go back to level 1 or 0
  * @retval HAL status
  */
static HAL_StatusTypeDef FLASH_OB_RDP_LevelConfig(uint8_t ReadProtectLevel)
{
 8001190:	b570      	push	{r4, r5, r6, lr}
 8001192:	0006      	movs	r6, r0
  
  /* Check the parameters */
  assert_param(IS_OB_RDP_LEVEL(ReadProtectLevel));
  
  /* Wait for last operation to be completed */
  status = FLASH_WaitForLastOperation((uint32_t)FLASH_TIMEOUT_VALUE);
 8001194:	4812      	ldr	r0, [pc, #72]	; (80011e0 <FLASH_OB_RDP_LevelConfig+0x50>)
 8001196:	f7ff ffc1 	bl	800111c <FLASH_WaitForLastOperation>
  
  if(status == HAL_OK)
 800119a:	2800      	cmp	r0, #0
 800119c:	d11f      	bne.n	80011de <FLASH_OB_RDP_LevelConfig+0x4e>
  { 
    /* Clean the error context */
    pFlash.ErrorCode = HAL_FLASH_ERROR_NONE;
    
    /* If the previous operation is completed, proceed to erase the option bytes */
    SET_BIT(FLASH->CR, FLASH_CR_OPTER);
 800119e:	2520      	movs	r5, #32
    pFlash.ErrorCode = HAL_FLASH_ERROR_NONE;
 80011a0:	4b10      	ldr	r3, [pc, #64]	; (80011e4 <FLASH_OB_RDP_LevelConfig+0x54>)
    SET_BIT(FLASH->CR, FLASH_CR_OPTER);
 80011a2:	4c11      	ldr	r4, [pc, #68]	; (80011e8 <FLASH_OB_RDP_LevelConfig+0x58>)
    pFlash.ErrorCode = HAL_FLASH_ERROR_NONE;
 80011a4:	61d8      	str	r0, [r3, #28]
    SET_BIT(FLASH->CR, FLASH_CR_OPTER);
 80011a6:	6923      	ldr	r3, [r4, #16]
    SET_BIT(FLASH->CR, FLASH_CR_STRT);

    /* Wait for last operation to be completed */
    status = FLASH_WaitForLastOperation((uint32_t)FLASH_TIMEOUT_VALUE);
 80011a8:	480d      	ldr	r0, [pc, #52]	; (80011e0 <FLASH_OB_RDP_LevelConfig+0x50>)
    SET_BIT(FLASH->CR, FLASH_CR_OPTER);
 80011aa:	432b      	orrs	r3, r5
 80011ac:	6123      	str	r3, [r4, #16]
    SET_BIT(FLASH->CR, FLASH_CR_STRT);
 80011ae:	2340      	movs	r3, #64	; 0x40
 80011b0:	6922      	ldr	r2, [r4, #16]
 80011b2:	4313      	orrs	r3, r2
 80011b4:	6123      	str	r3, [r4, #16]
    status = FLASH_WaitForLastOperation((uint32_t)FLASH_TIMEOUT_VALUE);
 80011b6:	f7ff ffb1 	bl	800111c <FLASH_WaitForLastOperation>

    /* If the erase operation is completed, disable the OPTER Bit */
    CLEAR_BIT(FLASH->CR, FLASH_CR_OPTER);
 80011ba:	6923      	ldr	r3, [r4, #16]
 80011bc:	43ab      	bics	r3, r5
 80011be:	6123      	str	r3, [r4, #16]

    if(status == HAL_OK)
 80011c0:	2800      	cmp	r0, #0
 80011c2:	d10c      	bne.n	80011de <FLASH_OB_RDP_LevelConfig+0x4e>
    {
      /* Enable the Option Bytes Programming operation */
      SET_BIT(FLASH->CR, FLASH_CR_OPTPG);
 80011c4:	6923      	ldr	r3, [r4, #16]
 80011c6:	3d10      	subs	r5, #16
 80011c8:	432b      	orrs	r3, r5
 80011ca:	6123      	str	r3, [r4, #16]
      
      WRITE_REG(OB->RDP, ReadProtectLevel);
 80011cc:	4b07      	ldr	r3, [pc, #28]	; (80011ec <FLASH_OB_RDP_LevelConfig+0x5c>)
 80011ce:	b2b6      	uxth	r6, r6
 80011d0:	801e      	strh	r6, [r3, #0]
      
      /* Wait for last operation to be completed */
      status = FLASH_WaitForLastOperation((uint32_t)FLASH_TIMEOUT_VALUE); 
 80011d2:	4803      	ldr	r0, [pc, #12]	; (80011e0 <FLASH_OB_RDP_LevelConfig+0x50>)
 80011d4:	f7ff ffa2 	bl	800111c <FLASH_WaitForLastOperation>
      
      /* if the program operation is completed, disable the OPTPG Bit */
      CLEAR_BIT(FLASH->CR, FLASH_CR_OPTPG);
 80011d8:	6923      	ldr	r3, [r4, #16]
 80011da:	43ab      	bics	r3, r5
 80011dc:	6123      	str	r3, [r4, #16]
    }
  }
  
  return status;
}
 80011de:	bd70      	pop	{r4, r5, r6, pc}
 80011e0:	0000c350 	.word	0x0000c350
 80011e4:	200004f8 	.word	0x200004f8
 80011e8:	40022000 	.word	0x40022000
 80011ec:	1ffff800 	.word	0x1ffff800

080011f0 <HAL_FLASHEx_OBErase>:
static uint32_t FLASH_OB_GetRDP(void)
{
  uint32_t tmp_reg = 0U;
  
  /* Read RDP level bits */
  tmp_reg = READ_BIT(FLASH->OBR, (FLASH_OBR_RDPRT1 | FLASH_OBR_RDPRT2));
 80011f0:	2206      	movs	r2, #6
{
 80011f2:	b570      	push	{r4, r5, r6, lr}
  tmp_reg = READ_BIT(FLASH->OBR, (FLASH_OBR_RDPRT1 | FLASH_OBR_RDPRT2));
 80011f4:	4c12      	ldr	r4, [pc, #72]	; (8001240 <HAL_FLASHEx_OBErase+0x50>)

  if (tmp_reg == FLASH_OBR_RDPRT1)
  {
    return OB_RDP_LEVEL_1;
 80011f6:	25bb      	movs	r5, #187	; 0xbb
  tmp_reg = READ_BIT(FLASH->OBR, (FLASH_OBR_RDPRT1 | FLASH_OBR_RDPRT2));
 80011f8:	69e3      	ldr	r3, [r4, #28]
 80011fa:	4013      	ands	r3, r2
  if (tmp_reg == FLASH_OBR_RDPRT1)
 80011fc:	2b02      	cmp	r3, #2
 80011fe:	d003      	beq.n	8001208 <HAL_FLASHEx_OBErase+0x18>
  }
  else if (tmp_reg == FLASH_OBR_RDPRT2)
  {
    return OB_RDP_LEVEL_2;
 8001200:	3511      	adds	r5, #17
  else if (tmp_reg == FLASH_OBR_RDPRT2)
 8001202:	2b04      	cmp	r3, #4
 8001204:	d000      	beq.n	8001208 <HAL_FLASHEx_OBErase+0x18>
  }
  else 
  {
    return OB_RDP_LEVEL_0;
 8001206:	3d22      	subs	r5, #34	; 0x22
  status = FLASH_WaitForLastOperation((uint32_t)FLASH_TIMEOUT_VALUE);
 8001208:	480e      	ldr	r0, [pc, #56]	; (8001244 <HAL_FLASHEx_OBErase+0x54>)
 800120a:	f7ff ff87 	bl	800111c <FLASH_WaitForLastOperation>
  if(status == HAL_OK)
 800120e:	2800      	cmp	r0, #0
 8001210:	d114      	bne.n	800123c <HAL_FLASHEx_OBErase+0x4c>
    SET_BIT(FLASH->CR, FLASH_CR_OPTER);
 8001212:	2620      	movs	r6, #32
    pFlash.ErrorCode = HAL_FLASH_ERROR_NONE;
 8001214:	4b0c      	ldr	r3, [pc, #48]	; (8001248 <HAL_FLASHEx_OBErase+0x58>)
 8001216:	61d8      	str	r0, [r3, #28]
    SET_BIT(FLASH->CR, FLASH_CR_OPTER);
 8001218:	6923      	ldr	r3, [r4, #16]
    status = FLASH_WaitForLastOperation((uint32_t)FLASH_TIMEOUT_VALUE);
 800121a:	480a      	ldr	r0, [pc, #40]	; (8001244 <HAL_FLASHEx_OBErase+0x54>)
    SET_BIT(FLASH->CR, FLASH_CR_OPTER);
 800121c:	4333      	orrs	r3, r6
 800121e:	6123      	str	r3, [r4, #16]
    SET_BIT(FLASH->CR, FLASH_CR_STRT);
 8001220:	2340      	movs	r3, #64	; 0x40
 8001222:	6922      	ldr	r2, [r4, #16]
 8001224:	4313      	orrs	r3, r2
 8001226:	6123      	str	r3, [r4, #16]
    status = FLASH_WaitForLastOperation((uint32_t)FLASH_TIMEOUT_VALUE);
 8001228:	f7ff ff78 	bl	800111c <FLASH_WaitForLastOperation>
    CLEAR_BIT(FLASH->CR, FLASH_CR_OPTER);
 800122c:	6923      	ldr	r3, [r4, #16]
 800122e:	43b3      	bics	r3, r6
 8001230:	6123      	str	r3, [r4, #16]
    if(status == HAL_OK)
 8001232:	2800      	cmp	r0, #0
 8001234:	d102      	bne.n	800123c <HAL_FLASHEx_OBErase+0x4c>
      status = FLASH_OB_RDP_LevelConfig(rdptmp);
 8001236:	b2e8      	uxtb	r0, r5
 8001238:	f7ff ffaa 	bl	8001190 <FLASH_OB_RDP_LevelConfig>
}
 800123c:	bd70      	pop	{r4, r5, r6, pc}
 800123e:	46c0      	nop			; (mov r8, r8)
 8001240:	40022000 	.word	0x40022000
 8001244:	0000c350 	.word	0x0000c350
 8001248:	200004f8 	.word	0x200004f8

0800124c <HAL_FLASHEx_OBProgram>:
{
 800124c:	b5f7      	push	{r0, r1, r2, r4, r5, r6, r7, lr}
  __HAL_LOCK(&pFlash);
 800124e:	4c46      	ldr	r4, [pc, #280]	; (8001368 <HAL_FLASHEx_OBProgram+0x11c>)
{
 8001250:	0005      	movs	r5, r0
  __HAL_LOCK(&pFlash);
 8001252:	7e23      	ldrb	r3, [r4, #24]
 8001254:	2002      	movs	r0, #2
 8001256:	2b01      	cmp	r3, #1
 8001258:	d02d      	beq.n	80012b6 <HAL_FLASHEx_OBProgram+0x6a>
  if((pOBInit->OptionType & OPTIONBYTE_WRP) == OPTIONBYTE_WRP)
 800125a:	682b      	ldr	r3, [r5, #0]
  __HAL_LOCK(&pFlash);
 800125c:	3801      	subs	r0, #1
 800125e:	7620      	strb	r0, [r4, #24]
  if((pOBInit->OptionType & OPTIONBYTE_WRP) == OPTIONBYTE_WRP)
 8001260:	4203      	tst	r3, r0
 8001262:	d041      	beq.n	80012e8 <HAL_FLASHEx_OBProgram+0x9c>
 8001264:	68ab      	ldr	r3, [r5, #8]
 8001266:	4e41      	ldr	r6, [pc, #260]	; (800136c <HAL_FLASHEx_OBProgram+0x120>)
 8001268:	9301      	str	r3, [sp, #4]
    if (pOBInit->WRPState == OB_WRPSTATE_ENABLE)
 800126a:	686b      	ldr	r3, [r5, #4]
  return (uint32_t)(READ_REG(FLASH->WRPR));
 800126c:	6a37      	ldr	r7, [r6, #32]
    if (pOBInit->WRPState == OB_WRPSTATE_ENABLE)
 800126e:	4283      	cmp	r3, r0
 8001270:	d122      	bne.n	80012b8 <HAL_FLASHEx_OBProgram+0x6c>
  status = FLASH_WaitForLastOperation((uint32_t)FLASH_TIMEOUT_VALUE);
 8001272:	483f      	ldr	r0, [pc, #252]	; (8001370 <HAL_FLASHEx_OBProgram+0x124>)
 8001274:	f7ff ff52 	bl	800111c <FLASH_WaitForLastOperation>
  if(status == HAL_OK)
 8001278:	2800      	cmp	r0, #0
 800127a:	d11a      	bne.n	80012b2 <HAL_FLASHEx_OBProgram+0x66>
    pFlash.ErrorCode = HAL_FLASH_ERROR_NONE;
 800127c:	61e0      	str	r0, [r4, #28]
    status = HAL_FLASHEx_OBErase();
 800127e:	f7ff ffb7 	bl	80011f0 <HAL_FLASHEx_OBErase>
    if (status == HAL_OK)  
 8001282:	2800      	cmp	r0, #0
 8001284:	d115      	bne.n	80012b2 <HAL_FLASHEx_OBProgram+0x66>
  WriteProtectPage = (uint32_t)(~((~FLASH_OB_GetWRP()) | WriteProtectPage));
 8001286:	9b01      	ldr	r3, [sp, #4]
      SET_BIT(FLASH->CR, FLASH_CR_OPTPG);
 8001288:	6932      	ldr	r2, [r6, #16]
  WriteProtectPage = (uint32_t)(~((~FLASH_OB_GetWRP()) | WriteProtectPage));
 800128a:	439f      	bics	r7, r3
      SET_BIT(FLASH->CR, FLASH_CR_OPTPG);
 800128c:	2310      	movs	r3, #16
  WRP0_Data = (uint16_t)(WriteProtectPage & OB_WRP_PAGES0TO31MASK);
 800128e:	b2ff      	uxtb	r7, r7
      SET_BIT(FLASH->CR, FLASH_CR_OPTPG);
 8001290:	4313      	orrs	r3, r2
 8001292:	6133      	str	r3, [r6, #16]
      if(WRP0_Data != 0xFFU)
 8001294:	2fff      	cmp	r7, #255	; 0xff
 8001296:	d006      	beq.n	80012a6 <HAL_FLASHEx_OBProgram+0x5a>
        OB->WRP0 &= WRP0_Data;
 8001298:	4a36      	ldr	r2, [pc, #216]	; (8001374 <HAL_FLASHEx_OBProgram+0x128>)
 800129a:	8913      	ldrh	r3, [r2, #8]
 800129c:	401f      	ands	r7, r3
 800129e:	8117      	strh	r7, [r2, #8]
        status = FLASH_WaitForLastOperation((uint32_t)FLASH_TIMEOUT_VALUE);
 80012a0:	4833      	ldr	r0, [pc, #204]	; (8001370 <HAL_FLASHEx_OBProgram+0x124>)
 80012a2:	f7ff ff3b 	bl	800111c <FLASH_WaitForLastOperation>
      CLEAR_BIT(FLASH->CR, FLASH_CR_OPTPG);
 80012a6:	2210      	movs	r2, #16
 80012a8:	6933      	ldr	r3, [r6, #16]
 80012aa:	4393      	bics	r3, r2
 80012ac:	6133      	str	r3, [r6, #16]
    if (status != HAL_OK)
 80012ae:	2800      	cmp	r0, #0
 80012b0:	d01a      	beq.n	80012e8 <HAL_FLASHEx_OBProgram+0x9c>
  __HAL_UNLOCK(&pFlash);
 80012b2:	2300      	movs	r3, #0
 80012b4:	7623      	strb	r3, [r4, #24]
}
 80012b6:	bdfe      	pop	{r1, r2, r3, r4, r5, r6, r7, pc}
  status = FLASH_WaitForLastOperation((uint32_t)FLASH_TIMEOUT_VALUE);
 80012b8:	482d      	ldr	r0, [pc, #180]	; (8001370 <HAL_FLASHEx_OBProgram+0x124>)
 80012ba:	f7ff ff2f 	bl	800111c <FLASH_WaitForLastOperation>
  if(status == HAL_OK)
 80012be:	2800      	cmp	r0, #0
 80012c0:	d1f7      	bne.n	80012b2 <HAL_FLASHEx_OBProgram+0x66>
    pFlash.ErrorCode = HAL_FLASH_ERROR_NONE;
 80012c2:	61e0      	str	r0, [r4, #28]
    status = HAL_FLASHEx_OBErase();
 80012c4:	f7ff ff94 	bl	80011f0 <HAL_FLASHEx_OBErase>
    if (status == HAL_OK)  
 80012c8:	2800      	cmp	r0, #0
 80012ca:	d1f2      	bne.n	80012b2 <HAL_FLASHEx_OBProgram+0x66>
  WriteProtectPage = (FLASH_OB_GetWRP() | WriteProtectPage);
 80012cc:	9b01      	ldr	r3, [sp, #4]
      SET_BIT(FLASH->CR, FLASH_CR_OPTPG);
 80012ce:	6932      	ldr	r2, [r6, #16]
  WriteProtectPage = (FLASH_OB_GetWRP() | WriteProtectPage);
 80012d0:	433b      	orrs	r3, r7
  WRP0_Data = (uint16_t)(WriteProtectPage & OB_WRP_PAGES0TO31MASK);
 80012d2:	b2df      	uxtb	r7, r3
      SET_BIT(FLASH->CR, FLASH_CR_OPTPG);
 80012d4:	2310      	movs	r3, #16
 80012d6:	4313      	orrs	r3, r2
 80012d8:	6133      	str	r3, [r6, #16]
      if(WRP0_Data != 0xFFU)
 80012da:	2fff      	cmp	r7, #255	; 0xff
 80012dc:	d0e3      	beq.n	80012a6 <HAL_FLASHEx_OBProgram+0x5a>
        OB->WRP0 |= WRP0_Data;
 80012de:	4b25      	ldr	r3, [pc, #148]	; (8001374 <HAL_FLASHEx_OBProgram+0x128>)
 80012e0:	891a      	ldrh	r2, [r3, #8]
 80012e2:	4317      	orrs	r7, r2
 80012e4:	811f      	strh	r7, [r3, #8]
 80012e6:	e7db      	b.n	80012a0 <HAL_FLASHEx_OBProgram+0x54>
  if((pOBInit->OptionType & OPTIONBYTE_RDP) == OPTIONBYTE_RDP)
 80012e8:	682b      	ldr	r3, [r5, #0]
 80012ea:	079b      	lsls	r3, r3, #30
 80012ec:	d504      	bpl.n	80012f8 <HAL_FLASHEx_OBProgram+0xac>
    status = FLASH_OB_RDP_LevelConfig(pOBInit->RDPLevel);
 80012ee:	7b28      	ldrb	r0, [r5, #12]
 80012f0:	f7ff ff4e 	bl	8001190 <FLASH_OB_RDP_LevelConfig>
    if (status != HAL_OK)
 80012f4:	2800      	cmp	r0, #0
 80012f6:	d1dc      	bne.n	80012b2 <HAL_FLASHEx_OBProgram+0x66>
  if((pOBInit->OptionType & OPTIONBYTE_USER) == OPTIONBYTE_USER)
 80012f8:	682b      	ldr	r3, [r5, #0]
 80012fa:	075b      	lsls	r3, r3, #29
 80012fc:	d518      	bpl.n	8001330 <HAL_FLASHEx_OBProgram+0xe4>
    status = FLASH_OB_UserConfig(pOBInit->USERConfig);
 80012fe:	7b6b      	ldrb	r3, [r5, #13]
  status = FLASH_WaitForLastOperation((uint32_t)FLASH_TIMEOUT_VALUE);
 8001300:	481b      	ldr	r0, [pc, #108]	; (8001370 <HAL_FLASHEx_OBProgram+0x124>)
    status = FLASH_OB_UserConfig(pOBInit->USERConfig);
 8001302:	9301      	str	r3, [sp, #4]
  status = FLASH_WaitForLastOperation((uint32_t)FLASH_TIMEOUT_VALUE);
 8001304:	f7ff ff0a 	bl	800111c <FLASH_WaitForLastOperation>
  if(status == HAL_OK)
 8001308:	2800      	cmp	r0, #0
 800130a:	d1d2      	bne.n	80012b2 <HAL_FLASHEx_OBProgram+0x66>
    SET_BIT(FLASH->CR, FLASH_CR_OPTPG); 
 800130c:	2710      	movs	r7, #16
 800130e:	4e17      	ldr	r6, [pc, #92]	; (800136c <HAL_FLASHEx_OBProgram+0x120>)
    pFlash.ErrorCode = HAL_FLASH_ERROR_NONE;
 8001310:	61e0      	str	r0, [r4, #28]
    SET_BIT(FLASH->CR, FLASH_CR_OPTPG); 
 8001312:	6933      	ldr	r3, [r6, #16]
    OB->USER = UserConfig;
 8001314:	4a17      	ldr	r2, [pc, #92]	; (8001374 <HAL_FLASHEx_OBProgram+0x128>)
    SET_BIT(FLASH->CR, FLASH_CR_OPTPG); 
 8001316:	433b      	orrs	r3, r7
 8001318:	6133      	str	r3, [r6, #16]
    OB->USER = UserConfig;
 800131a:	466b      	mov	r3, sp
 800131c:	889b      	ldrh	r3, [r3, #4]
    status = FLASH_WaitForLastOperation((uint32_t)FLASH_TIMEOUT_VALUE);
 800131e:	4814      	ldr	r0, [pc, #80]	; (8001370 <HAL_FLASHEx_OBProgram+0x124>)
    OB->USER = UserConfig;
 8001320:	8053      	strh	r3, [r2, #2]
    status = FLASH_WaitForLastOperation((uint32_t)FLASH_TIMEOUT_VALUE);
 8001322:	f7ff fefb 	bl	800111c <FLASH_WaitForLastOperation>
    CLEAR_BIT(FLASH->CR, FLASH_CR_OPTPG);
 8001326:	6933      	ldr	r3, [r6, #16]
 8001328:	43bb      	bics	r3, r7
 800132a:	6133      	str	r3, [r6, #16]
    if (status != HAL_OK)
 800132c:	2800      	cmp	r0, #0
 800132e:	d1c0      	bne.n	80012b2 <HAL_FLASHEx_OBProgram+0x66>
  if((pOBInit->OptionType & OPTIONBYTE_DATA) == OPTIONBYTE_DATA)
 8001330:	682b      	ldr	r3, [r5, #0]
 8001332:	071b      	lsls	r3, r3, #28
 8001334:	d5bd      	bpl.n	80012b2 <HAL_FLASHEx_OBProgram+0x66>
    status = FLASH_OB_ProgramData(pOBInit->DATAAddress, pOBInit->DATAData);
 8001336:	692b      	ldr	r3, [r5, #16]
  status = FLASH_WaitForLastOperation((uint32_t)FLASH_TIMEOUT_VALUE);
 8001338:	480d      	ldr	r0, [pc, #52]	; (8001370 <HAL_FLASHEx_OBProgram+0x124>)
    status = FLASH_OB_ProgramData(pOBInit->DATAAddress, pOBInit->DATAData);
 800133a:	9301      	str	r3, [sp, #4]
 800133c:	7d2e      	ldrb	r6, [r5, #20]
  status = FLASH_WaitForLastOperation((uint32_t)FLASH_TIMEOUT_VALUE);
 800133e:	f7ff feed 	bl	800111c <FLASH_WaitForLastOperation>
  if(status == HAL_OK)
 8001342:	2800      	cmp	r0, #0
 8001344:	d1b5      	bne.n	80012b2 <HAL_FLASHEx_OBProgram+0x66>
    SET_BIT(FLASH->CR, FLASH_CR_OPTPG); 
 8001346:	2710      	movs	r7, #16
 8001348:	4d08      	ldr	r5, [pc, #32]	; (800136c <HAL_FLASHEx_OBProgram+0x120>)
    pFlash.ErrorCode = HAL_FLASH_ERROR_NONE;
 800134a:	61e0      	str	r0, [r4, #28]
    SET_BIT(FLASH->CR, FLASH_CR_OPTPG); 
 800134c:	692b      	ldr	r3, [r5, #16]
    *(__IO uint16_t*)Address = Data;
 800134e:	b2b6      	uxth	r6, r6
    SET_BIT(FLASH->CR, FLASH_CR_OPTPG); 
 8001350:	433b      	orrs	r3, r7
 8001352:	612b      	str	r3, [r5, #16]
    *(__IO uint16_t*)Address = Data;
 8001354:	9b01      	ldr	r3, [sp, #4]
    status = FLASH_WaitForLastOperation((uint32_t)FLASH_TIMEOUT_VALUE);
 8001356:	4806      	ldr	r0, [pc, #24]	; (8001370 <HAL_FLASHEx_OBProgram+0x124>)
    *(__IO uint16_t*)Address = Data;
 8001358:	801e      	strh	r6, [r3, #0]
    status = FLASH_WaitForLastOperation((uint32_t)FLASH_TIMEOUT_VALUE);
 800135a:	f7ff fedf 	bl	800111c <FLASH_WaitForLastOperation>
    CLEAR_BIT(FLASH->CR, FLASH_CR_OPTPG);
 800135e:	692b      	ldr	r3, [r5, #16]
 8001360:	43bb      	bics	r3, r7
 8001362:	612b      	str	r3, [r5, #16]
 8001364:	e7a5      	b.n	80012b2 <HAL_FLASHEx_OBProgram+0x66>
 8001366:	46c0      	nop			; (mov r8, r8)
 8001368:	200004f8 	.word	0x200004f8
 800136c:	40022000 	.word	0x40022000
 8001370:	0000c350 	.word	0x0000c350
 8001374:	1ffff800 	.word	0x1ffff800

08001378 <HAL_FLASHEx_OBGetConfig>:
  pOBInit->OptionType = OPTIONBYTE_WRP | OPTIONBYTE_RDP | OPTIONBYTE_USER;
 8001378:	2307      	movs	r3, #7
  tmp_reg = READ_BIT(FLASH->OBR, (FLASH_OBR_RDPRT1 | FLASH_OBR_RDPRT2));
 800137a:	2106      	movs	r1, #6
  pOBInit->OptionType = OPTIONBYTE_WRP | OPTIONBYTE_RDP | OPTIONBYTE_USER;
 800137c:	6003      	str	r3, [r0, #0]
  return (uint32_t)(READ_REG(FLASH->WRPR));
 800137e:	4b08      	ldr	r3, [pc, #32]	; (80013a0 <HAL_FLASHEx_OBGetConfig+0x28>)
 8001380:	6a1a      	ldr	r2, [r3, #32]
  pOBInit->WRPPage = FLASH_OB_GetWRP();
 8001382:	6082      	str	r2, [r0, #8]
  tmp_reg = READ_BIT(FLASH->OBR, (FLASH_OBR_RDPRT1 | FLASH_OBR_RDPRT2));
 8001384:	69da      	ldr	r2, [r3, #28]
 8001386:	400a      	ands	r2, r1
    return OB_RDP_LEVEL_1;
 8001388:	31b5      	adds	r1, #181	; 0xb5
  if (tmp_reg == FLASH_OBR_RDPRT1)
 800138a:	2a02      	cmp	r2, #2
 800138c:	d003      	beq.n	8001396 <HAL_FLASHEx_OBGetConfig+0x1e>
    return OB_RDP_LEVEL_2;
 800138e:	3111      	adds	r1, #17
  else if (tmp_reg == FLASH_OBR_RDPRT2)
 8001390:	2a04      	cmp	r2, #4
 8001392:	d000      	beq.n	8001396 <HAL_FLASHEx_OBGetConfig+0x1e>
    return OB_RDP_LEVEL_0;
 8001394:	3922      	subs	r1, #34	; 0x22
  pOBInit->RDPLevel = FLASH_OB_GetRDP();
 8001396:	7301      	strb	r1, [r0, #12]
  *         For few devices, following option bytes are available: nBOOT0(Bit3) & BOOT_SEL(Bit7).
  */
static uint8_t FLASH_OB_GetUser(void)
{
  /* Return the User Option Byte */
  return (uint8_t)((READ_REG(FLASH->OBR) & FLASH_OBR_USER) >> FLASH_POSITION_IWDGSW_BIT);
 8001398:	69db      	ldr	r3, [r3, #28]
 800139a:	0a1b      	lsrs	r3, r3, #8
  pOBInit->USERConfig = FLASH_OB_GetUser();
 800139c:	7343      	strb	r3, [r0, #13]
}
 800139e:	4770      	bx	lr
 80013a0:	40022000 	.word	0x40022000

080013a4 <HAL_GPIO_Init>:
  * @param  GPIO_Init pointer to a GPIO_InitTypeDef structure that contains
  *         the configuration information for the specified GPIO peripheral.
  * @retval None
  */
void HAL_GPIO_Init(GPIO_TypeDef  *GPIOx, GPIO_InitTypeDef *GPIO_Init)
{ 
 80013a4:	b5f0      	push	{r4, r5, r6, r7, lr}
 80013a6:	46c6      	mov	lr, r8
 80013a8:	b500      	push	{lr}
 80013aa:	b082      	sub	sp, #8
  uint32_t position = 0x00U;
 80013ac:	2300      	movs	r3, #0
  assert_param(IS_GPIO_PIN(GPIO_Init->Pin));
  assert_param(IS_GPIO_MODE(GPIO_Init->Mode));
  assert_param(IS_GPIO_PULL(GPIO_Init->Pull)); 

  /* Configure the port pins */
  while (((GPIO_Init->Pin) >> position) != RESET)
 80013ae:	e07b      	b.n	80014a8 <HAL_GPIO_Init+0x104>
        /* Check the Alternate function parameters */
        assert_param(IS_GPIO_AF_INSTANCE(GPIOx));
        assert_param(IS_GPIO_AF(GPIO_Init->Alternate));
        
        /* Configure Alternate function mapped with the current IO */ 
        temp = GPIOx->AFR[position >> 3];
 80013b0:	08df      	lsrs	r7, r3, #3
 80013b2:	3708      	adds	r7, #8
 80013b4:	00bf      	lsls	r7, r7, #2
 80013b6:	583e      	ldr	r6, [r7, r0]
        CLEAR_BIT(temp, 0xFU << ((uint32_t)(position & 0x07U) * 4U)) ;      
 80013b8:	2507      	movs	r5, #7
 80013ba:	401d      	ands	r5, r3
 80013bc:	00ad      	lsls	r5, r5, #2
 80013be:	240f      	movs	r4, #15
 80013c0:	40ac      	lsls	r4, r5
 80013c2:	43a6      	bics	r6, r4
        SET_BIT(temp, (uint32_t)(GPIO_Init->Alternate) << (((uint32_t)position & 0x07U) * 4U));       
 80013c4:	690c      	ldr	r4, [r1, #16]
 80013c6:	40ac      	lsls	r4, r5
 80013c8:	0025      	movs	r5, r4
 80013ca:	4335      	orrs	r5, r6
        GPIOx->AFR[position >> 3U] = temp;
 80013cc:	503d      	str	r5, [r7, r0]
 80013ce:	e07b      	b.n	80014c8 <HAL_GPIO_Init+0x124>
          (GPIO_Init->Mode == GPIO_MODE_OUTPUT_OD) || (GPIO_Init->Mode == GPIO_MODE_AF_OD))
      {
        /* Check the Speed parameter */
        assert_param(IS_GPIO_SPEED(GPIO_Init->Speed));
        /* Configure the IO Speed */
        temp = GPIOx->OSPEEDR; 
 80013d0:	6885      	ldr	r5, [r0, #8]
        CLEAR_BIT(temp, GPIO_OSPEEDER_OSPEEDR0 << (position * 2U));
 80013d2:	4664      	mov	r4, ip
 80013d4:	4025      	ands	r5, r4
        SET_BIT(temp, GPIO_Init->Speed << (position * 2U));
 80013d6:	68ce      	ldr	r6, [r1, #12]
 80013d8:	40be      	lsls	r6, r7
 80013da:	4335      	orrs	r5, r6
        GPIOx->OSPEEDR = temp;
 80013dc:	6085      	str	r5, [r0, #8]

        /* Configure the IO Output Type */
        temp = GPIOx->OTYPER;
 80013de:	6845      	ldr	r5, [r0, #4]
        CLEAR_BIT(temp, GPIO_OTYPER_OT_0 << position) ;
 80013e0:	002c      	movs	r4, r5
 80013e2:	4645      	mov	r5, r8
 80013e4:	43ac      	bics	r4, r5
        SET_BIT(temp, ((GPIO_Init->Mode & GPIO_OUTPUT_TYPE) >> 4U) << position);
 80013e6:	684d      	ldr	r5, [r1, #4]
 80013e8:	092e      	lsrs	r6, r5, #4
 80013ea:	2501      	movs	r5, #1
 80013ec:	4035      	ands	r5, r6
 80013ee:	409d      	lsls	r5, r3
 80013f0:	432c      	orrs	r4, r5
        GPIOx->OTYPER = temp;
 80013f2:	6044      	str	r4, [r0, #4]
      }

      /* Activate the Pull-up or Pull down resistor for the current IO */
      temp = GPIOx->PUPDR;
 80013f4:	68c4      	ldr	r4, [r0, #12]
      CLEAR_BIT(temp, GPIO_PUPDR_PUPDR0 << (position * 2U));
 80013f6:	4665      	mov	r5, ip
 80013f8:	402c      	ands	r4, r5
      SET_BIT(temp, (GPIO_Init->Pull) << (position * 2U));
 80013fa:	688d      	ldr	r5, [r1, #8]
 80013fc:	40bd      	lsls	r5, r7
 80013fe:	432c      	orrs	r4, r5
      GPIOx->PUPDR = temp;
 8001400:	60c4      	str	r4, [r0, #12]

      /*--------------------- EXTI Mode Configuration ------------------------*/
      /* Configure the External Interrupt or event for the current IO */
      if((GPIO_Init->Mode & EXTI_MODE) == EXTI_MODE) 
 8001402:	684c      	ldr	r4, [r1, #4]
 8001404:	00e4      	lsls	r4, r4, #3
 8001406:	d54e      	bpl.n	80014a6 <HAL_GPIO_Init+0x102>
      {
        /* Enable SYSCFG Clock */
        __HAL_RCC_SYSCFG_CLK_ENABLE();
 8001408:	4d41      	ldr	r5, [pc, #260]	; (8001510 <HAL_GPIO_Init+0x16c>)
 800140a:	69ae      	ldr	r6, [r5, #24]
 800140c:	2401      	movs	r4, #1
 800140e:	4326      	orrs	r6, r4
 8001410:	61ae      	str	r6, [r5, #24]
 8001412:	69ad      	ldr	r5, [r5, #24]
 8001414:	402c      	ands	r4, r5
 8001416:	9401      	str	r4, [sp, #4]
 8001418:	9c01      	ldr	r4, [sp, #4]
  
        temp = SYSCFG->EXTICR[position >> 2];
 800141a:	089c      	lsrs	r4, r3, #2
 800141c:	1ca5      	adds	r5, r4, #2
 800141e:	00ad      	lsls	r5, r5, #2
 8001420:	4e3c      	ldr	r6, [pc, #240]	; (8001514 <HAL_GPIO_Init+0x170>)
 8001422:	59ae      	ldr	r6, [r5, r6]
        CLEAR_BIT(temp, (0x0FU) << (4U * (position & 0x03U)));
 8001424:	2503      	movs	r5, #3
 8001426:	401d      	ands	r5, r3
 8001428:	00ad      	lsls	r5, r5, #2
 800142a:	270f      	movs	r7, #15
 800142c:	40af      	lsls	r7, r5
 800142e:	43be      	bics	r6, r7
        SET_BIT(temp, (GPIO_GET_INDEX(GPIOx)) << (4U * (position & 0x03U)));
 8001430:	2790      	movs	r7, #144	; 0x90
 8001432:	05ff      	lsls	r7, r7, #23
 8001434:	42b8      	cmp	r0, r7
 8001436:	d062      	beq.n	80014fe <HAL_GPIO_Init+0x15a>
 8001438:	4f37      	ldr	r7, [pc, #220]	; (8001518 <HAL_GPIO_Init+0x174>)
 800143a:	42b8      	cmp	r0, r7
 800143c:	d061      	beq.n	8001502 <HAL_GPIO_Init+0x15e>
 800143e:	4f37      	ldr	r7, [pc, #220]	; (800151c <HAL_GPIO_Init+0x178>)
 8001440:	42b8      	cmp	r0, r7
 8001442:	d05a      	beq.n	80014fa <HAL_GPIO_Init+0x156>
 8001444:	2705      	movs	r7, #5
 8001446:	40af      	lsls	r7, r5
 8001448:	003d      	movs	r5, r7
 800144a:	4335      	orrs	r5, r6
        SYSCFG->EXTICR[position >> 2] = temp;
 800144c:	3402      	adds	r4, #2
 800144e:	00a4      	lsls	r4, r4, #2
 8001450:	4e30      	ldr	r6, [pc, #192]	; (8001514 <HAL_GPIO_Init+0x170>)
 8001452:	51a5      	str	r5, [r4, r6]
                  
        /* Clear EXTI line configuration */
        temp = EXTI->IMR;
 8001454:	4c32      	ldr	r4, [pc, #200]	; (8001520 <HAL_GPIO_Init+0x17c>)
 8001456:	6825      	ldr	r5, [r4, #0]
        CLEAR_BIT(temp, (uint32_t)iocurrent);
 8001458:	43d4      	mvns	r4, r2
 800145a:	0026      	movs	r6, r4
 800145c:	402e      	ands	r6, r5
        if((GPIO_Init->Mode & GPIO_MODE_IT) == GPIO_MODE_IT)
 800145e:	684f      	ldr	r7, [r1, #4]
 8001460:	03ff      	lsls	r7, r7, #15
 8001462:	d501      	bpl.n	8001468 <HAL_GPIO_Init+0xc4>
        {
          SET_BIT(temp, iocurrent); 
 8001464:	4315      	orrs	r5, r2
 8001466:	002e      	movs	r6, r5
        }
        EXTI->IMR = temp;
 8001468:	4d2d      	ldr	r5, [pc, #180]	; (8001520 <HAL_GPIO_Init+0x17c>)
 800146a:	602e      	str	r6, [r5, #0]

        temp = EXTI->EMR;
 800146c:	686d      	ldr	r5, [r5, #4]
        CLEAR_BIT(temp, (uint32_t)iocurrent);      
 800146e:	002e      	movs	r6, r5
 8001470:	4026      	ands	r6, r4
        if((GPIO_Init->Mode & GPIO_MODE_EVT) == GPIO_MODE_EVT)
 8001472:	684f      	ldr	r7, [r1, #4]
 8001474:	03bf      	lsls	r7, r7, #14
 8001476:	d501      	bpl.n	800147c <HAL_GPIO_Init+0xd8>
        { 
          SET_BIT(temp, iocurrent); 
 8001478:	4315      	orrs	r5, r2
 800147a:	002e      	movs	r6, r5
        }
        EXTI->EMR = temp;
 800147c:	4d28      	ldr	r5, [pc, #160]	; (8001520 <HAL_GPIO_Init+0x17c>)
 800147e:	606e      	str	r6, [r5, #4]
  
        /* Clear Rising Falling edge configuration */
        temp = EXTI->RTSR;
 8001480:	68ad      	ldr	r5, [r5, #8]
        CLEAR_BIT(temp, (uint32_t)iocurrent); 
 8001482:	002e      	movs	r6, r5
 8001484:	4026      	ands	r6, r4
        if((GPIO_Init->Mode & RISING_EDGE) == RISING_EDGE)
 8001486:	684f      	ldr	r7, [r1, #4]
 8001488:	02ff      	lsls	r7, r7, #11
 800148a:	d501      	bpl.n	8001490 <HAL_GPIO_Init+0xec>
        {
          SET_BIT(temp, iocurrent); 
 800148c:	4315      	orrs	r5, r2
 800148e:	002e      	movs	r6, r5
        }
        EXTI->RTSR = temp;
 8001490:	4d23      	ldr	r5, [pc, #140]	; (8001520 <HAL_GPIO_Init+0x17c>)
 8001492:	60ae      	str	r6, [r5, #8]

        temp = EXTI->FTSR;
 8001494:	68ed      	ldr	r5, [r5, #12]
        CLEAR_BIT(temp, (uint32_t)iocurrent); 
 8001496:	402c      	ands	r4, r5
        if((GPIO_Init->Mode & FALLING_EDGE) == FALLING_EDGE)
 8001498:	684e      	ldr	r6, [r1, #4]
 800149a:	02b6      	lsls	r6, r6, #10
 800149c:	d501      	bpl.n	80014a2 <HAL_GPIO_Init+0xfe>
        {
          SET_BIT(temp, iocurrent); 
 800149e:	432a      	orrs	r2, r5
 80014a0:	0014      	movs	r4, r2
        }
        EXTI->FTSR = temp;
 80014a2:	4a1f      	ldr	r2, [pc, #124]	; (8001520 <HAL_GPIO_Init+0x17c>)
 80014a4:	60d4      	str	r4, [r2, #12]
      }
    }
    
    position++;
 80014a6:	3301      	adds	r3, #1
  while (((GPIO_Init->Pin) >> position) != RESET)
 80014a8:	680a      	ldr	r2, [r1, #0]
 80014aa:	0014      	movs	r4, r2
 80014ac:	40dc      	lsrs	r4, r3
 80014ae:	d02a      	beq.n	8001506 <HAL_GPIO_Init+0x162>
    iocurrent = (GPIO_Init->Pin) & (1U << position);
 80014b0:	2401      	movs	r4, #1
 80014b2:	409c      	lsls	r4, r3
 80014b4:	46a0      	mov	r8, r4
 80014b6:	4022      	ands	r2, r4
    if(iocurrent)
 80014b8:	d0f5      	beq.n	80014a6 <HAL_GPIO_Init+0x102>
      if((GPIO_Init->Mode == GPIO_MODE_AF_PP) || (GPIO_Init->Mode == GPIO_MODE_AF_OD)) 
 80014ba:	684d      	ldr	r5, [r1, #4]
 80014bc:	2d02      	cmp	r5, #2
 80014be:	d100      	bne.n	80014c2 <HAL_GPIO_Init+0x11e>
 80014c0:	e776      	b.n	80013b0 <HAL_GPIO_Init+0xc>
 80014c2:	2d12      	cmp	r5, #18
 80014c4:	d100      	bne.n	80014c8 <HAL_GPIO_Init+0x124>
 80014c6:	e773      	b.n	80013b0 <HAL_GPIO_Init+0xc>
      temp = GPIOx->MODER;
 80014c8:	6806      	ldr	r6, [r0, #0]
      CLEAR_BIT(temp, GPIO_MODER_MODER0 << (position * 2U));   
 80014ca:	005f      	lsls	r7, r3, #1
 80014cc:	2503      	movs	r5, #3
 80014ce:	002c      	movs	r4, r5
 80014d0:	40bc      	lsls	r4, r7
 80014d2:	43e4      	mvns	r4, r4
 80014d4:	46a4      	mov	ip, r4
 80014d6:	4026      	ands	r6, r4
      SET_BIT(temp, (GPIO_Init->Mode & GPIO_MODE) << (position * 2U));
 80014d8:	684c      	ldr	r4, [r1, #4]
 80014da:	4025      	ands	r5, r4
 80014dc:	40bd      	lsls	r5, r7
 80014de:	4335      	orrs	r5, r6
      GPIOx->MODER = temp;
 80014e0:	6005      	str	r5, [r0, #0]
      if ((GPIO_Init->Mode == GPIO_MODE_OUTPUT_PP) || (GPIO_Init->Mode == GPIO_MODE_AF_PP) ||
 80014e2:	684d      	ldr	r5, [r1, #4]
 80014e4:	1e6e      	subs	r6, r5, #1
 80014e6:	2e01      	cmp	r6, #1
 80014e8:	d800      	bhi.n	80014ec <HAL_GPIO_Init+0x148>
 80014ea:	e771      	b.n	80013d0 <HAL_GPIO_Init+0x2c>
 80014ec:	2d11      	cmp	r5, #17
 80014ee:	d100      	bne.n	80014f2 <HAL_GPIO_Init+0x14e>
 80014f0:	e76e      	b.n	80013d0 <HAL_GPIO_Init+0x2c>
          (GPIO_Init->Mode == GPIO_MODE_OUTPUT_OD) || (GPIO_Init->Mode == GPIO_MODE_AF_OD))
 80014f2:	2d12      	cmp	r5, #18
 80014f4:	d000      	beq.n	80014f8 <HAL_GPIO_Init+0x154>
 80014f6:	e77d      	b.n	80013f4 <HAL_GPIO_Init+0x50>
 80014f8:	e76a      	b.n	80013d0 <HAL_GPIO_Init+0x2c>
        SET_BIT(temp, (GPIO_GET_INDEX(GPIOx)) << (4U * (position & 0x03U)));
 80014fa:	2702      	movs	r7, #2
 80014fc:	e7a3      	b.n	8001446 <HAL_GPIO_Init+0xa2>
 80014fe:	2700      	movs	r7, #0
 8001500:	e7a1      	b.n	8001446 <HAL_GPIO_Init+0xa2>
 8001502:	2701      	movs	r7, #1
 8001504:	e79f      	b.n	8001446 <HAL_GPIO_Init+0xa2>
  } 
}
 8001506:	b002      	add	sp, #8
 8001508:	bc04      	pop	{r2}
 800150a:	4690      	mov	r8, r2
 800150c:	bdf0      	pop	{r4, r5, r6, r7, pc}
 800150e:	46c0      	nop			; (mov r8, r8)
 8001510:	40021000 	.word	0x40021000
 8001514:	40010000 	.word	0x40010000
 8001518:	48000400 	.word	0x48000400
 800151c:	48000800 	.word	0x48000800
 8001520:	40010400 	.word	0x40010400

08001524 <HAL_GPIO_WritePin>:
{
  /* Check the parameters */
  assert_param(IS_GPIO_PIN(GPIO_Pin));
  assert_param(IS_GPIO_PIN_ACTION(PinState));

  if (PinState != GPIO_PIN_RESET)
 8001524:	2a00      	cmp	r2, #0
 8001526:	d101      	bne.n	800152c <HAL_GPIO_WritePin+0x8>
  {
    GPIOx->BSRR = (uint32_t)GPIO_Pin;
  }
  else
  {
    GPIOx->BRR = (uint32_t)GPIO_Pin;
 8001528:	6281      	str	r1, [r0, #40]	; 0x28
  }
}
 800152a:	4770      	bx	lr
    GPIOx->BSRR = (uint32_t)GPIO_Pin;
 800152c:	6181      	str	r1, [r0, #24]
 800152e:	e7fc      	b.n	800152a <HAL_GPIO_WritePin+0x6>

08001530 <HAL_GPIO_TogglePin>:
void HAL_GPIO_TogglePin(GPIO_TypeDef* GPIOx, uint16_t GPIO_Pin)
{
  /* Check the parameters */
  assert_param(IS_GPIO_PIN(GPIO_Pin));

  GPIOx->ODR ^= GPIO_Pin;
 8001530:	6943      	ldr	r3, [r0, #20]
 8001532:	4059      	eors	r1, r3
 8001534:	6141      	str	r1, [r0, #20]
}
 8001536:	4770      	bx	lr

08001538 <HAL_PCD_Init>:
  *         parameters in the PCD_InitTypeDef and create the associated handle.
  * @param  hpcd PCD handle
  * @retval HAL status
  */
HAL_StatusTypeDef HAL_PCD_Init(PCD_HandleTypeDef *hpcd)
{ 
 8001538:	b570      	push	{r4, r5, r6, lr}
 800153a:	1e04      	subs	r4, r0, #0
  uint32_t i = 0U;

  uint32_t wInterrupt_Mask = 0U;
  
  /* Check the PCD handle allocation */
  if(hpcd == NULL)
 800153c:	d058      	beq.n	80015f0 <HAL_PCD_Init+0xb8>
  }
  
  /* Check the parameters */
  assert_param(IS_PCD_ALL_INSTANCE(hpcd->Instance));

  if(hpcd->State == HAL_PCD_STATE_RESET)
 800153e:	23ea      	movs	r3, #234	; 0xea
 8001540:	33ff      	adds	r3, #255	; 0xff
 8001542:	5cc3      	ldrb	r3, [r0, r3]
 8001544:	2b00      	cmp	r3, #0
 8001546:	d005      	beq.n	8001554 <HAL_PCD_Init+0x1c>
  
    /* Init the low level hardware : GPIO, CLOCK, NVIC... */
    HAL_PCD_MspInit(hpcd);
  }

  hpcd->State = HAL_PCD_STATE_BUSY;
 8001548:	2203      	movs	r2, #3
 800154a:	23ea      	movs	r3, #234	; 0xea
 800154c:	33ff      	adds	r3, #255	; 0xff
 800154e:	54e2      	strb	r2, [r4, r3]
 
 /* Init endpoints structures */
 for (i = 0U; i < hpcd->Init.dev_endpoints ; i++)
 8001550:	2200      	movs	r2, #0
 8001552:	e018      	b.n	8001586 <HAL_PCD_Init+0x4e>
    hpcd->Lock = HAL_UNLOCKED;
 8001554:	2200      	movs	r2, #0
 8001556:	33e9      	adds	r3, #233	; 0xe9
 8001558:	33ff      	adds	r3, #255	; 0xff
 800155a:	54c2      	strb	r2, [r0, r3]
    HAL_PCD_MspInit(hpcd);
 800155c:	f004 faac 	bl	8005ab8 <HAL_PCD_MspInit>
 8001560:	e7f2      	b.n	8001548 <HAL_PCD_Init+0x10>
 {
   /* Init ep structure */
   hpcd->IN_ep[i].is_in = 1U;
 8001562:	00d1      	lsls	r1, r2, #3
 8001564:	1a89      	subs	r1, r1, r2
 8001566:	008b      	lsls	r3, r1, #2
 8001568:	18e3      	adds	r3, r4, r3
 800156a:	0019      	movs	r1, r3
 800156c:	3129      	adds	r1, #41	; 0x29
 800156e:	2001      	movs	r0, #1
 8001570:	7008      	strb	r0, [r1, #0]
   hpcd->IN_ep[i].num = i;
 8001572:	3901      	subs	r1, #1
 8001574:	700a      	strb	r2, [r1, #0]
   /* Control until ep is actvated */
   hpcd->IN_ep[i].type = PCD_EP_TYPE_CTRL;
 8001576:	0018      	movs	r0, r3
 8001578:	302b      	adds	r0, #43	; 0x2b
 800157a:	2100      	movs	r1, #0
 800157c:	7001      	strb	r1, [r0, #0]
   hpcd->IN_ep[i].maxpacket =  0U;
 800157e:	6359      	str	r1, [r3, #52]	; 0x34
   hpcd->IN_ep[i].xfer_buff = 0U;
 8001580:	6399      	str	r1, [r3, #56]	; 0x38
   hpcd->IN_ep[i].xfer_len = 0U;
 8001582:	63d9      	str	r1, [r3, #60]	; 0x3c
 for (i = 0U; i < hpcd->Init.dev_endpoints ; i++)
 8001584:	3201      	adds	r2, #1
 8001586:	6860      	ldr	r0, [r4, #4]
 8001588:	4282      	cmp	r2, r0
 800158a:	d3ea      	bcc.n	8001562 <HAL_PCD_Init+0x2a>
 800158c:	2200      	movs	r2, #0
 800158e:	e014      	b.n	80015ba <HAL_PCD_Init+0x82>
 }
 
 for (i = 0U; i < hpcd->Init.dev_endpoints ; i++)
 {
   hpcd->OUT_ep[i].is_in = 0U;
 8001590:	00d1      	lsls	r1, r2, #3
 8001592:	1a89      	subs	r1, r1, r2
 8001594:	008b      	lsls	r3, r1, #2
 8001596:	18e3      	adds	r3, r4, r3
 8001598:	001d      	movs	r5, r3
 800159a:	350a      	adds	r5, #10
 800159c:	35ff      	adds	r5, #255	; 0xff
 800159e:	2100      	movs	r1, #0
 80015a0:	7029      	strb	r1, [r5, #0]
   hpcd->OUT_ep[i].num = i;
 80015a2:	3d01      	subs	r5, #1
 80015a4:	702a      	strb	r2, [r5, #0]
   /* Control until ep is activated */
   hpcd->OUT_ep[i].type = PCD_EP_TYPE_CTRL;
 80015a6:	3503      	adds	r5, #3
 80015a8:	7029      	strb	r1, [r5, #0]
   hpcd->OUT_ep[i].maxpacket = 0U;
 80015aa:	3509      	adds	r5, #9
 80015ac:	6029      	str	r1, [r5, #0]
   hpcd->OUT_ep[i].xfer_buff = 0U;
 80015ae:	3504      	adds	r5, #4
 80015b0:	6029      	str	r1, [r5, #0]
   hpcd->OUT_ep[i].xfer_len = 0U;
 80015b2:	331d      	adds	r3, #29
 80015b4:	33ff      	adds	r3, #255	; 0xff
 80015b6:	6019      	str	r1, [r3, #0]
 for (i = 0U; i < hpcd->Init.dev_endpoints ; i++)
 80015b8:	3201      	adds	r2, #1
 80015ba:	4282      	cmp	r2, r0
 80015bc:	d3e8      	bcc.n	8001590 <HAL_PCD_Init+0x58>
 }
  
 /* Init Device */
 /*CNTR_FRES = 1*/
 hpcd->Instance->CNTR = USB_CNTR_FRES;
 80015be:	2340      	movs	r3, #64	; 0x40
 80015c0:	2201      	movs	r2, #1
 80015c2:	6821      	ldr	r1, [r4, #0]
 80015c4:	52ca      	strh	r2, [r1, r3]
 
 /*CNTR_FRES = 0*/
 hpcd->Instance->CNTR = 0;
 80015c6:	2200      	movs	r2, #0
 80015c8:	6821      	ldr	r1, [r4, #0]
 80015ca:	52ca      	strh	r2, [r1, r3]
 
 /*Clear pending interrupts*/
 hpcd->Instance->ISTR = 0;
 80015cc:	2144      	movs	r1, #68	; 0x44
 80015ce:	6820      	ldr	r0, [r4, #0]
 80015d0:	5242      	strh	r2, [r0, r1]
 
  /*Set Btable Adress*/
 hpcd->Instance->BTABLE = BTABLE_ADDRESS;
 80015d2:	310c      	adds	r1, #12
 80015d4:	6820      	ldr	r0, [r4, #0]
 80015d6:	5242      	strh	r2, [r0, r1]
  /*set wInterrupt_Mask global variable*/
 wInterrupt_Mask = USB_CNTR_CTRM  | USB_CNTR_WKUPM | USB_CNTR_SUSPM | USB_CNTR_ERRM \
   | USB_CNTR_SOFM | USB_CNTR_ESOFM | USB_CNTR_RESETM;
  
  /*Set interrupt mask*/
  hpcd->Instance->CNTR = wInterrupt_Mask;
 80015d8:	4a06      	ldr	r2, [pc, #24]	; (80015f4 <HAL_PCD_Init+0xbc>)
 80015da:	6821      	ldr	r1, [r4, #0]
 80015dc:	52ca      	strh	r2, [r1, r3]
  
  hpcd->USB_Address = 0U;
 80015de:	3b1c      	subs	r3, #28
 80015e0:	2200      	movs	r2, #0
 80015e2:	54e2      	strb	r2, [r4, r3]
  hpcd->State= HAL_PCD_STATE_READY;
 80015e4:	23ea      	movs	r3, #234	; 0xea
 80015e6:	33ff      	adds	r3, #255	; 0xff
 80015e8:	2201      	movs	r2, #1
 80015ea:	54e2      	strb	r2, [r4, r3]

 return HAL_OK;
 80015ec:	2000      	movs	r0, #0
}
 80015ee:	bd70      	pop	{r4, r5, r6, pc}
    return HAL_ERROR;
 80015f0:	2001      	movs	r0, #1
 80015f2:	e7fc      	b.n	80015ee <HAL_PCD_Init+0xb6>
 80015f4:	ffffbf00 	.word	0xffffbf00

080015f8 <HAL_PCD_Start>:
  * @retval HAL status
  */
HAL_StatusTypeDef HAL_PCD_Start(PCD_HandleTypeDef *hpcd)
{ 
  /* Enabling DP Pull-Down bit to Connect internal pull-up on USB DP line */
  hpcd->Instance->BCDR |= USB_BCDR_DPPU;
 80015f8:	6801      	ldr	r1, [r0, #0]
 80015fa:	2258      	movs	r2, #88	; 0x58
 80015fc:	5a8b      	ldrh	r3, [r1, r2]
 80015fe:	4803      	ldr	r0, [pc, #12]	; (800160c <HAL_PCD_Start+0x14>)
 8001600:	4303      	orrs	r3, r0
 8001602:	b29b      	uxth	r3, r3
 8001604:	528b      	strh	r3, [r1, r2]
  
  return HAL_OK;
}
 8001606:	2000      	movs	r0, #0
 8001608:	4770      	bx	lr
 800160a:	46c0      	nop			; (mov r8, r8)
 800160c:	ffff8000 	.word	0xffff8000

08001610 <HAL_PCD_SetAddress>:
  * @param  address new device address
  * @retval HAL status
  */
HAL_StatusTypeDef HAL_PCD_SetAddress(PCD_HandleTypeDef *hpcd, uint8_t address)
{
   __HAL_LOCK(hpcd); 
 8001610:	23f4      	movs	r3, #244	; 0xf4
 8001612:	005b      	lsls	r3, r3, #1
 8001614:	5cc3      	ldrb	r3, [r0, r3]
 8001616:	2b01      	cmp	r3, #1
 8001618:	d013      	beq.n	8001642 <HAL_PCD_SetAddress+0x32>
 800161a:	2201      	movs	r2, #1
 800161c:	23f4      	movs	r3, #244	; 0xf4
 800161e:	005b      	lsls	r3, r3, #1
 8001620:	54c2      	strb	r2, [r0, r3]

   if(address == 0U) 
 8001622:	2900      	cmp	r1, #0
 8001624:	d10a      	bne.n	800163c <HAL_PCD_SetAddress+0x2c>
   {
     /* set device address and enable function */
     hpcd->Instance->DADDR = USB_DADDR_EF;
 8001626:	327f      	adds	r2, #127	; 0x7f
 8001628:	3b9d      	subs	r3, #157	; 0x9d
 800162a:	3bff      	subs	r3, #255	; 0xff
 800162c:	6801      	ldr	r1, [r0, #0]
 800162e:	52ca      	strh	r2, [r1, r3]
   else /* USB Address will be applied later */
   {
     hpcd->USB_Address = address;
   }

  __HAL_UNLOCK(hpcd);   
 8001630:	2200      	movs	r2, #0
 8001632:	23f4      	movs	r3, #244	; 0xf4
 8001634:	005b      	lsls	r3, r3, #1
 8001636:	54c2      	strb	r2, [r0, r3]
  return HAL_OK;
 8001638:	2000      	movs	r0, #0
}
 800163a:	4770      	bx	lr
     hpcd->USB_Address = address;
 800163c:	2324      	movs	r3, #36	; 0x24
 800163e:	54c1      	strb	r1, [r0, r3]
 8001640:	e7f6      	b.n	8001630 <HAL_PCD_SetAddress+0x20>
   __HAL_LOCK(hpcd); 
 8001642:	2002      	movs	r0, #2
 8001644:	e7f9      	b.n	800163a <HAL_PCD_SetAddress+0x2a>
	...

08001648 <HAL_PCD_EP_Open>:
  * @param  ep_mps endpoint max packert size
  * @param  ep_type endpoint type   
  * @retval HAL status
  */
HAL_StatusTypeDef HAL_PCD_EP_Open(PCD_HandleTypeDef *hpcd, uint8_t ep_addr, uint16_t ep_mps, uint8_t ep_type)
{
 8001648:	b570      	push	{r4, r5, r6, lr}
  HAL_StatusTypeDef  ret = HAL_OK;
  PCD_EPTypeDef *ep;
  
  if ((ep_addr & 0x80U) == 0x80U)
 800164a:	b24e      	sxtb	r6, r1
 800164c:	2e00      	cmp	r6, #0
 800164e:	db65      	blt.n	800171c <HAL_PCD_EP_Open+0xd4>
  {
    ep = &hpcd->IN_ep[ep_addr & 0x7FU];
  }
  else
  {
    ep = &hpcd->OUT_ep[ep_addr & 0x7FU];
 8001650:	247f      	movs	r4, #127	; 0x7f
 8001652:	400c      	ands	r4, r1
 8001654:	00e5      	lsls	r5, r4, #3
 8001656:	1b2d      	subs	r5, r5, r4
 8001658:	00ac      	lsls	r4, r5, #2
 800165a:	3409      	adds	r4, #9
 800165c:	34ff      	adds	r4, #255	; 0xff
 800165e:	1904      	adds	r4, r0, r4
  }
  ep->num   = ep_addr & 0x7FU;
 8001660:	257f      	movs	r5, #127	; 0x7f
 8001662:	400d      	ands	r5, r1
 8001664:	7025      	strb	r5, [r4, #0]
  
  ep->is_in = (0x80U & ep_addr) != 0U;
 8001666:	0ff6      	lsrs	r6, r6, #31
 8001668:	7066      	strb	r6, [r4, #1]
  ep->maxpacket = ep_mps;
 800166a:	60e2      	str	r2, [r4, #12]
  ep->type = ep_type;
 800166c:	70e3      	strb	r3, [r4, #3]
  
  __HAL_LOCK(hpcd); 
 800166e:	23f4      	movs	r3, #244	; 0xf4
 8001670:	005b      	lsls	r3, r3, #1
 8001672:	5cc3      	ldrb	r3, [r0, r3]
 8001674:	2b01      	cmp	r3, #1
 8001676:	d100      	bne.n	800167a <HAL_PCD_EP_Open+0x32>
 8001678:	e175      	b.n	8001966 <HAL_PCD_EP_Open+0x31e>
 800167a:	2201      	movs	r2, #1
 800167c:	23f4      	movs	r3, #244	; 0xf4
 800167e:	005b      	lsls	r3, r3, #1
 8001680:	54c2      	strb	r2, [r0, r3]

  /* initialize Endpoint */
  switch (ep->type)
 8001682:	78e3      	ldrb	r3, [r4, #3]
 8001684:	2b01      	cmp	r3, #1
 8001686:	d100      	bne.n	800168a <HAL_PCD_EP_Open+0x42>
 8001688:	e074      	b.n	8001774 <HAL_PCD_EP_Open+0x12c>
 800168a:	2b00      	cmp	r3, #0
 800168c:	d04e      	beq.n	800172c <HAL_PCD_EP_Open+0xe4>
 800168e:	2b02      	cmp	r3, #2
 8001690:	d059      	beq.n	8001746 <HAL_PCD_EP_Open+0xfe>
 8001692:	2b03      	cmp	r3, #3
 8001694:	d061      	beq.n	800175a <HAL_PCD_EP_Open+0x112>
    break;
  default:
    break;
  } 
  
  PCD_SET_EP_ADDRESS(hpcd->Instance, ep->num, ep->num);
 8001696:	7822      	ldrb	r2, [r4, #0]
 8001698:	0093      	lsls	r3, r2, #2
 800169a:	6801      	ldr	r1, [r0, #0]
 800169c:	468c      	mov	ip, r1
 800169e:	4463      	add	r3, ip
 80016a0:	8819      	ldrh	r1, [r3, #0]
 80016a2:	4db2      	ldr	r5, [pc, #712]	; (800196c <HAL_PCD_EP_Open+0x324>)
 80016a4:	4029      	ands	r1, r5
 80016a6:	430a      	orrs	r2, r1
 80016a8:	49b1      	ldr	r1, [pc, #708]	; (8001970 <HAL_PCD_EP_Open+0x328>)
 80016aa:	430a      	orrs	r2, r1
 80016ac:	801a      	strh	r2, [r3, #0]
  
  if (ep->doublebuffer == 0U) 
 80016ae:	7aa3      	ldrb	r3, [r4, #10]
 80016b0:	2b00      	cmp	r3, #0
 80016b2:	d000      	beq.n	80016b6 <HAL_PCD_EP_Open+0x6e>
 80016b4:	e0b5      	b.n	8001822 <HAL_PCD_EP_Open+0x1da>
  {
    if (ep->is_in)
 80016b6:	7863      	ldrb	r3, [r4, #1]
 80016b8:	2b00      	cmp	r3, #0
 80016ba:	d100      	bne.n	80016be <HAL_PCD_EP_Open+0x76>
 80016bc:	e067      	b.n	800178e <HAL_PCD_EP_Open+0x146>
    {
      /*Set the endpoint Transmit buffer address */
      PCD_SET_EP_TX_ADDRESS(hpcd->Instance, ep->num, ep->pmaadress);
 80016be:	6801      	ldr	r1, [r0, #0]
 80016c0:	2350      	movs	r3, #80	; 0x50
 80016c2:	5acb      	ldrh	r3, [r1, r3]
 80016c4:	7822      	ldrb	r2, [r4, #0]
 80016c6:	00d2      	lsls	r2, r2, #3
 80016c8:	189b      	adds	r3, r3, r2
 80016ca:	185b      	adds	r3, r3, r1
 80016cc:	2280      	movs	r2, #128	; 0x80
 80016ce:	00d2      	lsls	r2, r2, #3
 80016d0:	4694      	mov	ip, r2
 80016d2:	4463      	add	r3, ip
 80016d4:	88a2      	ldrh	r2, [r4, #4]
 80016d6:	2101      	movs	r1, #1
 80016d8:	438a      	bics	r2, r1
 80016da:	801a      	strh	r2, [r3, #0]
      PCD_CLEAR_TX_DTOG(hpcd->Instance, ep->num)
 80016dc:	7823      	ldrb	r3, [r4, #0]
 80016de:	009b      	lsls	r3, r3, #2
 80016e0:	6802      	ldr	r2, [r0, #0]
 80016e2:	4694      	mov	ip, r2
 80016e4:	4463      	add	r3, ip
 80016e6:	881a      	ldrh	r2, [r3, #0]
 80016e8:	0651      	lsls	r1, r2, #25
 80016ea:	d503      	bpl.n	80016f4 <HAL_PCD_EP_Open+0xac>
 80016ec:	402a      	ands	r2, r5
 80016ee:	49a1      	ldr	r1, [pc, #644]	; (8001974 <HAL_PCD_EP_Open+0x32c>)
 80016f0:	430a      	orrs	r2, r1
 80016f2:	801a      	strh	r2, [r3, #0]
      /* Configure NAK status for the Endpoint*/
      PCD_SET_EP_TX_STATUS(hpcd->Instance, ep->num, USB_EP_TX_NAK) 
 80016f4:	7822      	ldrb	r2, [r4, #0]
 80016f6:	0092      	lsls	r2, r2, #2
 80016f8:	6803      	ldr	r3, [r0, #0]
 80016fa:	469c      	mov	ip, r3
 80016fc:	4462      	add	r2, ip
 80016fe:	8813      	ldrh	r3, [r2, #0]
 8001700:	499d      	ldr	r1, [pc, #628]	; (8001978 <HAL_PCD_EP_Open+0x330>)
 8001702:	400b      	ands	r3, r1
 8001704:	2120      	movs	r1, #32
 8001706:	404b      	eors	r3, r1
 8001708:	b29b      	uxth	r3, r3
 800170a:	4999      	ldr	r1, [pc, #612]	; (8001970 <HAL_PCD_EP_Open+0x328>)
 800170c:	430b      	orrs	r3, r1
 800170e:	8013      	strh	r3, [r2, #0]
      PCD_SET_EP_TX_STATUS(hpcd->Instance, ep->num, USB_EP_TX_DIS)
      PCD_SET_EP_RX_STATUS(hpcd->Instance, ep->num, USB_EP_RX_DIS)
    }
  } 
  
  __HAL_UNLOCK(hpcd);   
 8001710:	2200      	movs	r2, #0
 8001712:	23f4      	movs	r3, #244	; 0xf4
 8001714:	005b      	lsls	r3, r3, #1
 8001716:	54c2      	strb	r2, [r0, r3]
  return ret;
 8001718:	2000      	movs	r0, #0
}
 800171a:	bd70      	pop	{r4, r5, r6, pc}
    ep = &hpcd->IN_ep[ep_addr & 0x7FU];
 800171c:	247f      	movs	r4, #127	; 0x7f
 800171e:	400c      	ands	r4, r1
 8001720:	00e5      	lsls	r5, r4, #3
 8001722:	1b2d      	subs	r5, r5, r4
 8001724:	00ac      	lsls	r4, r5, #2
 8001726:	3428      	adds	r4, #40	; 0x28
 8001728:	1904      	adds	r4, r0, r4
 800172a:	e799      	b.n	8001660 <HAL_PCD_EP_Open+0x18>
    PCD_SET_EPTYPE(hpcd->Instance, ep->num, USB_EP_CONTROL);
 800172c:	7823      	ldrb	r3, [r4, #0]
 800172e:	009b      	lsls	r3, r3, #2
 8001730:	6802      	ldr	r2, [r0, #0]
 8001732:	4694      	mov	ip, r2
 8001734:	4463      	add	r3, ip
 8001736:	881a      	ldrh	r2, [r3, #0]
 8001738:	4990      	ldr	r1, [pc, #576]	; (800197c <HAL_PCD_EP_Open+0x334>)
 800173a:	4011      	ands	r1, r2
 800173c:	2280      	movs	r2, #128	; 0x80
 800173e:	0092      	lsls	r2, r2, #2
 8001740:	430a      	orrs	r2, r1
 8001742:	801a      	strh	r2, [r3, #0]
    break;
 8001744:	e7a7      	b.n	8001696 <HAL_PCD_EP_Open+0x4e>
    PCD_SET_EPTYPE(hpcd->Instance, ep->num, USB_EP_BULK);
 8001746:	7823      	ldrb	r3, [r4, #0]
 8001748:	009b      	lsls	r3, r3, #2
 800174a:	6802      	ldr	r2, [r0, #0]
 800174c:	4694      	mov	ip, r2
 800174e:	4463      	add	r3, ip
 8001750:	881a      	ldrh	r2, [r3, #0]
 8001752:	498a      	ldr	r1, [pc, #552]	; (800197c <HAL_PCD_EP_Open+0x334>)
 8001754:	400a      	ands	r2, r1
 8001756:	801a      	strh	r2, [r3, #0]
    break;
 8001758:	e79d      	b.n	8001696 <HAL_PCD_EP_Open+0x4e>
    PCD_SET_EPTYPE(hpcd->Instance, ep->num, USB_EP_INTERRUPT);
 800175a:	7823      	ldrb	r3, [r4, #0]
 800175c:	009b      	lsls	r3, r3, #2
 800175e:	6802      	ldr	r2, [r0, #0]
 8001760:	4694      	mov	ip, r2
 8001762:	4463      	add	r3, ip
 8001764:	881a      	ldrh	r2, [r3, #0]
 8001766:	4985      	ldr	r1, [pc, #532]	; (800197c <HAL_PCD_EP_Open+0x334>)
 8001768:	4011      	ands	r1, r2
 800176a:	22c0      	movs	r2, #192	; 0xc0
 800176c:	00d2      	lsls	r2, r2, #3
 800176e:	430a      	orrs	r2, r1
 8001770:	801a      	strh	r2, [r3, #0]
    break;
 8001772:	e790      	b.n	8001696 <HAL_PCD_EP_Open+0x4e>
    PCD_SET_EPTYPE(hpcd->Instance, ep->num, USB_EP_ISOCHRONOUS);
 8001774:	7823      	ldrb	r3, [r4, #0]
 8001776:	009b      	lsls	r3, r3, #2
 8001778:	6802      	ldr	r2, [r0, #0]
 800177a:	4694      	mov	ip, r2
 800177c:	4463      	add	r3, ip
 800177e:	881a      	ldrh	r2, [r3, #0]
 8001780:	497e      	ldr	r1, [pc, #504]	; (800197c <HAL_PCD_EP_Open+0x334>)
 8001782:	4011      	ands	r1, r2
 8001784:	2280      	movs	r2, #128	; 0x80
 8001786:	00d2      	lsls	r2, r2, #3
 8001788:	430a      	orrs	r2, r1
 800178a:	801a      	strh	r2, [r3, #0]
    break;
 800178c:	e783      	b.n	8001696 <HAL_PCD_EP_Open+0x4e>
      PCD_SET_EP_RX_ADDRESS(hpcd->Instance, ep->num, ep->pmaadress);
 800178e:	6801      	ldr	r1, [r0, #0]
 8001790:	2550      	movs	r5, #80	; 0x50
 8001792:	5b4b      	ldrh	r3, [r1, r5]
 8001794:	7822      	ldrb	r2, [r4, #0]
 8001796:	00d2      	lsls	r2, r2, #3
 8001798:	189b      	adds	r3, r3, r2
 800179a:	185b      	adds	r3, r3, r1
 800179c:	4a78      	ldr	r2, [pc, #480]	; (8001980 <HAL_PCD_EP_Open+0x338>)
 800179e:	4694      	mov	ip, r2
 80017a0:	4463      	add	r3, ip
 80017a2:	88a2      	ldrh	r2, [r4, #4]
 80017a4:	2101      	movs	r1, #1
 80017a6:	438a      	bics	r2, r1
 80017a8:	801a      	strh	r2, [r3, #0]
      PCD_SET_EP_RX_CNT(hpcd->Instance, ep->num, ep->maxpacket)
 80017aa:	6801      	ldr	r1, [r0, #0]
 80017ac:	5b4b      	ldrh	r3, [r1, r5]
 80017ae:	7822      	ldrb	r2, [r4, #0]
 80017b0:	00d2      	lsls	r2, r2, #3
 80017b2:	189b      	adds	r3, r3, r2
 80017b4:	185b      	adds	r3, r3, r1
 80017b6:	4a73      	ldr	r2, [pc, #460]	; (8001984 <HAL_PCD_EP_Open+0x33c>)
 80017b8:	4694      	mov	ip, r2
 80017ba:	4463      	add	r3, ip
 80017bc:	68e1      	ldr	r1, [r4, #12]
 80017be:	293e      	cmp	r1, #62	; 0x3e
 80017c0:	d926      	bls.n	8001810 <HAL_PCD_EP_Open+0x1c8>
 80017c2:	094a      	lsrs	r2, r1, #5
 80017c4:	b292      	uxth	r2, r2
 80017c6:	06c9      	lsls	r1, r1, #27
 80017c8:	d101      	bne.n	80017ce <HAL_PCD_EP_Open+0x186>
 80017ca:	3a01      	subs	r2, #1
 80017cc:	b292      	uxth	r2, r2
 80017ce:	0292      	lsls	r2, r2, #10
 80017d0:	b292      	uxth	r2, r2
 80017d2:	496d      	ldr	r1, [pc, #436]	; (8001988 <HAL_PCD_EP_Open+0x340>)
 80017d4:	430a      	orrs	r2, r1
 80017d6:	801a      	strh	r2, [r3, #0]
      PCD_CLEAR_RX_DTOG(hpcd->Instance, ep->num)
 80017d8:	7823      	ldrb	r3, [r4, #0]
 80017da:	009b      	lsls	r3, r3, #2
 80017dc:	6802      	ldr	r2, [r0, #0]
 80017de:	4694      	mov	ip, r2
 80017e0:	4463      	add	r3, ip
 80017e2:	881a      	ldrh	r2, [r3, #0]
 80017e4:	0451      	lsls	r1, r2, #17
 80017e6:	d504      	bpl.n	80017f2 <HAL_PCD_EP_Open+0x1aa>
 80017e8:	4960      	ldr	r1, [pc, #384]	; (800196c <HAL_PCD_EP_Open+0x324>)
 80017ea:	400a      	ands	r2, r1
 80017ec:	4967      	ldr	r1, [pc, #412]	; (800198c <HAL_PCD_EP_Open+0x344>)
 80017ee:	430a      	orrs	r2, r1
 80017f0:	801a      	strh	r2, [r3, #0]
      PCD_SET_EP_RX_STATUS(hpcd->Instance, ep->num, USB_EP_RX_VALID)
 80017f2:	7823      	ldrb	r3, [r4, #0]
 80017f4:	009b      	lsls	r3, r3, #2
 80017f6:	6802      	ldr	r2, [r0, #0]
 80017f8:	4694      	mov	ip, r2
 80017fa:	4463      	add	r3, ip
 80017fc:	8819      	ldrh	r1, [r3, #0]
 80017fe:	4a64      	ldr	r2, [pc, #400]	; (8001990 <HAL_PCD_EP_Open+0x348>)
 8001800:	4011      	ands	r1, r2
 8001802:	22c0      	movs	r2, #192	; 0xc0
 8001804:	0192      	lsls	r2, r2, #6
 8001806:	4051      	eors	r1, r2
 8001808:	4a59      	ldr	r2, [pc, #356]	; (8001970 <HAL_PCD_EP_Open+0x328>)
 800180a:	430a      	orrs	r2, r1
 800180c:	801a      	strh	r2, [r3, #0]
 800180e:	e77f      	b.n	8001710 <HAL_PCD_EP_Open+0xc8>
      PCD_SET_EP_RX_CNT(hpcd->Instance, ep->num, ep->maxpacket)
 8001810:	084a      	lsrs	r2, r1, #1
 8001812:	b292      	uxth	r2, r2
 8001814:	07c9      	lsls	r1, r1, #31
 8001816:	d501      	bpl.n	800181c <HAL_PCD_EP_Open+0x1d4>
 8001818:	3201      	adds	r2, #1
 800181a:	b292      	uxth	r2, r2
 800181c:	0292      	lsls	r2, r2, #10
 800181e:	801a      	strh	r2, [r3, #0]
 8001820:	e7da      	b.n	80017d8 <HAL_PCD_EP_Open+0x190>
    PCD_SET_EP_DBUF(hpcd->Instance, ep->num);
 8001822:	7823      	ldrb	r3, [r4, #0]
 8001824:	009b      	lsls	r3, r3, #2
 8001826:	6802      	ldr	r2, [r0, #0]
 8001828:	4694      	mov	ip, r2
 800182a:	4463      	add	r3, ip
 800182c:	881a      	ldrh	r2, [r3, #0]
 800182e:	4959      	ldr	r1, [pc, #356]	; (8001994 <HAL_PCD_EP_Open+0x34c>)
 8001830:	4011      	ands	r1, r2
 8001832:	4a59      	ldr	r2, [pc, #356]	; (8001998 <HAL_PCD_EP_Open+0x350>)
 8001834:	430a      	orrs	r2, r1
 8001836:	801a      	strh	r2, [r3, #0]
    PCD_SET_EP_DBUF_ADDR(hpcd->Instance, ep->num,ep->pmaaddr0, ep->pmaaddr1)
 8001838:	6801      	ldr	r1, [r0, #0]
 800183a:	2650      	movs	r6, #80	; 0x50
 800183c:	5b8b      	ldrh	r3, [r1, r6]
 800183e:	7822      	ldrb	r2, [r4, #0]
 8001840:	00d2      	lsls	r2, r2, #3
 8001842:	189b      	adds	r3, r3, r2
 8001844:	185b      	adds	r3, r3, r1
 8001846:	2280      	movs	r2, #128	; 0x80
 8001848:	00d2      	lsls	r2, r2, #3
 800184a:	4694      	mov	ip, r2
 800184c:	4463      	add	r3, ip
 800184e:	88e2      	ldrh	r2, [r4, #6]
 8001850:	2101      	movs	r1, #1
 8001852:	438a      	bics	r2, r1
 8001854:	801a      	strh	r2, [r3, #0]
 8001856:	6805      	ldr	r5, [r0, #0]
 8001858:	5bab      	ldrh	r3, [r5, r6]
 800185a:	7822      	ldrb	r2, [r4, #0]
 800185c:	00d2      	lsls	r2, r2, #3
 800185e:	189b      	adds	r3, r3, r2
 8001860:	195b      	adds	r3, r3, r5
 8001862:	4a47      	ldr	r2, [pc, #284]	; (8001980 <HAL_PCD_EP_Open+0x338>)
 8001864:	4694      	mov	ip, r2
 8001866:	4463      	add	r3, ip
 8001868:	8922      	ldrh	r2, [r4, #8]
 800186a:	438a      	bics	r2, r1
 800186c:	801a      	strh	r2, [r3, #0]
    if (ep->is_in==0U)
 800186e:	7863      	ldrb	r3, [r4, #1]
 8001870:	2b00      	cmp	r3, #0
 8001872:	d13d      	bne.n	80018f0 <HAL_PCD_EP_Open+0x2a8>
      PCD_CLEAR_RX_DTOG(hpcd->Instance, ep->num)
 8001874:	7823      	ldrb	r3, [r4, #0]
 8001876:	009b      	lsls	r3, r3, #2
 8001878:	6802      	ldr	r2, [r0, #0]
 800187a:	4694      	mov	ip, r2
 800187c:	4463      	add	r3, ip
 800187e:	881a      	ldrh	r2, [r3, #0]
 8001880:	0451      	lsls	r1, r2, #17
 8001882:	d504      	bpl.n	800188e <HAL_PCD_EP_Open+0x246>
 8001884:	4939      	ldr	r1, [pc, #228]	; (800196c <HAL_PCD_EP_Open+0x324>)
 8001886:	400a      	ands	r2, r1
 8001888:	4940      	ldr	r1, [pc, #256]	; (800198c <HAL_PCD_EP_Open+0x344>)
 800188a:	430a      	orrs	r2, r1
 800188c:	801a      	strh	r2, [r3, #0]
      PCD_CLEAR_TX_DTOG(hpcd->Instance, ep->num)
 800188e:	7823      	ldrb	r3, [r4, #0]
 8001890:	009b      	lsls	r3, r3, #2
 8001892:	6802      	ldr	r2, [r0, #0]
 8001894:	4694      	mov	ip, r2
 8001896:	4463      	add	r3, ip
 8001898:	881a      	ldrh	r2, [r3, #0]
 800189a:	0651      	lsls	r1, r2, #25
 800189c:	d504      	bpl.n	80018a8 <HAL_PCD_EP_Open+0x260>
 800189e:	4933      	ldr	r1, [pc, #204]	; (800196c <HAL_PCD_EP_Open+0x324>)
 80018a0:	400a      	ands	r2, r1
 80018a2:	4934      	ldr	r1, [pc, #208]	; (8001974 <HAL_PCD_EP_Open+0x32c>)
 80018a4:	430a      	orrs	r2, r1
 80018a6:	801a      	strh	r2, [r3, #0]
      PCD_TX_DTOG(hpcd->Instance, ep->num);
 80018a8:	7823      	ldrb	r3, [r4, #0]
 80018aa:	009b      	lsls	r3, r3, #2
 80018ac:	6802      	ldr	r2, [r0, #0]
 80018ae:	4694      	mov	ip, r2
 80018b0:	4463      	add	r3, ip
 80018b2:	881a      	ldrh	r2, [r3, #0]
 80018b4:	492d      	ldr	r1, [pc, #180]	; (800196c <HAL_PCD_EP_Open+0x324>)
 80018b6:	4011      	ands	r1, r2
 80018b8:	4a2e      	ldr	r2, [pc, #184]	; (8001974 <HAL_PCD_EP_Open+0x32c>)
 80018ba:	430a      	orrs	r2, r1
 80018bc:	801a      	strh	r2, [r3, #0]
      PCD_SET_EP_RX_STATUS(hpcd->Instance, ep->num, USB_EP_RX_VALID)
 80018be:	7821      	ldrb	r1, [r4, #0]
 80018c0:	0089      	lsls	r1, r1, #2
 80018c2:	6803      	ldr	r3, [r0, #0]
 80018c4:	469c      	mov	ip, r3
 80018c6:	4461      	add	r1, ip
 80018c8:	880b      	ldrh	r3, [r1, #0]
 80018ca:	4a31      	ldr	r2, [pc, #196]	; (8001990 <HAL_PCD_EP_Open+0x348>)
 80018cc:	401a      	ands	r2, r3
 80018ce:	23c0      	movs	r3, #192	; 0xc0
 80018d0:	019b      	lsls	r3, r3, #6
 80018d2:	4053      	eors	r3, r2
 80018d4:	4a26      	ldr	r2, [pc, #152]	; (8001970 <HAL_PCD_EP_Open+0x328>)
 80018d6:	4313      	orrs	r3, r2
 80018d8:	800b      	strh	r3, [r1, #0]
      PCD_SET_EP_TX_STATUS(hpcd->Instance, ep->num, USB_EP_TX_DIS)
 80018da:	7823      	ldrb	r3, [r4, #0]
 80018dc:	009b      	lsls	r3, r3, #2
 80018de:	6801      	ldr	r1, [r0, #0]
 80018e0:	468c      	mov	ip, r1
 80018e2:	4463      	add	r3, ip
 80018e4:	8819      	ldrh	r1, [r3, #0]
 80018e6:	4c24      	ldr	r4, [pc, #144]	; (8001978 <HAL_PCD_EP_Open+0x330>)
 80018e8:	4021      	ands	r1, r4
 80018ea:	430a      	orrs	r2, r1
 80018ec:	801a      	strh	r2, [r3, #0]
 80018ee:	e70f      	b.n	8001710 <HAL_PCD_EP_Open+0xc8>
      PCD_CLEAR_RX_DTOG(hpcd->Instance, ep->num)
 80018f0:	7823      	ldrb	r3, [r4, #0]
 80018f2:	009b      	lsls	r3, r3, #2
 80018f4:	6802      	ldr	r2, [r0, #0]
 80018f6:	4694      	mov	ip, r2
 80018f8:	4463      	add	r3, ip
 80018fa:	881a      	ldrh	r2, [r3, #0]
 80018fc:	0451      	lsls	r1, r2, #17
 80018fe:	d504      	bpl.n	800190a <HAL_PCD_EP_Open+0x2c2>
 8001900:	491a      	ldr	r1, [pc, #104]	; (800196c <HAL_PCD_EP_Open+0x324>)
 8001902:	400a      	ands	r2, r1
 8001904:	4921      	ldr	r1, [pc, #132]	; (800198c <HAL_PCD_EP_Open+0x344>)
 8001906:	430a      	orrs	r2, r1
 8001908:	801a      	strh	r2, [r3, #0]
      PCD_CLEAR_TX_DTOG(hpcd->Instance, ep->num)
 800190a:	7823      	ldrb	r3, [r4, #0]
 800190c:	009b      	lsls	r3, r3, #2
 800190e:	6802      	ldr	r2, [r0, #0]
 8001910:	4694      	mov	ip, r2
 8001912:	4463      	add	r3, ip
 8001914:	881a      	ldrh	r2, [r3, #0]
 8001916:	0651      	lsls	r1, r2, #25
 8001918:	d504      	bpl.n	8001924 <HAL_PCD_EP_Open+0x2dc>
 800191a:	4914      	ldr	r1, [pc, #80]	; (800196c <HAL_PCD_EP_Open+0x324>)
 800191c:	400a      	ands	r2, r1
 800191e:	4915      	ldr	r1, [pc, #84]	; (8001974 <HAL_PCD_EP_Open+0x32c>)
 8001920:	430a      	orrs	r2, r1
 8001922:	801a      	strh	r2, [r3, #0]
      PCD_RX_DTOG(hpcd->Instance, ep->num);
 8001924:	7823      	ldrb	r3, [r4, #0]
 8001926:	009b      	lsls	r3, r3, #2
 8001928:	6802      	ldr	r2, [r0, #0]
 800192a:	4694      	mov	ip, r2
 800192c:	4463      	add	r3, ip
 800192e:	881a      	ldrh	r2, [r3, #0]
 8001930:	490e      	ldr	r1, [pc, #56]	; (800196c <HAL_PCD_EP_Open+0x324>)
 8001932:	4011      	ands	r1, r2
 8001934:	4a15      	ldr	r2, [pc, #84]	; (800198c <HAL_PCD_EP_Open+0x344>)
 8001936:	430a      	orrs	r2, r1
 8001938:	801a      	strh	r2, [r3, #0]
      PCD_SET_EP_TX_STATUS(hpcd->Instance, ep->num, USB_EP_TX_DIS)
 800193a:	7821      	ldrb	r1, [r4, #0]
 800193c:	0089      	lsls	r1, r1, #2
 800193e:	6803      	ldr	r3, [r0, #0]
 8001940:	469c      	mov	ip, r3
 8001942:	4461      	add	r1, ip
 8001944:	880b      	ldrh	r3, [r1, #0]
 8001946:	4a0c      	ldr	r2, [pc, #48]	; (8001978 <HAL_PCD_EP_Open+0x330>)
 8001948:	4013      	ands	r3, r2
 800194a:	4a09      	ldr	r2, [pc, #36]	; (8001970 <HAL_PCD_EP_Open+0x328>)
 800194c:	4313      	orrs	r3, r2
 800194e:	800b      	strh	r3, [r1, #0]
      PCD_SET_EP_RX_STATUS(hpcd->Instance, ep->num, USB_EP_RX_DIS)
 8001950:	7823      	ldrb	r3, [r4, #0]
 8001952:	009b      	lsls	r3, r3, #2
 8001954:	6801      	ldr	r1, [r0, #0]
 8001956:	468c      	mov	ip, r1
 8001958:	4463      	add	r3, ip
 800195a:	8819      	ldrh	r1, [r3, #0]
 800195c:	4c0c      	ldr	r4, [pc, #48]	; (8001990 <HAL_PCD_EP_Open+0x348>)
 800195e:	4021      	ands	r1, r4
 8001960:	430a      	orrs	r2, r1
 8001962:	801a      	strh	r2, [r3, #0]
 8001964:	e6d4      	b.n	8001710 <HAL_PCD_EP_Open+0xc8>
  __HAL_LOCK(hpcd); 
 8001966:	2002      	movs	r0, #2
 8001968:	e6d7      	b.n	800171a <HAL_PCD_EP_Open+0xd2>
 800196a:	46c0      	nop			; (mov r8, r8)
 800196c:	00000f0f 	.word	0x00000f0f
 8001970:	ffff8080 	.word	0xffff8080
 8001974:	ffff80c0 	.word	0xffff80c0
 8001978:	ffff8fbf 	.word	0xffff8fbf
 800197c:	ffff898f 	.word	0xffff898f
 8001980:	00000404 	.word	0x00000404
 8001984:	00000406 	.word	0x00000406
 8001988:	ffff8000 	.word	0xffff8000
 800198c:	ffffc080 	.word	0xffffc080
 8001990:	ffffbf8f 	.word	0xffffbf8f
 8001994:	00000e0f 	.word	0x00000e0f
 8001998:	ffff8180 	.word	0xffff8180

0800199c <HAL_PCD_EP_Close>:
  * @param  hpcd PCD handle
  * @param  ep_addr endpoint address
  * @retval HAL status
  */
HAL_StatusTypeDef HAL_PCD_EP_Close(PCD_HandleTypeDef *hpcd, uint8_t ep_addr)
{  
 800199c:	b510      	push	{r4, lr}
  PCD_EPTypeDef *ep;
  
  if ((ep_addr & 0x80U) == 0x80U)
 800199e:	b24a      	sxtb	r2, r1
 80019a0:	2a00      	cmp	r2, #0
 80019a2:	db3a      	blt.n	8001a1a <HAL_PCD_EP_Close+0x7e>
  {
    ep = &hpcd->IN_ep[ep_addr & 0x7FU];
  }
  else
  {
    ep = &hpcd->OUT_ep[ep_addr & 0x7FU];
 80019a4:	237f      	movs	r3, #127	; 0x7f
 80019a6:	400b      	ands	r3, r1
 80019a8:	00dc      	lsls	r4, r3, #3
 80019aa:	1ae4      	subs	r4, r4, r3
 80019ac:	00a3      	lsls	r3, r4, #2
 80019ae:	3309      	adds	r3, #9
 80019b0:	33ff      	adds	r3, #255	; 0xff
 80019b2:	18c3      	adds	r3, r0, r3
  }
  ep->num   = ep_addr & 0x7FU;
 80019b4:	247f      	movs	r4, #127	; 0x7f
 80019b6:	4021      	ands	r1, r4
 80019b8:	7019      	strb	r1, [r3, #0]
  
  ep->is_in = (0x80U & ep_addr) != 0U;
 80019ba:	0fd2      	lsrs	r2, r2, #31
 80019bc:	705a      	strb	r2, [r3, #1]
  
  __HAL_LOCK(hpcd); 
 80019be:	22f4      	movs	r2, #244	; 0xf4
 80019c0:	0052      	lsls	r2, r2, #1
 80019c2:	5c82      	ldrb	r2, [r0, r2]
 80019c4:	2a01      	cmp	r2, #1
 80019c6:	d100      	bne.n	80019ca <HAL_PCD_EP_Close+0x2e>
 80019c8:	e0c1      	b.n	8001b4e <HAL_PCD_EP_Close+0x1b2>
 80019ca:	2101      	movs	r1, #1
 80019cc:	22f4      	movs	r2, #244	; 0xf4
 80019ce:	0052      	lsls	r2, r2, #1
 80019d0:	5481      	strb	r1, [r0, r2]

  if (ep->doublebuffer == 0U) 
 80019d2:	7a9a      	ldrb	r2, [r3, #10]
 80019d4:	2a00      	cmp	r2, #0
 80019d6:	d141      	bne.n	8001a5c <HAL_PCD_EP_Close+0xc0>
  {
    if (ep->is_in)
 80019d8:	785a      	ldrb	r2, [r3, #1]
 80019da:	2a00      	cmp	r2, #0
 80019dc:	d025      	beq.n	8001a2a <HAL_PCD_EP_Close+0x8e>
    {
      PCD_CLEAR_TX_DTOG(hpcd->Instance, ep->num)
 80019de:	781a      	ldrb	r2, [r3, #0]
 80019e0:	0092      	lsls	r2, r2, #2
 80019e2:	6801      	ldr	r1, [r0, #0]
 80019e4:	468c      	mov	ip, r1
 80019e6:	4462      	add	r2, ip
 80019e8:	8811      	ldrh	r1, [r2, #0]
 80019ea:	064c      	lsls	r4, r1, #25
 80019ec:	d504      	bpl.n	80019f8 <HAL_PCD_EP_Close+0x5c>
 80019ee:	4c59      	ldr	r4, [pc, #356]	; (8001b54 <HAL_PCD_EP_Close+0x1b8>)
 80019f0:	4021      	ands	r1, r4
 80019f2:	4c59      	ldr	r4, [pc, #356]	; (8001b58 <HAL_PCD_EP_Close+0x1bc>)
 80019f4:	4321      	orrs	r1, r4
 80019f6:	8011      	strh	r1, [r2, #0]
      /* Configure DISABLE status for the Endpoint*/
      PCD_SET_EP_TX_STATUS(hpcd->Instance, ep->num, USB_EP_TX_DIS)
 80019f8:	781b      	ldrb	r3, [r3, #0]
 80019fa:	009b      	lsls	r3, r3, #2
 80019fc:	6802      	ldr	r2, [r0, #0]
 80019fe:	4694      	mov	ip, r2
 8001a00:	4463      	add	r3, ip
 8001a02:	881a      	ldrh	r2, [r3, #0]
 8001a04:	4955      	ldr	r1, [pc, #340]	; (8001b5c <HAL_PCD_EP_Close+0x1c0>)
 8001a06:	4011      	ands	r1, r2
 8001a08:	4a55      	ldr	r2, [pc, #340]	; (8001b60 <HAL_PCD_EP_Close+0x1c4>)
 8001a0a:	430a      	orrs	r2, r1
 8001a0c:	801a      	strh	r2, [r3, #0]
      PCD_SET_EP_TX_STATUS(hpcd->Instance, ep->num, USB_EP_TX_DIS)
      PCD_SET_EP_RX_STATUS(hpcd->Instance, ep->num, USB_EP_RX_DIS)
    }
  } 
  
  __HAL_UNLOCK(hpcd);   
 8001a0e:	2200      	movs	r2, #0
 8001a10:	23f4      	movs	r3, #244	; 0xf4
 8001a12:	005b      	lsls	r3, r3, #1
 8001a14:	54c2      	strb	r2, [r0, r3]
  return HAL_OK;
 8001a16:	2000      	movs	r0, #0
}
 8001a18:	bd10      	pop	{r4, pc}
    ep = &hpcd->IN_ep[ep_addr & 0x7FU];
 8001a1a:	237f      	movs	r3, #127	; 0x7f
 8001a1c:	400b      	ands	r3, r1
 8001a1e:	00dc      	lsls	r4, r3, #3
 8001a20:	1ae4      	subs	r4, r4, r3
 8001a22:	00a3      	lsls	r3, r4, #2
 8001a24:	3328      	adds	r3, #40	; 0x28
 8001a26:	18c3      	adds	r3, r0, r3
 8001a28:	e7c4      	b.n	80019b4 <HAL_PCD_EP_Close+0x18>
      PCD_CLEAR_RX_DTOG(hpcd->Instance, ep->num)
 8001a2a:	781a      	ldrb	r2, [r3, #0]
 8001a2c:	0092      	lsls	r2, r2, #2
 8001a2e:	6801      	ldr	r1, [r0, #0]
 8001a30:	468c      	mov	ip, r1
 8001a32:	4462      	add	r2, ip
 8001a34:	8811      	ldrh	r1, [r2, #0]
 8001a36:	044c      	lsls	r4, r1, #17
 8001a38:	d504      	bpl.n	8001a44 <HAL_PCD_EP_Close+0xa8>
 8001a3a:	4c46      	ldr	r4, [pc, #280]	; (8001b54 <HAL_PCD_EP_Close+0x1b8>)
 8001a3c:	4021      	ands	r1, r4
 8001a3e:	4c49      	ldr	r4, [pc, #292]	; (8001b64 <HAL_PCD_EP_Close+0x1c8>)
 8001a40:	4321      	orrs	r1, r4
 8001a42:	8011      	strh	r1, [r2, #0]
      PCD_SET_EP_RX_STATUS(hpcd->Instance, ep->num, USB_EP_RX_DIS)
 8001a44:	781b      	ldrb	r3, [r3, #0]
 8001a46:	009b      	lsls	r3, r3, #2
 8001a48:	6802      	ldr	r2, [r0, #0]
 8001a4a:	4694      	mov	ip, r2
 8001a4c:	4463      	add	r3, ip
 8001a4e:	881a      	ldrh	r2, [r3, #0]
 8001a50:	4945      	ldr	r1, [pc, #276]	; (8001b68 <HAL_PCD_EP_Close+0x1cc>)
 8001a52:	4011      	ands	r1, r2
 8001a54:	4a42      	ldr	r2, [pc, #264]	; (8001b60 <HAL_PCD_EP_Close+0x1c4>)
 8001a56:	430a      	orrs	r2, r1
 8001a58:	801a      	strh	r2, [r3, #0]
 8001a5a:	e7d8      	b.n	8001a0e <HAL_PCD_EP_Close+0x72>
    if (ep->is_in==0U)
 8001a5c:	785a      	ldrb	r2, [r3, #1]
 8001a5e:	2a00      	cmp	r2, #0
 8001a60:	d13a      	bne.n	8001ad8 <HAL_PCD_EP_Close+0x13c>
      PCD_CLEAR_RX_DTOG(hpcd->Instance, ep->num)
 8001a62:	781a      	ldrb	r2, [r3, #0]
 8001a64:	0092      	lsls	r2, r2, #2
 8001a66:	6801      	ldr	r1, [r0, #0]
 8001a68:	468c      	mov	ip, r1
 8001a6a:	4462      	add	r2, ip
 8001a6c:	8811      	ldrh	r1, [r2, #0]
 8001a6e:	044c      	lsls	r4, r1, #17
 8001a70:	d504      	bpl.n	8001a7c <HAL_PCD_EP_Close+0xe0>
 8001a72:	4c38      	ldr	r4, [pc, #224]	; (8001b54 <HAL_PCD_EP_Close+0x1b8>)
 8001a74:	4021      	ands	r1, r4
 8001a76:	4c3b      	ldr	r4, [pc, #236]	; (8001b64 <HAL_PCD_EP_Close+0x1c8>)
 8001a78:	4321      	orrs	r1, r4
 8001a7a:	8011      	strh	r1, [r2, #0]
      PCD_CLEAR_TX_DTOG(hpcd->Instance, ep->num)
 8001a7c:	781a      	ldrb	r2, [r3, #0]
 8001a7e:	0092      	lsls	r2, r2, #2
 8001a80:	6801      	ldr	r1, [r0, #0]
 8001a82:	468c      	mov	ip, r1
 8001a84:	4462      	add	r2, ip
 8001a86:	8811      	ldrh	r1, [r2, #0]
 8001a88:	064c      	lsls	r4, r1, #25
 8001a8a:	d504      	bpl.n	8001a96 <HAL_PCD_EP_Close+0xfa>
 8001a8c:	4c31      	ldr	r4, [pc, #196]	; (8001b54 <HAL_PCD_EP_Close+0x1b8>)
 8001a8e:	4021      	ands	r1, r4
 8001a90:	4c31      	ldr	r4, [pc, #196]	; (8001b58 <HAL_PCD_EP_Close+0x1bc>)
 8001a92:	4321      	orrs	r1, r4
 8001a94:	8011      	strh	r1, [r2, #0]
      PCD_TX_DTOG(hpcd->Instance, ep->num);
 8001a96:	781a      	ldrb	r2, [r3, #0]
 8001a98:	0092      	lsls	r2, r2, #2
 8001a9a:	6801      	ldr	r1, [r0, #0]
 8001a9c:	468c      	mov	ip, r1
 8001a9e:	4462      	add	r2, ip
 8001aa0:	8811      	ldrh	r1, [r2, #0]
 8001aa2:	4c2c      	ldr	r4, [pc, #176]	; (8001b54 <HAL_PCD_EP_Close+0x1b8>)
 8001aa4:	400c      	ands	r4, r1
 8001aa6:	492c      	ldr	r1, [pc, #176]	; (8001b58 <HAL_PCD_EP_Close+0x1bc>)
 8001aa8:	4321      	orrs	r1, r4
 8001aaa:	8011      	strh	r1, [r2, #0]
      PCD_SET_EP_RX_STATUS(hpcd->Instance, ep->num, USB_EP_RX_DIS)
 8001aac:	781c      	ldrb	r4, [r3, #0]
 8001aae:	00a4      	lsls	r4, r4, #2
 8001ab0:	6802      	ldr	r2, [r0, #0]
 8001ab2:	4694      	mov	ip, r2
 8001ab4:	4464      	add	r4, ip
 8001ab6:	8822      	ldrh	r2, [r4, #0]
 8001ab8:	492b      	ldr	r1, [pc, #172]	; (8001b68 <HAL_PCD_EP_Close+0x1cc>)
 8001aba:	400a      	ands	r2, r1
 8001abc:	4928      	ldr	r1, [pc, #160]	; (8001b60 <HAL_PCD_EP_Close+0x1c4>)
 8001abe:	430a      	orrs	r2, r1
 8001ac0:	8022      	strh	r2, [r4, #0]
      PCD_SET_EP_TX_STATUS(hpcd->Instance, ep->num, USB_EP_TX_DIS)
 8001ac2:	781b      	ldrb	r3, [r3, #0]
 8001ac4:	009b      	lsls	r3, r3, #2
 8001ac6:	6802      	ldr	r2, [r0, #0]
 8001ac8:	4694      	mov	ip, r2
 8001aca:	4463      	add	r3, ip
 8001acc:	881a      	ldrh	r2, [r3, #0]
 8001ace:	4c23      	ldr	r4, [pc, #140]	; (8001b5c <HAL_PCD_EP_Close+0x1c0>)
 8001ad0:	4022      	ands	r2, r4
 8001ad2:	4311      	orrs	r1, r2
 8001ad4:	8019      	strh	r1, [r3, #0]
 8001ad6:	e79a      	b.n	8001a0e <HAL_PCD_EP_Close+0x72>
      PCD_CLEAR_RX_DTOG(hpcd->Instance, ep->num)
 8001ad8:	781a      	ldrb	r2, [r3, #0]
 8001ada:	0092      	lsls	r2, r2, #2
 8001adc:	6801      	ldr	r1, [r0, #0]
 8001ade:	468c      	mov	ip, r1
 8001ae0:	4462      	add	r2, ip
 8001ae2:	8811      	ldrh	r1, [r2, #0]
 8001ae4:	044c      	lsls	r4, r1, #17
 8001ae6:	d504      	bpl.n	8001af2 <HAL_PCD_EP_Close+0x156>
 8001ae8:	4c1a      	ldr	r4, [pc, #104]	; (8001b54 <HAL_PCD_EP_Close+0x1b8>)
 8001aea:	4021      	ands	r1, r4
 8001aec:	4c1d      	ldr	r4, [pc, #116]	; (8001b64 <HAL_PCD_EP_Close+0x1c8>)
 8001aee:	4321      	orrs	r1, r4
 8001af0:	8011      	strh	r1, [r2, #0]
      PCD_CLEAR_TX_DTOG(hpcd->Instance, ep->num)
 8001af2:	781a      	ldrb	r2, [r3, #0]
 8001af4:	0092      	lsls	r2, r2, #2
 8001af6:	6801      	ldr	r1, [r0, #0]
 8001af8:	468c      	mov	ip, r1
 8001afa:	4462      	add	r2, ip
 8001afc:	8811      	ldrh	r1, [r2, #0]
 8001afe:	064c      	lsls	r4, r1, #25
 8001b00:	d504      	bpl.n	8001b0c <HAL_PCD_EP_Close+0x170>
 8001b02:	4c14      	ldr	r4, [pc, #80]	; (8001b54 <HAL_PCD_EP_Close+0x1b8>)
 8001b04:	4021      	ands	r1, r4
 8001b06:	4c14      	ldr	r4, [pc, #80]	; (8001b58 <HAL_PCD_EP_Close+0x1bc>)
 8001b08:	4321      	orrs	r1, r4
 8001b0a:	8011      	strh	r1, [r2, #0]
      PCD_RX_DTOG(hpcd->Instance, ep->num);
 8001b0c:	781a      	ldrb	r2, [r3, #0]
 8001b0e:	0092      	lsls	r2, r2, #2
 8001b10:	6801      	ldr	r1, [r0, #0]
 8001b12:	468c      	mov	ip, r1
 8001b14:	4462      	add	r2, ip
 8001b16:	8811      	ldrh	r1, [r2, #0]
 8001b18:	4c0e      	ldr	r4, [pc, #56]	; (8001b54 <HAL_PCD_EP_Close+0x1b8>)
 8001b1a:	400c      	ands	r4, r1
 8001b1c:	4911      	ldr	r1, [pc, #68]	; (8001b64 <HAL_PCD_EP_Close+0x1c8>)
 8001b1e:	4321      	orrs	r1, r4
 8001b20:	8011      	strh	r1, [r2, #0]
      PCD_SET_EP_TX_STATUS(hpcd->Instance, ep->num, USB_EP_TX_DIS)
 8001b22:	781c      	ldrb	r4, [r3, #0]
 8001b24:	00a4      	lsls	r4, r4, #2
 8001b26:	6802      	ldr	r2, [r0, #0]
 8001b28:	4694      	mov	ip, r2
 8001b2a:	4464      	add	r4, ip
 8001b2c:	8822      	ldrh	r2, [r4, #0]
 8001b2e:	490b      	ldr	r1, [pc, #44]	; (8001b5c <HAL_PCD_EP_Close+0x1c0>)
 8001b30:	400a      	ands	r2, r1
 8001b32:	490b      	ldr	r1, [pc, #44]	; (8001b60 <HAL_PCD_EP_Close+0x1c4>)
 8001b34:	430a      	orrs	r2, r1
 8001b36:	8022      	strh	r2, [r4, #0]
      PCD_SET_EP_RX_STATUS(hpcd->Instance, ep->num, USB_EP_RX_DIS)
 8001b38:	781b      	ldrb	r3, [r3, #0]
 8001b3a:	009b      	lsls	r3, r3, #2
 8001b3c:	6802      	ldr	r2, [r0, #0]
 8001b3e:	4694      	mov	ip, r2
 8001b40:	4463      	add	r3, ip
 8001b42:	881a      	ldrh	r2, [r3, #0]
 8001b44:	4c08      	ldr	r4, [pc, #32]	; (8001b68 <HAL_PCD_EP_Close+0x1cc>)
 8001b46:	4022      	ands	r2, r4
 8001b48:	4311      	orrs	r1, r2
 8001b4a:	8019      	strh	r1, [r3, #0]
 8001b4c:	e75f      	b.n	8001a0e <HAL_PCD_EP_Close+0x72>
  __HAL_LOCK(hpcd); 
 8001b4e:	2002      	movs	r0, #2
 8001b50:	e762      	b.n	8001a18 <HAL_PCD_EP_Close+0x7c>
 8001b52:	46c0      	nop			; (mov r8, r8)
 8001b54:	00000f0f 	.word	0x00000f0f
 8001b58:	ffff80c0 	.word	0xffff80c0
 8001b5c:	ffff8fbf 	.word	0xffff8fbf
 8001b60:	ffff8080 	.word	0xffff8080
 8001b64:	ffffc080 	.word	0xffffc080
 8001b68:	ffffbf8f 	.word	0xffffbf8f

08001b6c <HAL_PCD_EP_Receive>:
  * @param  pBuf pointer to the reception buffer   
  * @param  len amount of data to be received
  * @retval HAL status
  */
HAL_StatusTypeDef HAL_PCD_EP_Receive(PCD_HandleTypeDef *hpcd, uint8_t ep_addr, uint8_t *pBuf, uint32_t len)
{
 8001b6c:	b570      	push	{r4, r5, r6, lr}
 8001b6e:	247f      	movs	r4, #127	; 0x7f
 8001b70:	4021      	ands	r1, r4
 PCD_EPTypeDef *ep;
  
  ep = &hpcd->OUT_ep[ep_addr & 0x7FU];
  
  /*setup and start the Xfer */
  ep->xfer_buff = pBuf;  
 8001b72:	00cd      	lsls	r5, r1, #3
 8001b74:	1a6d      	subs	r5, r5, r1
 8001b76:	00ac      	lsls	r4, r5, #2
 8001b78:	1904      	adds	r4, r0, r4
 8001b7a:	0025      	movs	r5, r4
 8001b7c:	3519      	adds	r5, #25
 8001b7e:	35ff      	adds	r5, #255	; 0xff
 8001b80:	602a      	str	r2, [r5, #0]
  ep->xfer_len = len;
 8001b82:	0022      	movs	r2, r4
 8001b84:	321d      	adds	r2, #29
 8001b86:	32ff      	adds	r2, #255	; 0xff
 8001b88:	6013      	str	r3, [r2, #0]
  ep->xfer_count = 0U;
 8001b8a:	3508      	adds	r5, #8
 8001b8c:	2200      	movs	r2, #0
 8001b8e:	602a      	str	r2, [r5, #0]
  ep->is_in = 0U;
 8001b90:	3d17      	subs	r5, #23
 8001b92:	702a      	strb	r2, [r5, #0]
  ep->num = ep_addr & 0x7FU;
 8001b94:	0022      	movs	r2, r4
 8001b96:	3209      	adds	r2, #9
 8001b98:	32ff      	adds	r2, #255	; 0xff
 8001b9a:	7011      	strb	r1, [r2, #0]
   
  /* Multi packet transfer*/
  if (ep->xfer_len > ep->maxpacket)
 8001b9c:	3415      	adds	r4, #21
 8001b9e:	34ff      	adds	r4, #255	; 0xff
 8001ba0:	6822      	ldr	r2, [r4, #0]
 8001ba2:	4293      	cmp	r3, r2
 8001ba4:	d940      	bls.n	8001c28 <HAL_PCD_EP_Receive+0xbc>
  {
    len=ep->maxpacket;
    ep->xfer_len-=len; 
 8001ba6:	00cd      	lsls	r5, r1, #3
 8001ba8:	1a6d      	subs	r5, r5, r1
 8001baa:	00ac      	lsls	r4, r5, #2
 8001bac:	1904      	adds	r4, r0, r4
 8001bae:	341d      	adds	r4, #29
 8001bb0:	34ff      	adds	r4, #255	; 0xff
 8001bb2:	1a9b      	subs	r3, r3, r2
 8001bb4:	6023      	str	r3, [r4, #0]
    len=ep->xfer_len;
    ep->xfer_len =0U;
  }
  
  /* configure and validate Rx endpoint */
  if (ep->doublebuffer == 0) 
 8001bb6:	00cc      	lsls	r4, r1, #3
 8001bb8:	1a64      	subs	r4, r4, r1
 8001bba:	00a3      	lsls	r3, r4, #2
 8001bbc:	001c      	movs	r4, r3
 8001bbe:	18c3      	adds	r3, r0, r3
 8001bc0:	3313      	adds	r3, #19
 8001bc2:	33ff      	adds	r3, #255	; 0xff
 8001bc4:	781b      	ldrb	r3, [r3, #0]
 8001bc6:	2b00      	cmp	r3, #0
 8001bc8:	d141      	bne.n	8001c4e <HAL_PCD_EP_Receive+0xe2>
  {
    /*Set RX buffer count*/
    PCD_SET_EP_RX_CNT(hpcd->Instance, ep->num, len)
 8001bca:	6805      	ldr	r5, [r0, #0]
 8001bcc:	3350      	adds	r3, #80	; 0x50
 8001bce:	5aeb      	ldrh	r3, [r5, r3]
 8001bd0:	1904      	adds	r4, r0, r4
 8001bd2:	3409      	adds	r4, #9
 8001bd4:	34ff      	adds	r4, #255	; 0xff
 8001bd6:	7824      	ldrb	r4, [r4, #0]
 8001bd8:	00e4      	lsls	r4, r4, #3
 8001bda:	191b      	adds	r3, r3, r4
 8001bdc:	195b      	adds	r3, r3, r5
 8001bde:	4c5e      	ldr	r4, [pc, #376]	; (8001d58 <HAL_PCD_EP_Receive+0x1ec>)
 8001be0:	46a4      	mov	ip, r4
 8001be2:	4463      	add	r3, ip
 8001be4:	2a3e      	cmp	r2, #62	; 0x3e
 8001be6:	d929      	bls.n	8001c3c <HAL_PCD_EP_Receive+0xd0>
 8001be8:	0954      	lsrs	r4, r2, #5
 8001bea:	b2a4      	uxth	r4, r4
 8001bec:	06d2      	lsls	r2, r2, #27
 8001bee:	d101      	bne.n	8001bf4 <HAL_PCD_EP_Receive+0x88>
 8001bf0:	3c01      	subs	r4, #1
 8001bf2:	b2a4      	uxth	r4, r4
 8001bf4:	02a4      	lsls	r4, r4, #10
 8001bf6:	b2a4      	uxth	r4, r4
 8001bf8:	4a58      	ldr	r2, [pc, #352]	; (8001d5c <HAL_PCD_EP_Receive+0x1f0>)
 8001bfa:	4314      	orrs	r4, r2
 8001bfc:	801c      	strh	r4, [r3, #0]
  {
    /*Set the Double buffer counter*/
    PCD_SET_EP_DBUF_CNT(hpcd->Instance, ep->num, ep->is_in, len)
  } 
  
  PCD_SET_EP_RX_STATUS(hpcd->Instance, ep->num, USB_EP_RX_VALID)
 8001bfe:	6803      	ldr	r3, [r0, #0]
 8001c00:	00ca      	lsls	r2, r1, #3
 8001c02:	1a51      	subs	r1, r2, r1
 8001c04:	008a      	lsls	r2, r1, #2
 8001c06:	1880      	adds	r0, r0, r2
 8001c08:	3009      	adds	r0, #9
 8001c0a:	30ff      	adds	r0, #255	; 0xff
 8001c0c:	7802      	ldrb	r2, [r0, #0]
 8001c0e:	0092      	lsls	r2, r2, #2
 8001c10:	189b      	adds	r3, r3, r2
 8001c12:	8819      	ldrh	r1, [r3, #0]
 8001c14:	4a52      	ldr	r2, [pc, #328]	; (8001d60 <HAL_PCD_EP_Receive+0x1f4>)
 8001c16:	4011      	ands	r1, r2
 8001c18:	22c0      	movs	r2, #192	; 0xc0
 8001c1a:	0192      	lsls	r2, r2, #6
 8001c1c:	4051      	eors	r1, r2
 8001c1e:	4a51      	ldr	r2, [pc, #324]	; (8001d64 <HAL_PCD_EP_Receive+0x1f8>)
 8001c20:	430a      	orrs	r2, r1
 8001c22:	801a      	strh	r2, [r3, #0]
  
  return HAL_OK;
}
 8001c24:	2000      	movs	r0, #0
 8001c26:	bd70      	pop	{r4, r5, r6, pc}
    ep->xfer_len =0U;
 8001c28:	00cc      	lsls	r4, r1, #3
 8001c2a:	1a64      	subs	r4, r4, r1
 8001c2c:	00a2      	lsls	r2, r4, #2
 8001c2e:	1882      	adds	r2, r0, r2
 8001c30:	321d      	adds	r2, #29
 8001c32:	32ff      	adds	r2, #255	; 0xff
 8001c34:	2400      	movs	r4, #0
 8001c36:	6014      	str	r4, [r2, #0]
    len=ep->xfer_len;
 8001c38:	001a      	movs	r2, r3
 8001c3a:	e7bc      	b.n	8001bb6 <HAL_PCD_EP_Receive+0x4a>
    PCD_SET_EP_RX_CNT(hpcd->Instance, ep->num, len)
 8001c3c:	0854      	lsrs	r4, r2, #1
 8001c3e:	b2a4      	uxth	r4, r4
 8001c40:	07d2      	lsls	r2, r2, #31
 8001c42:	d501      	bpl.n	8001c48 <HAL_PCD_EP_Receive+0xdc>
 8001c44:	3401      	adds	r4, #1
 8001c46:	b2a4      	uxth	r4, r4
 8001c48:	02a4      	lsls	r4, r4, #10
 8001c4a:	801c      	strh	r4, [r3, #0]
 8001c4c:	e7d7      	b.n	8001bfe <HAL_PCD_EP_Receive+0x92>
    PCD_SET_EP_DBUF_CNT(hpcd->Instance, ep->num, ep->is_in, len)
 8001c4e:	00cc      	lsls	r4, r1, #3
 8001c50:	1a64      	subs	r4, r4, r1
 8001c52:	00a3      	lsls	r3, r4, #2
 8001c54:	001c      	movs	r4, r3
 8001c56:	18c3      	adds	r3, r0, r3
 8001c58:	330a      	adds	r3, #10
 8001c5a:	33ff      	adds	r3, #255	; 0xff
 8001c5c:	781b      	ldrb	r3, [r3, #0]
 8001c5e:	2b00      	cmp	r3, #0
 8001c60:	d123      	bne.n	8001caa <HAL_PCD_EP_Receive+0x13e>
 8001c62:	6805      	ldr	r5, [r0, #0]
 8001c64:	3350      	adds	r3, #80	; 0x50
 8001c66:	5aeb      	ldrh	r3, [r5, r3]
 8001c68:	1904      	adds	r4, r0, r4
 8001c6a:	3409      	adds	r4, #9
 8001c6c:	34ff      	adds	r4, #255	; 0xff
 8001c6e:	7824      	ldrb	r4, [r4, #0]
 8001c70:	00e4      	lsls	r4, r4, #3
 8001c72:	191b      	adds	r3, r3, r4
 8001c74:	195b      	adds	r3, r3, r5
 8001c76:	4c3c      	ldr	r4, [pc, #240]	; (8001d68 <HAL_PCD_EP_Receive+0x1fc>)
 8001c78:	46a4      	mov	ip, r4
 8001c7a:	4463      	add	r3, ip
 8001c7c:	2a3e      	cmp	r2, #62	; 0x3e
 8001c7e:	d90b      	bls.n	8001c98 <HAL_PCD_EP_Receive+0x12c>
 8001c80:	0954      	lsrs	r4, r2, #5
 8001c82:	b2a4      	uxth	r4, r4
 8001c84:	06d5      	lsls	r5, r2, #27
 8001c86:	d101      	bne.n	8001c8c <HAL_PCD_EP_Receive+0x120>
 8001c88:	3c01      	subs	r4, #1
 8001c8a:	b2a4      	uxth	r4, r4
 8001c8c:	02a4      	lsls	r4, r4, #10
 8001c8e:	b2a4      	uxth	r4, r4
 8001c90:	4d32      	ldr	r5, [pc, #200]	; (8001d5c <HAL_PCD_EP_Receive+0x1f0>)
 8001c92:	432c      	orrs	r4, r5
 8001c94:	801c      	strh	r4, [r3, #0]
 8001c96:	e00a      	b.n	8001cae <HAL_PCD_EP_Receive+0x142>
 8001c98:	0854      	lsrs	r4, r2, #1
 8001c9a:	b2a4      	uxth	r4, r4
 8001c9c:	07d5      	lsls	r5, r2, #31
 8001c9e:	d501      	bpl.n	8001ca4 <HAL_PCD_EP_Receive+0x138>
 8001ca0:	3401      	adds	r4, #1
 8001ca2:	b2a4      	uxth	r4, r4
 8001ca4:	02a4      	lsls	r4, r4, #10
 8001ca6:	801c      	strh	r4, [r3, #0]
 8001ca8:	e001      	b.n	8001cae <HAL_PCD_EP_Receive+0x142>
 8001caa:	2b01      	cmp	r3, #1
 8001cac:	d024      	beq.n	8001cf8 <HAL_PCD_EP_Receive+0x18c>
 8001cae:	00cc      	lsls	r4, r1, #3
 8001cb0:	1a64      	subs	r4, r4, r1
 8001cb2:	00a3      	lsls	r3, r4, #2
 8001cb4:	001c      	movs	r4, r3
 8001cb6:	18c3      	adds	r3, r0, r3
 8001cb8:	330a      	adds	r3, #10
 8001cba:	33ff      	adds	r3, #255	; 0xff
 8001cbc:	781b      	ldrb	r3, [r3, #0]
 8001cbe:	2b00      	cmp	r3, #0
 8001cc0:	d135      	bne.n	8001d2e <HAL_PCD_EP_Receive+0x1c2>
 8001cc2:	6805      	ldr	r5, [r0, #0]
 8001cc4:	3350      	adds	r3, #80	; 0x50
 8001cc6:	5aeb      	ldrh	r3, [r5, r3]
 8001cc8:	1904      	adds	r4, r0, r4
 8001cca:	3409      	adds	r4, #9
 8001ccc:	34ff      	adds	r4, #255	; 0xff
 8001cce:	7824      	ldrb	r4, [r4, #0]
 8001cd0:	00e4      	lsls	r4, r4, #3
 8001cd2:	191b      	adds	r3, r3, r4
 8001cd4:	195b      	adds	r3, r3, r5
 8001cd6:	4c20      	ldr	r4, [pc, #128]	; (8001d58 <HAL_PCD_EP_Receive+0x1ec>)
 8001cd8:	46a4      	mov	ip, r4
 8001cda:	4463      	add	r3, ip
 8001cdc:	2a3e      	cmp	r2, #62	; 0x3e
 8001cde:	d91d      	bls.n	8001d1c <HAL_PCD_EP_Receive+0x1b0>
 8001ce0:	0954      	lsrs	r4, r2, #5
 8001ce2:	b2a4      	uxth	r4, r4
 8001ce4:	06d2      	lsls	r2, r2, #27
 8001ce6:	d101      	bne.n	8001cec <HAL_PCD_EP_Receive+0x180>
 8001ce8:	3c01      	subs	r4, #1
 8001cea:	b2a4      	uxth	r4, r4
 8001cec:	02a4      	lsls	r4, r4, #10
 8001cee:	b2a4      	uxth	r4, r4
 8001cf0:	4a1a      	ldr	r2, [pc, #104]	; (8001d5c <HAL_PCD_EP_Receive+0x1f0>)
 8001cf2:	4314      	orrs	r4, r2
 8001cf4:	801c      	strh	r4, [r3, #0]
 8001cf6:	e782      	b.n	8001bfe <HAL_PCD_EP_Receive+0x92>
 8001cf8:	6805      	ldr	r5, [r0, #0]
 8001cfa:	334f      	adds	r3, #79	; 0x4f
 8001cfc:	5aeb      	ldrh	r3, [r5, r3]
 8001cfe:	00ce      	lsls	r6, r1, #3
 8001d00:	1a76      	subs	r6, r6, r1
 8001d02:	00b4      	lsls	r4, r6, #2
 8001d04:	1904      	adds	r4, r0, r4
 8001d06:	3409      	adds	r4, #9
 8001d08:	34ff      	adds	r4, #255	; 0xff
 8001d0a:	7824      	ldrb	r4, [r4, #0]
 8001d0c:	00e4      	lsls	r4, r4, #3
 8001d0e:	191b      	adds	r3, r3, r4
 8001d10:	195b      	adds	r3, r3, r5
 8001d12:	4c15      	ldr	r4, [pc, #84]	; (8001d68 <HAL_PCD_EP_Receive+0x1fc>)
 8001d14:	46a4      	mov	ip, r4
 8001d16:	4463      	add	r3, ip
 8001d18:	801a      	strh	r2, [r3, #0]
 8001d1a:	e7c8      	b.n	8001cae <HAL_PCD_EP_Receive+0x142>
 8001d1c:	0854      	lsrs	r4, r2, #1
 8001d1e:	b2a4      	uxth	r4, r4
 8001d20:	07d2      	lsls	r2, r2, #31
 8001d22:	d501      	bpl.n	8001d28 <HAL_PCD_EP_Receive+0x1bc>
 8001d24:	3401      	adds	r4, #1
 8001d26:	b2a4      	uxth	r4, r4
 8001d28:	02a4      	lsls	r4, r4, #10
 8001d2a:	801c      	strh	r4, [r3, #0]
 8001d2c:	e767      	b.n	8001bfe <HAL_PCD_EP_Receive+0x92>
 8001d2e:	2b01      	cmp	r3, #1
 8001d30:	d000      	beq.n	8001d34 <HAL_PCD_EP_Receive+0x1c8>
 8001d32:	e764      	b.n	8001bfe <HAL_PCD_EP_Receive+0x92>
 8001d34:	6805      	ldr	r5, [r0, #0]
 8001d36:	334f      	adds	r3, #79	; 0x4f
 8001d38:	5aeb      	ldrh	r3, [r5, r3]
 8001d3a:	00ce      	lsls	r6, r1, #3
 8001d3c:	1a76      	subs	r6, r6, r1
 8001d3e:	00b4      	lsls	r4, r6, #2
 8001d40:	1904      	adds	r4, r0, r4
 8001d42:	3409      	adds	r4, #9
 8001d44:	34ff      	adds	r4, #255	; 0xff
 8001d46:	7824      	ldrb	r4, [r4, #0]
 8001d48:	00e4      	lsls	r4, r4, #3
 8001d4a:	191b      	adds	r3, r3, r4
 8001d4c:	195b      	adds	r3, r3, r5
 8001d4e:	4c02      	ldr	r4, [pc, #8]	; (8001d58 <HAL_PCD_EP_Receive+0x1ec>)
 8001d50:	46a4      	mov	ip, r4
 8001d52:	4463      	add	r3, ip
 8001d54:	801a      	strh	r2, [r3, #0]
 8001d56:	e752      	b.n	8001bfe <HAL_PCD_EP_Receive+0x92>
 8001d58:	00000406 	.word	0x00000406
 8001d5c:	ffff8000 	.word	0xffff8000
 8001d60:	ffffbf8f 	.word	0xffffbf8f
 8001d64:	ffff8080 	.word	0xffff8080
 8001d68:	00000402 	.word	0x00000402

08001d6c <HAL_PCD_EP_GetRxCount>:
  * @param  ep_addr endpoint address
  * @retval Data Size
  */
uint16_t HAL_PCD_EP_GetRxCount(PCD_HandleTypeDef *hpcd, uint8_t ep_addr)
{
  return hpcd->OUT_ep[ep_addr & 0x7FU].xfer_count;
 8001d6c:	237f      	movs	r3, #127	; 0x7f
 8001d6e:	4019      	ands	r1, r3
 8001d70:	00cb      	lsls	r3, r1, #3
 8001d72:	1a59      	subs	r1, r3, r1
 8001d74:	008b      	lsls	r3, r1, #2
 8001d76:	18c0      	adds	r0, r0, r3
 8001d78:	3021      	adds	r0, #33	; 0x21
 8001d7a:	30ff      	adds	r0, #255	; 0xff
 8001d7c:	8800      	ldrh	r0, [r0, #0]
}
 8001d7e:	4770      	bx	lr

08001d80 <HAL_PCD_EP_SetStall>:
  * @param  hpcd PCD handle
  * @param  ep_addr endpoint address
  * @retval HAL status
  */
HAL_StatusTypeDef HAL_PCD_EP_SetStall(PCD_HandleTypeDef *hpcd, uint8_t ep_addr)
{
 8001d80:	b510      	push	{r4, lr}
  PCD_EPTypeDef *ep;
   
  __HAL_LOCK(hpcd); 
 8001d82:	23f4      	movs	r3, #244	; 0xf4
 8001d84:	005b      	lsls	r3, r3, #1
 8001d86:	5cc3      	ldrb	r3, [r0, r3]
 8001d88:	2b01      	cmp	r3, #1
 8001d8a:	d04e      	beq.n	8001e2a <HAL_PCD_EP_SetStall+0xaa>
 8001d8c:	2201      	movs	r2, #1
 8001d8e:	23f4      	movs	r3, #244	; 0xf4
 8001d90:	005b      	lsls	r3, r3, #1
 8001d92:	54c2      	strb	r2, [r0, r3]
   
  if ((0x80U & ep_addr) == 0x80U)
 8001d94:	b24c      	sxtb	r4, r1
 8001d96:	2c00      	cmp	r4, #0
 8001d98:	db20      	blt.n	8001ddc <HAL_PCD_EP_SetStall+0x5c>
  {
    ep = &hpcd->IN_ep[ep_addr & 0x7FU];
  }
  else
  {
    ep = &hpcd->OUT_ep[ep_addr];
 8001d9a:	00ca      	lsls	r2, r1, #3
 8001d9c:	1a52      	subs	r2, r2, r1
 8001d9e:	0093      	lsls	r3, r2, #2
 8001da0:	3309      	adds	r3, #9
 8001da2:	33ff      	adds	r3, #255	; 0xff
 8001da4:	18c3      	adds	r3, r0, r3
  }
  
  ep->is_stall = 1;
 8001da6:	2201      	movs	r2, #1
 8001da8:	709a      	strb	r2, [r3, #2]
  ep->num   = ep_addr & 0x7FU;
 8001daa:	327e      	adds	r2, #126	; 0x7e
 8001dac:	4011      	ands	r1, r2
 8001dae:	7019      	strb	r1, [r3, #0]
  ep->is_in = ((ep_addr & 0x80U) == 0x80U);
 8001db0:	0fe4      	lsrs	r4, r4, #31
 8001db2:	705c      	strb	r4, [r3, #1]
  
  if (ep->num == 0U)
 8001db4:	2900      	cmp	r1, #0
 8001db6:	d11a      	bne.n	8001dee <HAL_PCD_EP_SetStall+0x6e>
  {
    /* This macro sets STALL status for RX & TX*/ 
    PCD_SET_EP_TXRX_STATUS(hpcd->Instance, ep->num, USB_EP_RX_STALL, USB_EP_TX_STALL)
 8001db8:	0089      	lsls	r1, r1, #2
 8001dba:	6803      	ldr	r3, [r0, #0]
 8001dbc:	469c      	mov	ip, r3
 8001dbe:	4461      	add	r1, ip
 8001dc0:	880a      	ldrh	r2, [r1, #0]
 8001dc2:	4b1b      	ldr	r3, [pc, #108]	; (8001e30 <HAL_PCD_EP_SetStall+0xb0>)
 8001dc4:	401a      	ands	r2, r3
 8001dc6:	4b1b      	ldr	r3, [pc, #108]	; (8001e34 <HAL_PCD_EP_SetStall+0xb4>)
 8001dc8:	405a      	eors	r2, r3
 8001dca:	4b1b      	ldr	r3, [pc, #108]	; (8001e38 <HAL_PCD_EP_SetStall+0xb8>)
 8001dcc:	4313      	orrs	r3, r2
 8001dce:	800b      	strh	r3, [r1, #0]
    else
    {
      PCD_SET_EP_RX_STATUS(hpcd->Instance, ep->num , USB_EP_RX_STALL)
    }
  }
  __HAL_UNLOCK(hpcd); 
 8001dd0:	2200      	movs	r2, #0
 8001dd2:	23f4      	movs	r3, #244	; 0xf4
 8001dd4:	005b      	lsls	r3, r3, #1
 8001dd6:	54c2      	strb	r2, [r0, r3]
  
  return HAL_OK;
 8001dd8:	2000      	movs	r0, #0
}
 8001dda:	bd10      	pop	{r4, pc}
    ep = &hpcd->IN_ep[ep_addr & 0x7FU];
 8001ddc:	3b6a      	subs	r3, #106	; 0x6a
 8001dde:	3bff      	subs	r3, #255	; 0xff
 8001de0:	400b      	ands	r3, r1
 8001de2:	00da      	lsls	r2, r3, #3
 8001de4:	1ad2      	subs	r2, r2, r3
 8001de6:	0093      	lsls	r3, r2, #2
 8001de8:	3328      	adds	r3, #40	; 0x28
 8001dea:	18c3      	adds	r3, r0, r3
 8001dec:	e7db      	b.n	8001da6 <HAL_PCD_EP_SetStall+0x26>
    if (ep->is_in)
 8001dee:	2c00      	cmp	r4, #0
 8001df0:	d00d      	beq.n	8001e0e <HAL_PCD_EP_SetStall+0x8e>
      PCD_SET_EP_TX_STATUS(hpcd->Instance, ep->num , USB_EP_TX_STALL)
 8001df2:	0089      	lsls	r1, r1, #2
 8001df4:	6803      	ldr	r3, [r0, #0]
 8001df6:	469c      	mov	ip, r3
 8001df8:	4461      	add	r1, ip
 8001dfa:	880b      	ldrh	r3, [r1, #0]
 8001dfc:	4a0f      	ldr	r2, [pc, #60]	; (8001e3c <HAL_PCD_EP_SetStall+0xbc>)
 8001dfe:	4013      	ands	r3, r2
 8001e00:	2210      	movs	r2, #16
 8001e02:	4053      	eors	r3, r2
 8001e04:	b29b      	uxth	r3, r3
 8001e06:	4a0c      	ldr	r2, [pc, #48]	; (8001e38 <HAL_PCD_EP_SetStall+0xb8>)
 8001e08:	4313      	orrs	r3, r2
 8001e0a:	800b      	strh	r3, [r1, #0]
 8001e0c:	e7e0      	b.n	8001dd0 <HAL_PCD_EP_SetStall+0x50>
      PCD_SET_EP_RX_STATUS(hpcd->Instance, ep->num , USB_EP_RX_STALL)
 8001e0e:	0089      	lsls	r1, r1, #2
 8001e10:	6803      	ldr	r3, [r0, #0]
 8001e12:	469c      	mov	ip, r3
 8001e14:	4461      	add	r1, ip
 8001e16:	880a      	ldrh	r2, [r1, #0]
 8001e18:	4b09      	ldr	r3, [pc, #36]	; (8001e40 <HAL_PCD_EP_SetStall+0xc0>)
 8001e1a:	401a      	ands	r2, r3
 8001e1c:	2380      	movs	r3, #128	; 0x80
 8001e1e:	015b      	lsls	r3, r3, #5
 8001e20:	405a      	eors	r2, r3
 8001e22:	4b05      	ldr	r3, [pc, #20]	; (8001e38 <HAL_PCD_EP_SetStall+0xb8>)
 8001e24:	4313      	orrs	r3, r2
 8001e26:	800b      	strh	r3, [r1, #0]
 8001e28:	e7d2      	b.n	8001dd0 <HAL_PCD_EP_SetStall+0x50>
  __HAL_LOCK(hpcd); 
 8001e2a:	2002      	movs	r0, #2
 8001e2c:	e7d5      	b.n	8001dda <HAL_PCD_EP_SetStall+0x5a>
 8001e2e:	46c0      	nop			; (mov r8, r8)
 8001e30:	ffffbfbf 	.word	0xffffbfbf
 8001e34:	00001010 	.word	0x00001010
 8001e38:	ffff8080 	.word	0xffff8080
 8001e3c:	ffff8fbf 	.word	0xffff8fbf
 8001e40:	ffffbf8f 	.word	0xffffbf8f

08001e44 <HAL_PCD_EP_ClrStall>:
  * @param  hpcd PCD handle
  * @param  ep_addr endpoint address
  * @retval HAL status
  */
HAL_StatusTypeDef HAL_PCD_EP_ClrStall(PCD_HandleTypeDef *hpcd, uint8_t ep_addr)
{
 8001e44:	b510      	push	{r4, lr}
  PCD_EPTypeDef *ep;
  
  if ((0x80U & ep_addr) == 0x80U)
 8001e46:	b24a      	sxtb	r2, r1
 8001e48:	2a00      	cmp	r2, #0
 8001e4a:	db39      	blt.n	8001ec0 <HAL_PCD_EP_ClrStall+0x7c>
  {
    ep = &hpcd->IN_ep[ep_addr & 0x7FU];
  }
  else
  {
    ep = &hpcd->OUT_ep[ep_addr];
 8001e4c:	00cc      	lsls	r4, r1, #3
 8001e4e:	1a64      	subs	r4, r4, r1
 8001e50:	00a3      	lsls	r3, r4, #2
 8001e52:	3309      	adds	r3, #9
 8001e54:	33ff      	adds	r3, #255	; 0xff
 8001e56:	18c3      	adds	r3, r0, r3
  }
  
  ep->is_stall = 0U;
 8001e58:	2400      	movs	r4, #0
 8001e5a:	709c      	strb	r4, [r3, #2]
  ep->num   = ep_addr & 0x7FU;
 8001e5c:	347f      	adds	r4, #127	; 0x7f
 8001e5e:	4021      	ands	r1, r4
 8001e60:	7019      	strb	r1, [r3, #0]
  ep->is_in = ((ep_addr & 0x80U) == 0x80U);
 8001e62:	0fd2      	lsrs	r2, r2, #31
 8001e64:	705a      	strb	r2, [r3, #1]
  
  __HAL_LOCK(hpcd); 
 8001e66:	22f4      	movs	r2, #244	; 0xf4
 8001e68:	0052      	lsls	r2, r2, #1
 8001e6a:	5c82      	ldrb	r2, [r0, r2]
 8001e6c:	2a01      	cmp	r2, #1
 8001e6e:	d04b      	beq.n	8001f08 <HAL_PCD_EP_ClrStall+0xc4>
 8001e70:	2101      	movs	r1, #1
 8001e72:	22f4      	movs	r2, #244	; 0xf4
 8001e74:	0052      	lsls	r2, r2, #1
 8001e76:	5481      	strb	r1, [r0, r2]
  
  if (ep->is_in)
 8001e78:	785a      	ldrb	r2, [r3, #1]
 8001e7a:	2a00      	cmp	r2, #0
 8001e7c:	d028      	beq.n	8001ed0 <HAL_PCD_EP_ClrStall+0x8c>
  {
    PCD_CLEAR_TX_DTOG(hpcd->Instance, ep->num)
 8001e7e:	781a      	ldrb	r2, [r3, #0]
 8001e80:	0092      	lsls	r2, r2, #2
 8001e82:	6801      	ldr	r1, [r0, #0]
 8001e84:	468c      	mov	ip, r1
 8001e86:	4462      	add	r2, ip
 8001e88:	8811      	ldrh	r1, [r2, #0]
 8001e8a:	064c      	lsls	r4, r1, #25
 8001e8c:	d504      	bpl.n	8001e98 <HAL_PCD_EP_ClrStall+0x54>
 8001e8e:	4c1f      	ldr	r4, [pc, #124]	; (8001f0c <HAL_PCD_EP_ClrStall+0xc8>)
 8001e90:	4021      	ands	r1, r4
 8001e92:	4c1f      	ldr	r4, [pc, #124]	; (8001f10 <HAL_PCD_EP_ClrStall+0xcc>)
 8001e94:	4321      	orrs	r1, r4
 8001e96:	8011      	strh	r1, [r2, #0]
    PCD_SET_EP_TX_STATUS(hpcd->Instance, ep->num, USB_EP_TX_VALID)
 8001e98:	781a      	ldrb	r2, [r3, #0]
 8001e9a:	0092      	lsls	r2, r2, #2
 8001e9c:	6803      	ldr	r3, [r0, #0]
 8001e9e:	469c      	mov	ip, r3
 8001ea0:	4462      	add	r2, ip
 8001ea2:	8813      	ldrh	r3, [r2, #0]
 8001ea4:	491b      	ldr	r1, [pc, #108]	; (8001f14 <HAL_PCD_EP_ClrStall+0xd0>)
 8001ea6:	400b      	ands	r3, r1
 8001ea8:	2130      	movs	r1, #48	; 0x30
 8001eaa:	404b      	eors	r3, r1
 8001eac:	b29b      	uxth	r3, r3
 8001eae:	491a      	ldr	r1, [pc, #104]	; (8001f18 <HAL_PCD_EP_ClrStall+0xd4>)
 8001eb0:	430b      	orrs	r3, r1
 8001eb2:	8013      	strh	r3, [r2, #0]
  else
  {
    PCD_CLEAR_RX_DTOG(hpcd->Instance, ep->num)
    PCD_SET_EP_RX_STATUS(hpcd->Instance, ep->num, USB_EP_RX_VALID)
  }
  __HAL_UNLOCK(hpcd); 
 8001eb4:	2200      	movs	r2, #0
 8001eb6:	23f4      	movs	r3, #244	; 0xf4
 8001eb8:	005b      	lsls	r3, r3, #1
 8001eba:	54c2      	strb	r2, [r0, r3]
    
  return HAL_OK;
 8001ebc:	2000      	movs	r0, #0
}
 8001ebe:	bd10      	pop	{r4, pc}
    ep = &hpcd->IN_ep[ep_addr & 0x7FU];
 8001ec0:	237f      	movs	r3, #127	; 0x7f
 8001ec2:	400b      	ands	r3, r1
 8001ec4:	00dc      	lsls	r4, r3, #3
 8001ec6:	1ae4      	subs	r4, r4, r3
 8001ec8:	00a3      	lsls	r3, r4, #2
 8001eca:	3328      	adds	r3, #40	; 0x28
 8001ecc:	18c3      	adds	r3, r0, r3
 8001ece:	e7c3      	b.n	8001e58 <HAL_PCD_EP_ClrStall+0x14>
    PCD_CLEAR_RX_DTOG(hpcd->Instance, ep->num)
 8001ed0:	781a      	ldrb	r2, [r3, #0]
 8001ed2:	0092      	lsls	r2, r2, #2
 8001ed4:	6801      	ldr	r1, [r0, #0]
 8001ed6:	468c      	mov	ip, r1
 8001ed8:	4462      	add	r2, ip
 8001eda:	8811      	ldrh	r1, [r2, #0]
 8001edc:	044c      	lsls	r4, r1, #17
 8001ede:	d504      	bpl.n	8001eea <HAL_PCD_EP_ClrStall+0xa6>
 8001ee0:	4c0a      	ldr	r4, [pc, #40]	; (8001f0c <HAL_PCD_EP_ClrStall+0xc8>)
 8001ee2:	4021      	ands	r1, r4
 8001ee4:	4c0d      	ldr	r4, [pc, #52]	; (8001f1c <HAL_PCD_EP_ClrStall+0xd8>)
 8001ee6:	4321      	orrs	r1, r4
 8001ee8:	8011      	strh	r1, [r2, #0]
    PCD_SET_EP_RX_STATUS(hpcd->Instance, ep->num, USB_EP_RX_VALID)
 8001eea:	781b      	ldrb	r3, [r3, #0]
 8001eec:	009b      	lsls	r3, r3, #2
 8001eee:	6802      	ldr	r2, [r0, #0]
 8001ef0:	4694      	mov	ip, r2
 8001ef2:	4463      	add	r3, ip
 8001ef4:	8819      	ldrh	r1, [r3, #0]
 8001ef6:	4a0a      	ldr	r2, [pc, #40]	; (8001f20 <HAL_PCD_EP_ClrStall+0xdc>)
 8001ef8:	4011      	ands	r1, r2
 8001efa:	22c0      	movs	r2, #192	; 0xc0
 8001efc:	0192      	lsls	r2, r2, #6
 8001efe:	4051      	eors	r1, r2
 8001f00:	4a05      	ldr	r2, [pc, #20]	; (8001f18 <HAL_PCD_EP_ClrStall+0xd4>)
 8001f02:	430a      	orrs	r2, r1
 8001f04:	801a      	strh	r2, [r3, #0]
 8001f06:	e7d5      	b.n	8001eb4 <HAL_PCD_EP_ClrStall+0x70>
  __HAL_LOCK(hpcd); 
 8001f08:	2002      	movs	r0, #2
 8001f0a:	e7d8      	b.n	8001ebe <HAL_PCD_EP_ClrStall+0x7a>
 8001f0c:	00000f0f 	.word	0x00000f0f
 8001f10:	ffff80c0 	.word	0xffff80c0
 8001f14:	ffff8fbf 	.word	0xffff8fbf
 8001f18:	ffff8080 	.word	0xffff8080
 8001f1c:	ffffc080 	.word	0xffffc080
 8001f20:	ffffbf8f 	.word	0xffffbf8f

08001f24 <PCD_WritePMA>:
  * @param   wPMABufAddr address into PMA.
  * @param   wNBytes no. of bytes to be copied.
  * @retval None
  */
void PCD_WritePMA(USB_TypeDef  *USBx, uint8_t *pbUsrBuf, uint16_t wPMABufAddr, uint16_t wNBytes)
{
 8001f24:	b510      	push	{r4, lr}
  uint32_t n =  ((uint32_t)((uint32_t)wNBytes + 1U)) >> 1U;
 8001f26:	3301      	adds	r3, #1
 8001f28:	085b      	lsrs	r3, r3, #1
  uint32_t i;
  uint16_t temp1, temp2;
  uint16_t *pdwVal;
  pdwVal = (uint16_t *)((uint32_t)(wPMABufAddr + (uint32_t)USBx + 0x400U));
 8001f2a:	1812      	adds	r2, r2, r0
 8001f2c:	2080      	movs	r0, #128	; 0x80
 8001f2e:	00c0      	lsls	r0, r0, #3
 8001f30:	1814      	adds	r4, r2, r0
  
  for (i = n; i != 0; i--)
 8001f32:	e007      	b.n	8001f44 <PCD_WritePMA+0x20>
  {
    temp1 = (uint16_t) * pbUsrBuf;
 8001f34:	780a      	ldrb	r2, [r1, #0]
    pbUsrBuf++;
    temp2 = temp1 | ((uint16_t)((uint16_t)  * pbUsrBuf << 8U)) ;
 8001f36:	7848      	ldrb	r0, [r1, #1]
 8001f38:	0200      	lsls	r0, r0, #8
 8001f3a:	4302      	orrs	r2, r0
    *pdwVal++ = temp2;
 8001f3c:	8022      	strh	r2, [r4, #0]
    pbUsrBuf++;
 8001f3e:	3102      	adds	r1, #2
  for (i = n; i != 0; i--)
 8001f40:	3b01      	subs	r3, #1
    *pdwVal++ = temp2;
 8001f42:	3402      	adds	r4, #2
  for (i = n; i != 0; i--)
 8001f44:	2b00      	cmp	r3, #0
 8001f46:	d1f5      	bne.n	8001f34 <PCD_WritePMA+0x10>
  }
}
 8001f48:	bd10      	pop	{r4, pc}
	...

08001f4c <HAL_PCD_EP_Transmit>:
{
 8001f4c:	b5f8      	push	{r3, r4, r5, r6, r7, lr}
 8001f4e:	0005      	movs	r5, r0
 8001f50:	247f      	movs	r4, #127	; 0x7f
 8001f52:	400c      	ands	r4, r1
  ep->xfer_buff = pBuf;  
 8001f54:	00e0      	lsls	r0, r4, #3
 8001f56:	1b00      	subs	r0, r0, r4
 8001f58:	0081      	lsls	r1, r0, #2
 8001f5a:	1869      	adds	r1, r5, r1
 8001f5c:	638a      	str	r2, [r1, #56]	; 0x38
  ep->xfer_len = len;
 8001f5e:	63cb      	str	r3, [r1, #60]	; 0x3c
  ep->xfer_count = 0U;
 8001f60:	2200      	movs	r2, #0
 8001f62:	640a      	str	r2, [r1, #64]	; 0x40
  ep->is_in = 1U;
 8001f64:	000a      	movs	r2, r1
 8001f66:	3229      	adds	r2, #41	; 0x29
 8001f68:	2001      	movs	r0, #1
 8001f6a:	7010      	strb	r0, [r2, #0]
  ep->num = ep_addr & 0x7FU;
 8001f6c:	3a01      	subs	r2, #1
 8001f6e:	7014      	strb	r4, [r2, #0]
  if (ep->xfer_len > ep->maxpacket)
 8001f70:	6b4f      	ldr	r7, [r1, #52]	; 0x34
 8001f72:	42bb      	cmp	r3, r7
 8001f74:	d933      	bls.n	8001fde <HAL_PCD_EP_Transmit+0x92>
    ep->xfer_len-=len; 
 8001f76:	1bdb      	subs	r3, r3, r7
 8001f78:	63cb      	str	r3, [r1, #60]	; 0x3c
  if (ep->doublebuffer == 0U) 
 8001f7a:	00e2      	lsls	r2, r4, #3
 8001f7c:	1b12      	subs	r2, r2, r4
 8001f7e:	0093      	lsls	r3, r2, #2
 8001f80:	001a      	movs	r2, r3
 8001f82:	18eb      	adds	r3, r5, r3
 8001f84:	3332      	adds	r3, #50	; 0x32
 8001f86:	781b      	ldrb	r3, [r3, #0]
 8001f88:	2b00      	cmp	r3, #0
 8001f8a:	d030      	beq.n	8001fee <HAL_PCD_EP_Transmit+0xa2>
    if ((PCD_GET_ENDPOINT(hpcd->Instance, ep->num)& USB_EP_DTOG_TX) == USB_EP_DTOG_TX)
 8001f8c:	6828      	ldr	r0, [r5, #0]
 8001f8e:	00e2      	lsls	r2, r4, #3
 8001f90:	1b12      	subs	r2, r2, r4
 8001f92:	0093      	lsls	r3, r2, #2
 8001f94:	18eb      	adds	r3, r5, r3
 8001f96:	3328      	adds	r3, #40	; 0x28
 8001f98:	781b      	ldrb	r3, [r3, #0]
 8001f9a:	009a      	lsls	r2, r3, #2
 8001f9c:	5a82      	ldrh	r2, [r0, r2]
 8001f9e:	0652      	lsls	r2, r2, #25
 8001fa0:	d574      	bpl.n	800208c <HAL_PCD_EP_Transmit+0x140>
      PCD_SET_EP_DBUF1_CNT(hpcd->Instance, ep->num, ep->is_in, len)
 8001fa2:	00e6      	lsls	r6, r4, #3
 8001fa4:	1b36      	subs	r6, r6, r4
 8001fa6:	00b2      	lsls	r2, r6, #2
 8001fa8:	18aa      	adds	r2, r5, r2
 8001faa:	3229      	adds	r2, #41	; 0x29
 8001fac:	7812      	ldrb	r2, [r2, #0]
 8001fae:	2a00      	cmp	r2, #0
 8001fb0:	d13b      	bne.n	800202a <HAL_PCD_EP_Transmit+0xde>
 8001fb2:	3250      	adds	r2, #80	; 0x50
 8001fb4:	5a82      	ldrh	r2, [r0, r2]
 8001fb6:	00db      	lsls	r3, r3, #3
 8001fb8:	18d3      	adds	r3, r2, r3
 8001fba:	1818      	adds	r0, r3, r0
 8001fbc:	4b62      	ldr	r3, [pc, #392]	; (8002148 <HAL_PCD_EP_Transmit+0x1fc>)
 8001fbe:	469c      	mov	ip, r3
 8001fc0:	4460      	add	r0, ip
 8001fc2:	2f3e      	cmp	r7, #62	; 0x3e
 8001fc4:	d928      	bls.n	8002018 <HAL_PCD_EP_Transmit+0xcc>
 8001fc6:	097b      	lsrs	r3, r7, #5
 8001fc8:	b29b      	uxth	r3, r3
 8001fca:	06fa      	lsls	r2, r7, #27
 8001fcc:	d101      	bne.n	8001fd2 <HAL_PCD_EP_Transmit+0x86>
 8001fce:	3b01      	subs	r3, #1
 8001fd0:	b29b      	uxth	r3, r3
 8001fd2:	029b      	lsls	r3, r3, #10
 8001fd4:	b29b      	uxth	r3, r3
 8001fd6:	4a5d      	ldr	r2, [pc, #372]	; (800214c <HAL_PCD_EP_Transmit+0x200>)
 8001fd8:	4313      	orrs	r3, r2
 8001fda:	8003      	strh	r3, [r0, #0]
 8001fdc:	e027      	b.n	800202e <HAL_PCD_EP_Transmit+0xe2>
    ep->xfer_len =0U;
 8001fde:	00e1      	lsls	r1, r4, #3
 8001fe0:	1b09      	subs	r1, r1, r4
 8001fe2:	008a      	lsls	r2, r1, #2
 8001fe4:	18aa      	adds	r2, r5, r2
 8001fe6:	2100      	movs	r1, #0
 8001fe8:	63d1      	str	r1, [r2, #60]	; 0x3c
    len=ep->xfer_len;
 8001fea:	001f      	movs	r7, r3
 8001fec:	e7c5      	b.n	8001f7a <HAL_PCD_EP_Transmit+0x2e>
    PCD_WritePMA(hpcd->Instance, ep->xfer_buff, ep->pmaadress, len);
 8001fee:	b2bf      	uxth	r7, r7
 8001ff0:	18ae      	adds	r6, r5, r2
 8001ff2:	8db2      	ldrh	r2, [r6, #44]	; 0x2c
 8001ff4:	003b      	movs	r3, r7
 8001ff6:	6bb1      	ldr	r1, [r6, #56]	; 0x38
 8001ff8:	6828      	ldr	r0, [r5, #0]
 8001ffa:	f7ff ff93 	bl	8001f24 <PCD_WritePMA>
    PCD_SET_EP_TX_CNT(hpcd->Instance, ep->num, len);
 8001ffe:	682a      	ldr	r2, [r5, #0]
 8002000:	2350      	movs	r3, #80	; 0x50
 8002002:	5ad3      	ldrh	r3, [r2, r3]
 8002004:	3628      	adds	r6, #40	; 0x28
 8002006:	7831      	ldrb	r1, [r6, #0]
 8002008:	00c9      	lsls	r1, r1, #3
 800200a:	185b      	adds	r3, r3, r1
 800200c:	189b      	adds	r3, r3, r2
 800200e:	4a50      	ldr	r2, [pc, #320]	; (8002150 <HAL_PCD_EP_Transmit+0x204>)
 8002010:	4694      	mov	ip, r2
 8002012:	4463      	add	r3, ip
 8002014:	801f      	strh	r7, [r3, #0]
 8002016:	e082      	b.n	800211e <HAL_PCD_EP_Transmit+0x1d2>
      PCD_SET_EP_DBUF1_CNT(hpcd->Instance, ep->num, ep->is_in, len)
 8002018:	087b      	lsrs	r3, r7, #1
 800201a:	b29b      	uxth	r3, r3
 800201c:	07fa      	lsls	r2, r7, #31
 800201e:	d501      	bpl.n	8002024 <HAL_PCD_EP_Transmit+0xd8>
 8002020:	3301      	adds	r3, #1
 8002022:	b29b      	uxth	r3, r3
 8002024:	029b      	lsls	r3, r3, #10
 8002026:	8003      	strh	r3, [r0, #0]
 8002028:	e001      	b.n	800202e <HAL_PCD_EP_Transmit+0xe2>
 800202a:	2a01      	cmp	r2, #1
 800202c:	d024      	beq.n	8002078 <HAL_PCD_EP_Transmit+0x12c>
      pmabuffer = ep->pmaaddr1;
 800202e:	00e2      	lsls	r2, r4, #3
 8002030:	1b12      	subs	r2, r2, r4
 8002032:	0093      	lsls	r3, r2, #2
 8002034:	18eb      	adds	r3, r5, r3
 8002036:	8e1a      	ldrh	r2, [r3, #48]	; 0x30
    PCD_WritePMA(hpcd->Instance, ep->xfer_buff, pmabuffer, len);
 8002038:	b2bb      	uxth	r3, r7
 800203a:	00e1      	lsls	r1, r4, #3
 800203c:	1b09      	subs	r1, r1, r4
 800203e:	008e      	lsls	r6, r1, #2
 8002040:	19ae      	adds	r6, r5, r6
 8002042:	6bb1      	ldr	r1, [r6, #56]	; 0x38
 8002044:	6828      	ldr	r0, [r5, #0]
 8002046:	f7ff ff6d 	bl	8001f24 <PCD_WritePMA>
    PCD_FreeUserBuffer(hpcd->Instance, ep->num, ep->is_in)
 800204a:	3629      	adds	r6, #41	; 0x29
 800204c:	7833      	ldrb	r3, [r6, #0]
 800204e:	2b00      	cmp	r3, #0
 8002050:	d055      	beq.n	80020fe <HAL_PCD_EP_Transmit+0x1b2>
 8002052:	2b01      	cmp	r3, #1
 8002054:	d163      	bne.n	800211e <HAL_PCD_EP_Transmit+0x1d2>
 8002056:	00e2      	lsls	r2, r4, #3
 8002058:	1b12      	subs	r2, r2, r4
 800205a:	0093      	lsls	r3, r2, #2
 800205c:	18eb      	adds	r3, r5, r3
 800205e:	3328      	adds	r3, #40	; 0x28
 8002060:	781b      	ldrb	r3, [r3, #0]
 8002062:	009b      	lsls	r3, r3, #2
 8002064:	682a      	ldr	r2, [r5, #0]
 8002066:	4694      	mov	ip, r2
 8002068:	4463      	add	r3, ip
 800206a:	881a      	ldrh	r2, [r3, #0]
 800206c:	4939      	ldr	r1, [pc, #228]	; (8002154 <HAL_PCD_EP_Transmit+0x208>)
 800206e:	4011      	ands	r1, r2
 8002070:	4a39      	ldr	r2, [pc, #228]	; (8002158 <HAL_PCD_EP_Transmit+0x20c>)
 8002072:	430a      	orrs	r2, r1
 8002074:	801a      	strh	r2, [r3, #0]
 8002076:	e052      	b.n	800211e <HAL_PCD_EP_Transmit+0x1d2>
      PCD_SET_EP_DBUF1_CNT(hpcd->Instance, ep->num, ep->is_in, len)
 8002078:	324f      	adds	r2, #79	; 0x4f
 800207a:	5a82      	ldrh	r2, [r0, r2]
 800207c:	00db      	lsls	r3, r3, #3
 800207e:	18d3      	adds	r3, r2, r3
 8002080:	1818      	adds	r0, r3, r0
 8002082:	4b31      	ldr	r3, [pc, #196]	; (8002148 <HAL_PCD_EP_Transmit+0x1fc>)
 8002084:	469c      	mov	ip, r3
 8002086:	4460      	add	r0, ip
 8002088:	8007      	strh	r7, [r0, #0]
 800208a:	e7d0      	b.n	800202e <HAL_PCD_EP_Transmit+0xe2>
      PCD_SET_EP_DBUF0_CNT(hpcd->Instance, ep->num, ep->is_in, len)
 800208c:	00e6      	lsls	r6, r4, #3
 800208e:	1b36      	subs	r6, r6, r4
 8002090:	00b2      	lsls	r2, r6, #2
 8002092:	18aa      	adds	r2, r5, r2
 8002094:	3229      	adds	r2, #41	; 0x29
 8002096:	7812      	ldrb	r2, [r2, #0]
 8002098:	2a00      	cmp	r2, #0
 800209a:	d11e      	bne.n	80020da <HAL_PCD_EP_Transmit+0x18e>
 800209c:	3250      	adds	r2, #80	; 0x50
 800209e:	5a82      	ldrh	r2, [r0, r2]
 80020a0:	00db      	lsls	r3, r3, #3
 80020a2:	18d3      	adds	r3, r2, r3
 80020a4:	1818      	adds	r0, r3, r0
 80020a6:	4b2a      	ldr	r3, [pc, #168]	; (8002150 <HAL_PCD_EP_Transmit+0x204>)
 80020a8:	469c      	mov	ip, r3
 80020aa:	4460      	add	r0, ip
 80020ac:	2f3e      	cmp	r7, #62	; 0x3e
 80020ae:	d90b      	bls.n	80020c8 <HAL_PCD_EP_Transmit+0x17c>
 80020b0:	097b      	lsrs	r3, r7, #5
 80020b2:	b29b      	uxth	r3, r3
 80020b4:	06fa      	lsls	r2, r7, #27
 80020b6:	d101      	bne.n	80020bc <HAL_PCD_EP_Transmit+0x170>
 80020b8:	3b01      	subs	r3, #1
 80020ba:	b29b      	uxth	r3, r3
 80020bc:	029b      	lsls	r3, r3, #10
 80020be:	b29b      	uxth	r3, r3
 80020c0:	4a22      	ldr	r2, [pc, #136]	; (800214c <HAL_PCD_EP_Transmit+0x200>)
 80020c2:	4313      	orrs	r3, r2
 80020c4:	8003      	strh	r3, [r0, #0]
 80020c6:	e00a      	b.n	80020de <HAL_PCD_EP_Transmit+0x192>
 80020c8:	087b      	lsrs	r3, r7, #1
 80020ca:	b29b      	uxth	r3, r3
 80020cc:	07fa      	lsls	r2, r7, #31
 80020ce:	d501      	bpl.n	80020d4 <HAL_PCD_EP_Transmit+0x188>
 80020d0:	3301      	adds	r3, #1
 80020d2:	b29b      	uxth	r3, r3
 80020d4:	029b      	lsls	r3, r3, #10
 80020d6:	8003      	strh	r3, [r0, #0]
 80020d8:	e001      	b.n	80020de <HAL_PCD_EP_Transmit+0x192>
 80020da:	2a01      	cmp	r2, #1
 80020dc:	d005      	beq.n	80020ea <HAL_PCD_EP_Transmit+0x19e>
      pmabuffer = ep->pmaaddr0;
 80020de:	00e2      	lsls	r2, r4, #3
 80020e0:	1b12      	subs	r2, r2, r4
 80020e2:	0093      	lsls	r3, r2, #2
 80020e4:	18eb      	adds	r3, r5, r3
 80020e6:	8dda      	ldrh	r2, [r3, #46]	; 0x2e
 80020e8:	e7a6      	b.n	8002038 <HAL_PCD_EP_Transmit+0xec>
      PCD_SET_EP_DBUF0_CNT(hpcd->Instance, ep->num, ep->is_in, len)
 80020ea:	324f      	adds	r2, #79	; 0x4f
 80020ec:	5a82      	ldrh	r2, [r0, r2]
 80020ee:	00db      	lsls	r3, r3, #3
 80020f0:	18d3      	adds	r3, r2, r3
 80020f2:	1818      	adds	r0, r3, r0
 80020f4:	4b16      	ldr	r3, [pc, #88]	; (8002150 <HAL_PCD_EP_Transmit+0x204>)
 80020f6:	469c      	mov	ip, r3
 80020f8:	4460      	add	r0, ip
 80020fa:	8007      	strh	r7, [r0, #0]
 80020fc:	e7ef      	b.n	80020de <HAL_PCD_EP_Transmit+0x192>
    PCD_FreeUserBuffer(hpcd->Instance, ep->num, ep->is_in)
 80020fe:	00e2      	lsls	r2, r4, #3
 8002100:	1b12      	subs	r2, r2, r4
 8002102:	0093      	lsls	r3, r2, #2
 8002104:	18eb      	adds	r3, r5, r3
 8002106:	3328      	adds	r3, #40	; 0x28
 8002108:	781b      	ldrb	r3, [r3, #0]
 800210a:	009b      	lsls	r3, r3, #2
 800210c:	682a      	ldr	r2, [r5, #0]
 800210e:	4694      	mov	ip, r2
 8002110:	4463      	add	r3, ip
 8002112:	881a      	ldrh	r2, [r3, #0]
 8002114:	490f      	ldr	r1, [pc, #60]	; (8002154 <HAL_PCD_EP_Transmit+0x208>)
 8002116:	4011      	ands	r1, r2
 8002118:	4a10      	ldr	r2, [pc, #64]	; (800215c <HAL_PCD_EP_Transmit+0x210>)
 800211a:	430a      	orrs	r2, r1
 800211c:	801a      	strh	r2, [r3, #0]
  PCD_SET_EP_TX_STATUS(hpcd->Instance, ep->num, USB_EP_TX_VALID)
 800211e:	682a      	ldr	r2, [r5, #0]
 8002120:	00e1      	lsls	r1, r4, #3
 8002122:	1b0c      	subs	r4, r1, r4
 8002124:	00a3      	lsls	r3, r4, #2
 8002126:	18ed      	adds	r5, r5, r3
 8002128:	3528      	adds	r5, #40	; 0x28
 800212a:	782b      	ldrb	r3, [r5, #0]
 800212c:	009b      	lsls	r3, r3, #2
 800212e:	18d2      	adds	r2, r2, r3
 8002130:	8813      	ldrh	r3, [r2, #0]
 8002132:	490b      	ldr	r1, [pc, #44]	; (8002160 <HAL_PCD_EP_Transmit+0x214>)
 8002134:	400b      	ands	r3, r1
 8002136:	2130      	movs	r1, #48	; 0x30
 8002138:	404b      	eors	r3, r1
 800213a:	b29b      	uxth	r3, r3
 800213c:	4909      	ldr	r1, [pc, #36]	; (8002164 <HAL_PCD_EP_Transmit+0x218>)
 800213e:	430b      	orrs	r3, r1
 8002140:	8013      	strh	r3, [r2, #0]
}
 8002142:	2000      	movs	r0, #0
 8002144:	bdf8      	pop	{r3, r4, r5, r6, r7, pc}
 8002146:	46c0      	nop			; (mov r8, r8)
 8002148:	00000406 	.word	0x00000406
 800214c:	ffff8000 	.word	0xffff8000
 8002150:	00000402 	.word	0x00000402
 8002154:	00000f0f 	.word	0x00000f0f
 8002158:	ffffc080 	.word	0xffffc080
 800215c:	ffff80c0 	.word	0xffff80c0
 8002160:	ffff8fbf 	.word	0xffff8fbf
 8002164:	ffff8080 	.word	0xffff8080

08002168 <PCD_ReadPMA>:
  * @param   wPMABufAddr address into PMA.
  * @param   wNBytes no. of bytes to be copied.
  * @retval None
  */
void PCD_ReadPMA(USB_TypeDef  *USBx, uint8_t *pbUsrBuf, uint16_t wPMABufAddr, uint16_t wNBytes)
{
 8002168:	b510      	push	{r4, lr}
  uint32_t n = (uint32_t)wNBytes >> 1U;
 800216a:	085c      	lsrs	r4, r3, #1
  uint32_t i;
  uint16_t *pdwVal;
  uint32_t temp;
  pdwVal = (uint16_t *)((uint32_t)(wPMABufAddr + (uint32_t)USBx + 0x400U));
 800216c:	1810      	adds	r0, r2, r0
 800216e:	2280      	movs	r2, #128	; 0x80
 8002170:	00d2      	lsls	r2, r2, #3
 8002172:	4694      	mov	ip, r2
 8002174:	4460      	add	r0, ip
  
  for (i = n; i != 0U; i--)
 8002176:	e006      	b.n	8002186 <PCD_ReadPMA+0x1e>
  {
    temp = *pdwVal++;
 8002178:	8802      	ldrh	r2, [r0, #0]
    *pbUsrBuf++ = ((temp >> 0) & 0xFF);
 800217a:	700a      	strb	r2, [r1, #0]
    *pbUsrBuf++ = ((temp >> 8) & 0xFF);
 800217c:	0a12      	lsrs	r2, r2, #8
 800217e:	704a      	strb	r2, [r1, #1]
  for (i = n; i != 0U; i--)
 8002180:	3c01      	subs	r4, #1
    temp = *pdwVal++;
 8002182:	3002      	adds	r0, #2
    *pbUsrBuf++ = ((temp >> 8) & 0xFF);
 8002184:	3102      	adds	r1, #2
  for (i = n; i != 0U; i--)
 8002186:	2c00      	cmp	r4, #0
 8002188:	d1f6      	bne.n	8002178 <PCD_ReadPMA+0x10>
  }
  
  if (wNBytes % 2)
 800218a:	07db      	lsls	r3, r3, #31
 800218c:	d501      	bpl.n	8002192 <PCD_ReadPMA+0x2a>
  {
    temp = *pdwVal++;
 800218e:	8803      	ldrh	r3, [r0, #0]
    *pbUsrBuf++ = ((temp >> 0) & 0xFF);
 8002190:	700b      	strb	r3, [r1, #0]
  }
}
 8002192:	bd10      	pop	{r4, pc}

08002194 <PCD_EP_ISR_Handler>:
  * @brief  This function handles PCD Endpoint interrupt request.
  * @param  hpcd PCD handle
  * @retval HAL status
  */
static HAL_StatusTypeDef PCD_EP_ISR_Handler(PCD_HandleTypeDef *hpcd)
{
 8002194:	b5f0      	push	{r4, r5, r6, r7, lr}
 8002196:	b083      	sub	sp, #12
 8002198:	0005      	movs	r5, r0
  PCD_EPTypeDef *ep;
  uint16_t count=0U;
  uint8_t EPindex;
  __IO uint16_t wIstr;  
  __IO uint16_t wEPVal = 0U;
 800219a:	2200      	movs	r2, #0
 800219c:	ab01      	add	r3, sp, #4
 800219e:	801a      	strh	r2, [r3, #0]
  
  /* stay in loop while pending interrupts */
  while (((wIstr = hpcd->Instance->ISTR) & USB_ISTR_CTR) != 0U)
 80021a0:	e1b5      	b.n	800250e <PCD_EP_ISR_Handler+0x37a>
      {
        /* DIR = 0 */
        
        /* DIR = 0      => IN  int */
        /* DIR = 0 implies that (EP_CTR_TX = 1) always  */
        PCD_CLEAR_TX_EP_CTR(hpcd->Instance, PCD_ENDP0);
 80021a2:	8803      	ldrh	r3, [r0, #0]
 80021a4:	4aa9      	ldr	r2, [pc, #676]	; (800244c <PCD_EP_ISR_Handler+0x2b8>)
 80021a6:	4013      	ands	r3, r2
 80021a8:	8003      	strh	r3, [r0, #0]
        ep = &hpcd->IN_ep[0];
        
        ep->xfer_count = PCD_GET_EP_TX_CNT(hpcd->Instance, ep->num);
 80021aa:	6829      	ldr	r1, [r5, #0]
 80021ac:	2350      	movs	r3, #80	; 0x50
 80021ae:	5acb      	ldrh	r3, [r1, r3]
 80021b0:	2228      	movs	r2, #40	; 0x28
 80021b2:	5caa      	ldrb	r2, [r5, r2]
 80021b4:	00d2      	lsls	r2, r2, #3
 80021b6:	189b      	adds	r3, r3, r2
 80021b8:	185b      	adds	r3, r3, r1
 80021ba:	4aa5      	ldr	r2, [pc, #660]	; (8002450 <PCD_EP_ISR_Handler+0x2bc>)
 80021bc:	4694      	mov	ip, r2
 80021be:	4463      	add	r3, ip
 80021c0:	881b      	ldrh	r3, [r3, #0]
 80021c2:	059b      	lsls	r3, r3, #22
 80021c4:	0d9b      	lsrs	r3, r3, #22
 80021c6:	642b      	str	r3, [r5, #64]	; 0x40
        ep->xfer_buff += ep->xfer_count;
 80021c8:	6baa      	ldr	r2, [r5, #56]	; 0x38
 80021ca:	4694      	mov	ip, r2
 80021cc:	4463      	add	r3, ip
 80021ce:	63ab      	str	r3, [r5, #56]	; 0x38
 
        /* TX COMPLETE */
        HAL_PCD_DataInStageCallback(hpcd, 0U);
 80021d0:	2100      	movs	r1, #0
 80021d2:	0028      	movs	r0, r5
 80021d4:	f003 fca9 	bl	8005b2a <HAL_PCD_DataInStageCallback>
        
        
        if((hpcd->USB_Address > 0U)&& ( ep->xfer_len == 0U))
 80021d8:	2324      	movs	r3, #36	; 0x24
 80021da:	5ceb      	ldrb	r3, [r5, r3]
 80021dc:	2b00      	cmp	r3, #0
 80021de:	d100      	bne.n	80021e2 <PCD_EP_ISR_Handler+0x4e>
 80021e0:	e195      	b.n	800250e <PCD_EP_ISR_Handler+0x37a>
 80021e2:	6beb      	ldr	r3, [r5, #60]	; 0x3c
 80021e4:	2b00      	cmp	r3, #0
 80021e6:	d000      	beq.n	80021ea <PCD_EP_ISR_Handler+0x56>
 80021e8:	e191      	b.n	800250e <PCD_EP_ISR_Handler+0x37a>
        {
          hpcd->Instance->DADDR = (hpcd->USB_Address | USB_DADDR_EF);
 80021ea:	2224      	movs	r2, #36	; 0x24
 80021ec:	5cab      	ldrb	r3, [r5, r2]
 80021ee:	2180      	movs	r1, #128	; 0x80
 80021f0:	4249      	negs	r1, r1
 80021f2:	430b      	orrs	r3, r1
 80021f4:	b2db      	uxtb	r3, r3
 80021f6:	31cc      	adds	r1, #204	; 0xcc
 80021f8:	6828      	ldr	r0, [r5, #0]
 80021fa:	5243      	strh	r3, [r0, r1]
          hpcd->USB_Address = 0U;
 80021fc:	2300      	movs	r3, #0
 80021fe:	54ab      	strb	r3, [r5, r2]
 8002200:	e185      	b.n	800250e <PCD_EP_ISR_Handler+0x37a>
        wEPVal = PCD_GET_ENDPOINT(hpcd->Instance, PCD_ENDP0);
        
        if ((wEPVal & USB_EP_SETUP) != 0U)
        {
          /* Get SETUP Packet*/
          ep->xfer_count = PCD_GET_EP_RX_CNT(hpcd->Instance, ep->num);
 8002202:	2350      	movs	r3, #80	; 0x50
 8002204:	5ac3      	ldrh	r3, [r0, r3]
 8002206:	2284      	movs	r2, #132	; 0x84
 8002208:	0052      	lsls	r2, r2, #1
 800220a:	5caa      	ldrb	r2, [r5, r2]
 800220c:	00d2      	lsls	r2, r2, #3
 800220e:	189b      	adds	r3, r3, r2
 8002210:	181b      	adds	r3, r3, r0
 8002212:	4a90      	ldr	r2, [pc, #576]	; (8002454 <PCD_EP_ISR_Handler+0x2c0>)
 8002214:	4694      	mov	ip, r2
 8002216:	4463      	add	r3, ip
 8002218:	881b      	ldrh	r3, [r3, #0]
 800221a:	059b      	lsls	r3, r3, #22
 800221c:	0d9b      	lsrs	r3, r3, #22
 800221e:	002a      	movs	r2, r5
 8002220:	3209      	adds	r2, #9
 8002222:	32ff      	adds	r2, #255	; 0xff
 8002224:	6193      	str	r3, [r2, #24]
          PCD_ReadPMA(hpcd->Instance, (uint8_t*)(void*)hpcd->Setup ,ep->pmaadress , ep->xfer_count);
 8002226:	0029      	movs	r1, r5
 8002228:	31ed      	adds	r1, #237	; 0xed
 800222a:	31ff      	adds	r1, #255	; 0xff
 800222c:	8892      	ldrh	r2, [r2, #4]
 800222e:	f7ff ff9b 	bl	8002168 <PCD_ReadPMA>
          /* SETUP bit kept frozen while CTR_RX = 1*/ 
          PCD_CLEAR_RX_EP_CTR(hpcd->Instance, PCD_ENDP0); 
 8002232:	682a      	ldr	r2, [r5, #0]
 8002234:	8813      	ldrh	r3, [r2, #0]
 8002236:	4988      	ldr	r1, [pc, #544]	; (8002458 <PCD_EP_ISR_Handler+0x2c4>)
 8002238:	400b      	ands	r3, r1
 800223a:	8013      	strh	r3, [r2, #0]
          
          /* Process SETUP Packet*/
          HAL_PCD_SetupStageCallback(hpcd);
 800223c:	0028      	movs	r0, r5
 800223e:	f003 fc5b 	bl	8005af8 <HAL_PCD_SetupStageCallback>
 8002242:	e164      	b.n	800250e <PCD_EP_ISR_Handler+0x37a>
          /* Get Control Data OUT Packet*/
          ep->xfer_count = PCD_GET_EP_RX_CNT(hpcd->Instance, ep->num);
          
          if (ep->xfer_count != 0U)
          {
            PCD_ReadPMA(hpcd->Instance, ep->xfer_buff, ep->pmaadress, ep->xfer_count);
 8002244:	0014      	movs	r4, r2
 8002246:	8892      	ldrh	r2, [r2, #4]
 8002248:	6921      	ldr	r1, [r4, #16]
 800224a:	f7ff ff8d 	bl	8002168 <PCD_ReadPMA>
            ep->xfer_buff+=ep->xfer_count;
 800224e:	6923      	ldr	r3, [r4, #16]
 8002250:	69a2      	ldr	r2, [r4, #24]
 8002252:	4694      	mov	ip, r2
 8002254:	4463      	add	r3, ip
 8002256:	6123      	str	r3, [r4, #16]
 8002258:	e195      	b.n	8002586 <PCD_EP_ISR_Handler+0x3f2>
          }
          
          /* Process Control Data OUT Packet*/
           HAL_PCD_DataOutStageCallback(hpcd, 0U);
          
          PCD_SET_EP_RX_CNT(hpcd->Instance, PCD_ENDP0, ep->maxpacket)
 800225a:	084b      	lsrs	r3, r1, #1
 800225c:	b29b      	uxth	r3, r3
 800225e:	07c9      	lsls	r1, r1, #31
 8002260:	d501      	bpl.n	8002266 <PCD_EP_ISR_Handler+0xd2>
 8002262:	3301      	adds	r3, #1
 8002264:	b29b      	uxth	r3, r3
 8002266:	029b      	lsls	r3, r3, #10
 8002268:	8013      	strh	r3, [r2, #0]
 800226a:	e1a9      	b.n	80025c0 <PCD_EP_ISR_Handler+0x42c>
    {
      
      /* Decode and service non control endpoints interrupt  */
      
      /* process related endpoint register */
      wEPVal = PCD_GET_ENDPOINT(hpcd->Instance, EPindex);
 800226c:	00a6      	lsls	r6, r4, #2
 800226e:	1980      	adds	r0, r0, r6
 8002270:	8802      	ldrh	r2, [r0, #0]
 8002272:	ab01      	add	r3, sp, #4
 8002274:	801a      	strh	r2, [r3, #0]
      if ((wEPVal & USB_EP_CTR_RX) != 0U)
 8002276:	881b      	ldrh	r3, [r3, #0]
 8002278:	b21b      	sxth	r3, r3
 800227a:	2b00      	cmp	r3, #0
 800227c:	db31      	blt.n	80022e2 <PCD_EP_ISR_Handler+0x14e>
          HAL_PCD_EP_Receive(hpcd, ep->num, ep->xfer_buff, ep->xfer_len);
        }
        
      } /* if((wEPVal & EP_CTR_RX) */
      
      if ((wEPVal & USB_EP_CTR_TX) != 0U)
 800227e:	ab01      	add	r3, sp, #4
 8002280:	881b      	ldrh	r3, [r3, #0]
 8002282:	061b      	lsls	r3, r3, #24
 8002284:	d400      	bmi.n	8002288 <PCD_EP_ISR_Handler+0xf4>
 8002286:	e142      	b.n	800250e <PCD_EP_ISR_Handler+0x37a>
      {
        ep = &hpcd->IN_ep[EPindex];
        
        /* clear int flag */
        PCD_CLEAR_TX_EP_CTR(hpcd->Instance, EPindex);
 8002288:	682b      	ldr	r3, [r5, #0]
 800228a:	469c      	mov	ip, r3
 800228c:	4466      	add	r6, ip
 800228e:	8833      	ldrh	r3, [r6, #0]
 8002290:	4a6e      	ldr	r2, [pc, #440]	; (800244c <PCD_EP_ISR_Handler+0x2b8>)
 8002292:	4013      	ands	r3, r2
 8002294:	8033      	strh	r3, [r6, #0]
        
        /* IN double Buffering*/
        if (ep->doublebuffer == 0U)
 8002296:	00e2      	lsls	r2, r4, #3
 8002298:	1b12      	subs	r2, r2, r4
 800229a:	0093      	lsls	r3, r2, #2
 800229c:	001a      	movs	r2, r3
 800229e:	18eb      	adds	r3, r5, r3
 80022a0:	3332      	adds	r3, #50	; 0x32
 80022a2:	781b      	ldrb	r3, [r3, #0]
 80022a4:	2b00      	cmp	r3, #0
 80022a6:	d000      	beq.n	80022aa <PCD_EP_ISR_Handler+0x116>
 80022a8:	e0dc      	b.n	8002464 <PCD_EP_ISR_Handler+0x2d0>
        {
          ep->xfer_count = PCD_GET_EP_TX_CNT(hpcd->Instance, ep->num);
 80022aa:	6828      	ldr	r0, [r5, #0]
 80022ac:	3350      	adds	r3, #80	; 0x50
 80022ae:	5ac3      	ldrh	r3, [r0, r3]
 80022b0:	18aa      	adds	r2, r5, r2
 80022b2:	0011      	movs	r1, r2
 80022b4:	3128      	adds	r1, #40	; 0x28
 80022b6:	7809      	ldrb	r1, [r1, #0]
 80022b8:	00c9      	lsls	r1, r1, #3
 80022ba:	185b      	adds	r3, r3, r1
 80022bc:	181b      	adds	r3, r3, r0
 80022be:	4964      	ldr	r1, [pc, #400]	; (8002450 <PCD_EP_ISR_Handler+0x2bc>)
 80022c0:	468c      	mov	ip, r1
 80022c2:	4463      	add	r3, ip
 80022c4:	881b      	ldrh	r3, [r3, #0]
 80022c6:	059b      	lsls	r3, r3, #22
 80022c8:	0d9b      	lsrs	r3, r3, #22
 80022ca:	6413      	str	r3, [r2, #64]	; 0x40
          if (ep->xfer_count != 0)
 80022cc:	d100      	bne.n	80022d0 <PCD_EP_ISR_Handler+0x13c>
 80022ce:	e0f9      	b.n	80024c4 <PCD_EP_ISR_Handler+0x330>
          {
            PCD_WritePMA(hpcd->Instance, ep->xfer_buff, ep->pmaadress, ep->xfer_count);
 80022d0:	00e2      	lsls	r2, r4, #3
 80022d2:	1b12      	subs	r2, r2, r4
 80022d4:	0091      	lsls	r1, r2, #2
 80022d6:	1869      	adds	r1, r5, r1
 80022d8:	8d8a      	ldrh	r2, [r1, #44]	; 0x2c
 80022da:	6b89      	ldr	r1, [r1, #56]	; 0x38
 80022dc:	f7ff fe22 	bl	8001f24 <PCD_WritePMA>
 80022e0:	e0f0      	b.n	80024c4 <PCD_EP_ISR_Handler+0x330>
        PCD_CLEAR_RX_EP_CTR(hpcd->Instance, EPindex);
 80022e2:	4b5d      	ldr	r3, [pc, #372]	; (8002458 <PCD_EP_ISR_Handler+0x2c4>)
 80022e4:	401a      	ands	r2, r3
 80022e6:	8002      	strh	r2, [r0, #0]
        if (ep->doublebuffer == 0U)
 80022e8:	00e2      	lsls	r2, r4, #3
 80022ea:	1b12      	subs	r2, r2, r4
 80022ec:	0093      	lsls	r3, r2, #2
 80022ee:	001a      	movs	r2, r3
 80022f0:	18eb      	adds	r3, r5, r3
 80022f2:	3313      	adds	r3, #19
 80022f4:	33ff      	adds	r3, #255	; 0xff
 80022f6:	781b      	ldrb	r3, [r3, #0]
 80022f8:	2b00      	cmp	r3, #0
 80022fa:	d11d      	bne.n	8002338 <PCD_EP_ISR_Handler+0x1a4>
          count = PCD_GET_EP_RX_CNT(hpcd->Instance, ep->num);
 80022fc:	6828      	ldr	r0, [r5, #0]
 80022fe:	3350      	adds	r3, #80	; 0x50
 8002300:	5ac3      	ldrh	r3, [r0, r3]
 8002302:	0011      	movs	r1, r2
 8002304:	18aa      	adds	r2, r5, r2
 8002306:	3209      	adds	r2, #9
 8002308:	32ff      	adds	r2, #255	; 0xff
 800230a:	7812      	ldrb	r2, [r2, #0]
 800230c:	00d2      	lsls	r2, r2, #3
 800230e:	189b      	adds	r3, r3, r2
 8002310:	181b      	adds	r3, r3, r0
 8002312:	4a50      	ldr	r2, [pc, #320]	; (8002454 <PCD_EP_ISR_Handler+0x2c0>)
 8002314:	4694      	mov	ip, r2
 8002316:	4463      	add	r3, ip
 8002318:	881f      	ldrh	r7, [r3, #0]
 800231a:	05bf      	lsls	r7, r7, #22
 800231c:	0dbf      	lsrs	r7, r7, #22
          if (count != 0U)
 800231e:	d034      	beq.n	800238a <PCD_EP_ISR_Handler+0x1f6>
            PCD_ReadPMA(hpcd->Instance, ep->xfer_buff, ep->pmaadress, count);
 8002320:	186b      	adds	r3, r5, r1
 8002322:	001a      	movs	r2, r3
 8002324:	320d      	adds	r2, #13
 8002326:	32ff      	adds	r2, #255	; 0xff
 8002328:	8812      	ldrh	r2, [r2, #0]
 800232a:	3319      	adds	r3, #25
 800232c:	33ff      	adds	r3, #255	; 0xff
 800232e:	6819      	ldr	r1, [r3, #0]
 8002330:	003b      	movs	r3, r7
 8002332:	f7ff ff19 	bl	8002168 <PCD_ReadPMA>
 8002336:	e028      	b.n	800238a <PCD_EP_ISR_Handler+0x1f6>
          if ((PCD_GET_ENDPOINT(hpcd->Instance, ep->num)& USB_EP_DTOG_RX) == USB_EP_DTOG_RX)
 8002338:	6828      	ldr	r0, [r5, #0]
 800233a:	00e2      	lsls	r2, r4, #3
 800233c:	1b12      	subs	r2, r2, r4
 800233e:	0093      	lsls	r3, r2, #2
 8002340:	18eb      	adds	r3, r5, r3
 8002342:	3309      	adds	r3, #9
 8002344:	33ff      	adds	r3, #255	; 0xff
 8002346:	781b      	ldrb	r3, [r3, #0]
 8002348:	009a      	lsls	r2, r3, #2
 800234a:	5a82      	ldrh	r2, [r0, r2]
 800234c:	0452      	lsls	r2, r2, #17
 800234e:	d556      	bpl.n	80023fe <PCD_EP_ISR_Handler+0x26a>
            count = PCD_GET_EP_DBUF0_CNT(hpcd->Instance, ep->num);
 8002350:	2250      	movs	r2, #80	; 0x50
 8002352:	5a82      	ldrh	r2, [r0, r2]
 8002354:	00db      	lsls	r3, r3, #3
 8002356:	18d3      	adds	r3, r2, r3
 8002358:	181b      	adds	r3, r3, r0
 800235a:	4a3d      	ldr	r2, [pc, #244]	; (8002450 <PCD_EP_ISR_Handler+0x2bc>)
 800235c:	4694      	mov	ip, r2
 800235e:	4463      	add	r3, ip
 8002360:	881f      	ldrh	r7, [r3, #0]
 8002362:	05bf      	lsls	r7, r7, #22
 8002364:	0dbf      	lsrs	r7, r7, #22
            if (count != 0U)
 8002366:	d13b      	bne.n	80023e0 <PCD_EP_ISR_Handler+0x24c>
          PCD_FreeUserBuffer(hpcd->Instance, ep->num, PCD_EP_DBUF_OUT)  
 8002368:	00e2      	lsls	r2, r4, #3
 800236a:	1b12      	subs	r2, r2, r4
 800236c:	0093      	lsls	r3, r2, #2
 800236e:	18eb      	adds	r3, r5, r3
 8002370:	3309      	adds	r3, #9
 8002372:	33ff      	adds	r3, #255	; 0xff
 8002374:	781b      	ldrb	r3, [r3, #0]
 8002376:	009b      	lsls	r3, r3, #2
 8002378:	682a      	ldr	r2, [r5, #0]
 800237a:	4694      	mov	ip, r2
 800237c:	4463      	add	r3, ip
 800237e:	881a      	ldrh	r2, [r3, #0]
 8002380:	4936      	ldr	r1, [pc, #216]	; (800245c <PCD_EP_ISR_Handler+0x2c8>)
 8002382:	4011      	ands	r1, r2
 8002384:	4a36      	ldr	r2, [pc, #216]	; (8002460 <PCD_EP_ISR_Handler+0x2cc>)
 8002386:	430a      	orrs	r2, r1
 8002388:	801a      	strh	r2, [r3, #0]
        ep->xfer_count+=count;
 800238a:	0039      	movs	r1, r7
 800238c:	00e2      	lsls	r2, r4, #3
 800238e:	1b12      	subs	r2, r2, r4
 8002390:	0093      	lsls	r3, r2, #2
 8002392:	18eb      	adds	r3, r5, r3
 8002394:	0018      	movs	r0, r3
 8002396:	3021      	adds	r0, #33	; 0x21
 8002398:	30ff      	adds	r0, #255	; 0xff
 800239a:	6802      	ldr	r2, [r0, #0]
 800239c:	19d2      	adds	r2, r2, r7
 800239e:	6002      	str	r2, [r0, #0]
        ep->xfer_buff+=count;
 80023a0:	001a      	movs	r2, r3
 80023a2:	3219      	adds	r2, #25
 80023a4:	32ff      	adds	r2, #255	; 0xff
 80023a6:	6810      	ldr	r0, [r2, #0]
 80023a8:	4684      	mov	ip, r0
 80023aa:	4467      	add	r7, ip
 80023ac:	6017      	str	r7, [r2, #0]
        if ((ep->xfer_len == 0U) || (count < ep->maxpacket))
 80023ae:	331d      	adds	r3, #29
 80023b0:	33ff      	adds	r3, #255	; 0xff
 80023b2:	681b      	ldr	r3, [r3, #0]
 80023b4:	2b00      	cmp	r3, #0
 80023b6:	d008      	beq.n	80023ca <PCD_EP_ISR_Handler+0x236>
 80023b8:	00e2      	lsls	r2, r4, #3
 80023ba:	1b12      	subs	r2, r2, r4
 80023bc:	0090      	lsls	r0, r2, #2
 80023be:	1828      	adds	r0, r5, r0
 80023c0:	3015      	adds	r0, #21
 80023c2:	30ff      	adds	r0, #255	; 0xff
 80023c4:	6802      	ldr	r2, [r0, #0]
 80023c6:	4291      	cmp	r1, r2
 80023c8:	d234      	bcs.n	8002434 <PCD_EP_ISR_Handler+0x2a0>
          HAL_PCD_DataOutStageCallback(hpcd, ep->num);
 80023ca:	00e2      	lsls	r2, r4, #3
 80023cc:	1b12      	subs	r2, r2, r4
 80023ce:	0093      	lsls	r3, r2, #2
 80023d0:	18eb      	adds	r3, r5, r3
 80023d2:	3309      	adds	r3, #9
 80023d4:	33ff      	adds	r3, #255	; 0xff
 80023d6:	7819      	ldrb	r1, [r3, #0]
 80023d8:	0028      	movs	r0, r5
 80023da:	f003 fb97 	bl	8005b0c <HAL_PCD_DataOutStageCallback>
 80023de:	e74e      	b.n	800227e <PCD_EP_ISR_Handler+0xea>
              PCD_ReadPMA(hpcd->Instance, ep->xfer_buff, ep->pmaaddr0, count);
 80023e0:	00e2      	lsls	r2, r4, #3
 80023e2:	1b12      	subs	r2, r2, r4
 80023e4:	0093      	lsls	r3, r2, #2
 80023e6:	18eb      	adds	r3, r5, r3
 80023e8:	001a      	movs	r2, r3
 80023ea:	320f      	adds	r2, #15
 80023ec:	32ff      	adds	r2, #255	; 0xff
 80023ee:	8812      	ldrh	r2, [r2, #0]
 80023f0:	3319      	adds	r3, #25
 80023f2:	33ff      	adds	r3, #255	; 0xff
 80023f4:	6819      	ldr	r1, [r3, #0]
 80023f6:	003b      	movs	r3, r7
 80023f8:	f7ff feb6 	bl	8002168 <PCD_ReadPMA>
 80023fc:	e7b4      	b.n	8002368 <PCD_EP_ISR_Handler+0x1d4>
            count = PCD_GET_EP_DBUF1_CNT(hpcd->Instance, ep->num);
 80023fe:	2250      	movs	r2, #80	; 0x50
 8002400:	5a82      	ldrh	r2, [r0, r2]
 8002402:	00db      	lsls	r3, r3, #3
 8002404:	18d3      	adds	r3, r2, r3
 8002406:	181b      	adds	r3, r3, r0
 8002408:	4a12      	ldr	r2, [pc, #72]	; (8002454 <PCD_EP_ISR_Handler+0x2c0>)
 800240a:	4694      	mov	ip, r2
 800240c:	4463      	add	r3, ip
 800240e:	881f      	ldrh	r7, [r3, #0]
 8002410:	05bf      	lsls	r7, r7, #22
 8002412:	0dbf      	lsrs	r7, r7, #22
            if (count != 0U)
 8002414:	d0a8      	beq.n	8002368 <PCD_EP_ISR_Handler+0x1d4>
              PCD_ReadPMA(hpcd->Instance, ep->xfer_buff, ep->pmaaddr1, count);
 8002416:	00e2      	lsls	r2, r4, #3
 8002418:	1b12      	subs	r2, r2, r4
 800241a:	0093      	lsls	r3, r2, #2
 800241c:	18eb      	adds	r3, r5, r3
 800241e:	001a      	movs	r2, r3
 8002420:	3211      	adds	r2, #17
 8002422:	32ff      	adds	r2, #255	; 0xff
 8002424:	8812      	ldrh	r2, [r2, #0]
 8002426:	3319      	adds	r3, #25
 8002428:	33ff      	adds	r3, #255	; 0xff
 800242a:	6819      	ldr	r1, [r3, #0]
 800242c:	003b      	movs	r3, r7
 800242e:	f7ff fe9b 	bl	8002168 <PCD_ReadPMA>
 8002432:	e799      	b.n	8002368 <PCD_EP_ISR_Handler+0x1d4>
          HAL_PCD_EP_Receive(hpcd, ep->num, ep->xfer_buff, ep->xfer_len);
 8002434:	00e1      	lsls	r1, r4, #3
 8002436:	1b09      	subs	r1, r1, r4
 8002438:	008a      	lsls	r2, r1, #2
 800243a:	18aa      	adds	r2, r5, r2
 800243c:	3209      	adds	r2, #9
 800243e:	32ff      	adds	r2, #255	; 0xff
 8002440:	7811      	ldrb	r1, [r2, #0]
 8002442:	003a      	movs	r2, r7
 8002444:	0028      	movs	r0, r5
 8002446:	f7ff fb91 	bl	8001b6c <HAL_PCD_EP_Receive>
 800244a:	e718      	b.n	800227e <PCD_EP_ISR_Handler+0xea>
 800244c:	ffff8f0f 	.word	0xffff8f0f
 8002450:	00000402 	.word	0x00000402
 8002454:	00000406 	.word	0x00000406
 8002458:	00000f8f 	.word	0x00000f8f
 800245c:	00000f0f 	.word	0x00000f0f
 8002460:	ffff80c0 	.word	0xffff80c0
          }
        }
        else
        {
          if ((PCD_GET_ENDPOINT(hpcd->Instance, ep->num)& USB_EP_DTOG_TX) == USB_EP_DTOG_TX)
 8002464:	6828      	ldr	r0, [r5, #0]
 8002466:	00e2      	lsls	r2, r4, #3
 8002468:	1b12      	subs	r2, r2, r4
 800246a:	0093      	lsls	r3, r2, #2
 800246c:	18eb      	adds	r3, r5, r3
 800246e:	3328      	adds	r3, #40	; 0x28
 8002470:	781b      	ldrb	r3, [r3, #0]
 8002472:	009a      	lsls	r2, r3, #2
 8002474:	5a82      	ldrh	r2, [r0, r2]
 8002476:	0652      	lsls	r2, r2, #25
 8002478:	d400      	bmi.n	800247c <PCD_EP_ISR_Handler+0x2e8>
 800247a:	e0b2      	b.n	80025e2 <PCD_EP_ISR_Handler+0x44e>
          {
            /*read from endpoint BUF0Addr buffer*/
            ep->xfer_count = PCD_GET_EP_DBUF0_CNT(hpcd->Instance, ep->num);
 800247c:	2250      	movs	r2, #80	; 0x50
 800247e:	5a82      	ldrh	r2, [r0, r2]
 8002480:	00db      	lsls	r3, r3, #3
 8002482:	18d3      	adds	r3, r2, r3
 8002484:	181b      	adds	r3, r3, r0
 8002486:	4a6a      	ldr	r2, [pc, #424]	; (8002630 <PCD_EP_ISR_Handler+0x49c>)
 8002488:	4694      	mov	ip, r2
 800248a:	4463      	add	r3, ip
 800248c:	881b      	ldrh	r3, [r3, #0]
 800248e:	059b      	lsls	r3, r3, #22
 8002490:	0d9b      	lsrs	r3, r3, #22
 8002492:	00e1      	lsls	r1, r4, #3
 8002494:	1b09      	subs	r1, r1, r4
 8002496:	008a      	lsls	r2, r1, #2
 8002498:	0011      	movs	r1, r2
 800249a:	18aa      	adds	r2, r5, r2
 800249c:	6413      	str	r3, [r2, #64]	; 0x40
            if (ep->xfer_count != 0U)
 800249e:	2b00      	cmp	r3, #0
 80024a0:	d000      	beq.n	80024a4 <PCD_EP_ISR_Handler+0x310>
 80024a2:	e098      	b.n	80025d6 <PCD_EP_ISR_Handler+0x442>
            if (ep->xfer_count != 0U)
            {
              PCD_WritePMA(hpcd->Instance, ep->xfer_buff, ep->pmaaddr1, ep->xfer_count);
            }
          }
          PCD_FreeUserBuffer(hpcd->Instance, ep->num, PCD_EP_DBUF_IN) 
 80024a4:	00e2      	lsls	r2, r4, #3
 80024a6:	1b12      	subs	r2, r2, r4
 80024a8:	0093      	lsls	r3, r2, #2
 80024aa:	18eb      	adds	r3, r5, r3
 80024ac:	3328      	adds	r3, #40	; 0x28
 80024ae:	781b      	ldrb	r3, [r3, #0]
 80024b0:	009b      	lsls	r3, r3, #2
 80024b2:	682a      	ldr	r2, [r5, #0]
 80024b4:	4694      	mov	ip, r2
 80024b6:	4463      	add	r3, ip
 80024b8:	881a      	ldrh	r2, [r3, #0]
 80024ba:	495e      	ldr	r1, [pc, #376]	; (8002634 <PCD_EP_ISR_Handler+0x4a0>)
 80024bc:	4011      	ands	r1, r2
 80024be:	4a5e      	ldr	r2, [pc, #376]	; (8002638 <PCD_EP_ISR_Handler+0x4a4>)
 80024c0:	430a      	orrs	r2, r1
 80024c2:	801a      	strh	r2, [r3, #0]
        }
        /*multi-packet on the NON control IN endpoint*/
        ep->xfer_count = PCD_GET_EP_TX_CNT(hpcd->Instance, ep->num);
 80024c4:	6828      	ldr	r0, [r5, #0]
 80024c6:	2350      	movs	r3, #80	; 0x50
 80024c8:	5ac2      	ldrh	r2, [r0, r3]
 80024ca:	00e1      	lsls	r1, r4, #3
 80024cc:	1b09      	subs	r1, r1, r4
 80024ce:	008b      	lsls	r3, r1, #2
 80024d0:	18eb      	adds	r3, r5, r3
 80024d2:	0019      	movs	r1, r3
 80024d4:	3128      	adds	r1, #40	; 0x28
 80024d6:	7809      	ldrb	r1, [r1, #0]
 80024d8:	00c9      	lsls	r1, r1, #3
 80024da:	1852      	adds	r2, r2, r1
 80024dc:	1812      	adds	r2, r2, r0
 80024de:	4954      	ldr	r1, [pc, #336]	; (8002630 <PCD_EP_ISR_Handler+0x49c>)
 80024e0:	468c      	mov	ip, r1
 80024e2:	4462      	add	r2, ip
 80024e4:	8812      	ldrh	r2, [r2, #0]
 80024e6:	0592      	lsls	r2, r2, #22
 80024e8:	0d92      	lsrs	r2, r2, #22
 80024ea:	641a      	str	r2, [r3, #64]	; 0x40
        ep->xfer_buff+=ep->xfer_count;
 80024ec:	6b99      	ldr	r1, [r3, #56]	; 0x38
 80024ee:	468c      	mov	ip, r1
 80024f0:	4462      	add	r2, ip
 80024f2:	639a      	str	r2, [r3, #56]	; 0x38
       
        /* Zero Length Packet? */
        if (ep->xfer_len == 0U)
 80024f4:	6bdb      	ldr	r3, [r3, #60]	; 0x3c
 80024f6:	2b00      	cmp	r3, #0
 80024f8:	d000      	beq.n	80024fc <PCD_EP_ISR_Handler+0x368>
 80024fa:	e08c      	b.n	8002616 <PCD_EP_ISR_Handler+0x482>
        {
          /* TX COMPLETE */
          HAL_PCD_DataInStageCallback(hpcd, ep->num);
 80024fc:	00e3      	lsls	r3, r4, #3
 80024fe:	1b1c      	subs	r4, r3, r4
 8002500:	00a3      	lsls	r3, r4, #2
 8002502:	18eb      	adds	r3, r5, r3
 8002504:	3328      	adds	r3, #40	; 0x28
 8002506:	7819      	ldrb	r1, [r3, #0]
 8002508:	0028      	movs	r0, r5
 800250a:	f003 fb0e 	bl	8005b2a <HAL_PCD_DataInStageCallback>
  while (((wIstr = hpcd->Instance->ISTR) & USB_ISTR_CTR) != 0U)
 800250e:	6828      	ldr	r0, [r5, #0]
 8002510:	2344      	movs	r3, #68	; 0x44
 8002512:	5ac3      	ldrh	r3, [r0, r3]
 8002514:	b29b      	uxth	r3, r3
 8002516:	466a      	mov	r2, sp
 8002518:	80d3      	strh	r3, [r2, #6]
 800251a:	b21b      	sxth	r3, r3
 800251c:	2b00      	cmp	r3, #0
 800251e:	db00      	blt.n	8002522 <PCD_EP_ISR_Handler+0x38e>
 8002520:	e083      	b.n	800262a <PCD_EP_ISR_Handler+0x496>
    EPindex = (uint8_t)(wIstr & USB_ISTR_EP_ID);
 8002522:	466b      	mov	r3, sp
 8002524:	88dc      	ldrh	r4, [r3, #6]
 8002526:	230f      	movs	r3, #15
 8002528:	401c      	ands	r4, r3
    if (EPindex == 0U)
 800252a:	d000      	beq.n	800252e <PCD_EP_ISR_Handler+0x39a>
 800252c:	e69e      	b.n	800226c <PCD_EP_ISR_Handler+0xd8>
      if ((wIstr & USB_ISTR_DIR) == 0U)
 800252e:	466b      	mov	r3, sp
 8002530:	3306      	adds	r3, #6
 8002532:	881b      	ldrh	r3, [r3, #0]
 8002534:	06db      	lsls	r3, r3, #27
 8002536:	d400      	bmi.n	800253a <PCD_EP_ISR_Handler+0x3a6>
 8002538:	e633      	b.n	80021a2 <PCD_EP_ISR_Handler+0xe>
        wEPVal = PCD_GET_ENDPOINT(hpcd->Instance, PCD_ENDP0);
 800253a:	8802      	ldrh	r2, [r0, #0]
 800253c:	ab01      	add	r3, sp, #4
 800253e:	801a      	strh	r2, [r3, #0]
        if ((wEPVal & USB_EP_SETUP) != 0U)
 8002540:	881b      	ldrh	r3, [r3, #0]
 8002542:	051b      	lsls	r3, r3, #20
 8002544:	d500      	bpl.n	8002548 <PCD_EP_ISR_Handler+0x3b4>
 8002546:	e65c      	b.n	8002202 <PCD_EP_ISR_Handler+0x6e>
        else if ((wEPVal & USB_EP_CTR_RX) != 0U)
 8002548:	ab01      	add	r3, sp, #4
 800254a:	881b      	ldrh	r3, [r3, #0]
 800254c:	b21b      	sxth	r3, r3
 800254e:	2b00      	cmp	r3, #0
 8002550:	dadd      	bge.n	800250e <PCD_EP_ISR_Handler+0x37a>
          PCD_CLEAR_RX_EP_CTR(hpcd->Instance, PCD_ENDP0);
 8002552:	8803      	ldrh	r3, [r0, #0]
 8002554:	4a39      	ldr	r2, [pc, #228]	; (800263c <PCD_EP_ISR_Handler+0x4a8>)
 8002556:	4013      	ands	r3, r2
 8002558:	8003      	strh	r3, [r0, #0]
          ep->xfer_count = PCD_GET_EP_RX_CNT(hpcd->Instance, ep->num);
 800255a:	6828      	ldr	r0, [r5, #0]
 800255c:	2350      	movs	r3, #80	; 0x50
 800255e:	5ac3      	ldrh	r3, [r0, r3]
 8002560:	2284      	movs	r2, #132	; 0x84
 8002562:	0052      	lsls	r2, r2, #1
 8002564:	5caa      	ldrb	r2, [r5, r2]
 8002566:	00d2      	lsls	r2, r2, #3
 8002568:	189b      	adds	r3, r3, r2
 800256a:	181b      	adds	r3, r3, r0
 800256c:	4a34      	ldr	r2, [pc, #208]	; (8002640 <PCD_EP_ISR_Handler+0x4ac>)
 800256e:	4694      	mov	ip, r2
 8002570:	4463      	add	r3, ip
 8002572:	881b      	ldrh	r3, [r3, #0]
 8002574:	059b      	lsls	r3, r3, #22
 8002576:	0d9b      	lsrs	r3, r3, #22
 8002578:	002a      	movs	r2, r5
 800257a:	3209      	adds	r2, #9
 800257c:	32ff      	adds	r2, #255	; 0xff
 800257e:	6193      	str	r3, [r2, #24]
          if (ep->xfer_count != 0U)
 8002580:	2b00      	cmp	r3, #0
 8002582:	d000      	beq.n	8002586 <PCD_EP_ISR_Handler+0x3f2>
 8002584:	e65e      	b.n	8002244 <PCD_EP_ISR_Handler+0xb0>
           HAL_PCD_DataOutStageCallback(hpcd, 0U);
 8002586:	2100      	movs	r1, #0
 8002588:	0028      	movs	r0, r5
 800258a:	f003 fabf 	bl	8005b0c <HAL_PCD_DataOutStageCallback>
          PCD_SET_EP_RX_CNT(hpcd->Instance, PCD_ENDP0, ep->maxpacket)
 800258e:	682b      	ldr	r3, [r5, #0]
 8002590:	2250      	movs	r2, #80	; 0x50
 8002592:	5a9a      	ldrh	r2, [r3, r2]
 8002594:	189a      	adds	r2, r3, r2
 8002596:	4b2a      	ldr	r3, [pc, #168]	; (8002640 <PCD_EP_ISR_Handler+0x4ac>)
 8002598:	469c      	mov	ip, r3
 800259a:	4462      	add	r2, ip
 800259c:	002b      	movs	r3, r5
 800259e:	3309      	adds	r3, #9
 80025a0:	33ff      	adds	r3, #255	; 0xff
 80025a2:	68d9      	ldr	r1, [r3, #12]
 80025a4:	293e      	cmp	r1, #62	; 0x3e
 80025a6:	d800      	bhi.n	80025aa <PCD_EP_ISR_Handler+0x416>
 80025a8:	e657      	b.n	800225a <PCD_EP_ISR_Handler+0xc6>
 80025aa:	094b      	lsrs	r3, r1, #5
 80025ac:	b29b      	uxth	r3, r3
 80025ae:	06c9      	lsls	r1, r1, #27
 80025b0:	d101      	bne.n	80025b6 <PCD_EP_ISR_Handler+0x422>
 80025b2:	3b01      	subs	r3, #1
 80025b4:	b29b      	uxth	r3, r3
 80025b6:	029b      	lsls	r3, r3, #10
 80025b8:	b29b      	uxth	r3, r3
 80025ba:	4922      	ldr	r1, [pc, #136]	; (8002644 <PCD_EP_ISR_Handler+0x4b0>)
 80025bc:	430b      	orrs	r3, r1
 80025be:	8013      	strh	r3, [r2, #0]
          PCD_SET_EP_RX_STATUS(hpcd->Instance, PCD_ENDP0, USB_EP_RX_VALID)
 80025c0:	6829      	ldr	r1, [r5, #0]
 80025c2:	880a      	ldrh	r2, [r1, #0]
 80025c4:	4b20      	ldr	r3, [pc, #128]	; (8002648 <PCD_EP_ISR_Handler+0x4b4>)
 80025c6:	401a      	ands	r2, r3
 80025c8:	23c0      	movs	r3, #192	; 0xc0
 80025ca:	019b      	lsls	r3, r3, #6
 80025cc:	405a      	eors	r2, r3
 80025ce:	4b1f      	ldr	r3, [pc, #124]	; (800264c <PCD_EP_ISR_Handler+0x4b8>)
 80025d0:	4313      	orrs	r3, r2
 80025d2:	800b      	strh	r3, [r1, #0]
 80025d4:	e79b      	b.n	800250e <PCD_EP_ISR_Handler+0x37a>
              PCD_WritePMA(hpcd->Instance, ep->xfer_buff, ep->pmaaddr0, ep->xfer_count);
 80025d6:	1869      	adds	r1, r5, r1
 80025d8:	8dca      	ldrh	r2, [r1, #46]	; 0x2e
 80025da:	6b89      	ldr	r1, [r1, #56]	; 0x38
 80025dc:	f7ff fca2 	bl	8001f24 <PCD_WritePMA>
 80025e0:	e760      	b.n	80024a4 <PCD_EP_ISR_Handler+0x310>
            ep->xfer_count = PCD_GET_EP_DBUF1_CNT(hpcd->Instance, ep->num);
 80025e2:	2250      	movs	r2, #80	; 0x50
 80025e4:	5a82      	ldrh	r2, [r0, r2]
 80025e6:	00db      	lsls	r3, r3, #3
 80025e8:	18d3      	adds	r3, r2, r3
 80025ea:	181b      	adds	r3, r3, r0
 80025ec:	4a14      	ldr	r2, [pc, #80]	; (8002640 <PCD_EP_ISR_Handler+0x4ac>)
 80025ee:	4694      	mov	ip, r2
 80025f0:	4463      	add	r3, ip
 80025f2:	881b      	ldrh	r3, [r3, #0]
 80025f4:	059b      	lsls	r3, r3, #22
 80025f6:	0d9b      	lsrs	r3, r3, #22
 80025f8:	00e1      	lsls	r1, r4, #3
 80025fa:	1b09      	subs	r1, r1, r4
 80025fc:	008a      	lsls	r2, r1, #2
 80025fe:	0011      	movs	r1, r2
 8002600:	18aa      	adds	r2, r5, r2
 8002602:	6413      	str	r3, [r2, #64]	; 0x40
            if (ep->xfer_count != 0U)
 8002604:	2b00      	cmp	r3, #0
 8002606:	d100      	bne.n	800260a <PCD_EP_ISR_Handler+0x476>
 8002608:	e74c      	b.n	80024a4 <PCD_EP_ISR_Handler+0x310>
              PCD_WritePMA(hpcd->Instance, ep->xfer_buff, ep->pmaaddr1, ep->xfer_count);
 800260a:	1869      	adds	r1, r5, r1
 800260c:	8e0a      	ldrh	r2, [r1, #48]	; 0x30
 800260e:	6b89      	ldr	r1, [r1, #56]	; 0x38
 8002610:	f7ff fc88 	bl	8001f24 <PCD_WritePMA>
 8002614:	e746      	b.n	80024a4 <PCD_EP_ISR_Handler+0x310>
        }
        else
        {
          HAL_PCD_EP_Transmit(hpcd, ep->num, ep->xfer_buff, ep->xfer_len);
 8002616:	00e1      	lsls	r1, r4, #3
 8002618:	1b0c      	subs	r4, r1, r4
 800261a:	00a1      	lsls	r1, r4, #2
 800261c:	1869      	adds	r1, r5, r1
 800261e:	3128      	adds	r1, #40	; 0x28
 8002620:	7809      	ldrb	r1, [r1, #0]
 8002622:	0028      	movs	r0, r5
 8002624:	f7ff fc92 	bl	8001f4c <HAL_PCD_EP_Transmit>
 8002628:	e771      	b.n	800250e <PCD_EP_ISR_Handler+0x37a>
        }
      } 
    }
  }
  return HAL_OK;
}
 800262a:	2000      	movs	r0, #0
 800262c:	b003      	add	sp, #12
 800262e:	bdf0      	pop	{r4, r5, r6, r7, pc}
 8002630:	00000402 	.word	0x00000402
 8002634:	00000f0f 	.word	0x00000f0f
 8002638:	ffffc080 	.word	0xffffc080
 800263c:	00000f8f 	.word	0x00000f8f
 8002640:	00000406 	.word	0x00000406
 8002644:	ffff8000 	.word	0xffff8000
 8002648:	ffffbf8f 	.word	0xffffbf8f
 800264c:	ffff8080 	.word	0xffff8080

08002650 <HAL_PCD_IRQHandler>:
{
 8002650:	b570      	push	{r4, r5, r6, lr}
 8002652:	0004      	movs	r4, r0
  if (__HAL_PCD_GET_FLAG (hpcd, USB_ISTR_CTR))
 8002654:	2344      	movs	r3, #68	; 0x44
 8002656:	6802      	ldr	r2, [r0, #0]
 8002658:	5ad3      	ldrh	r3, [r2, r3]
 800265a:	b21b      	sxth	r3, r3
 800265c:	2b00      	cmp	r3, #0
 800265e:	db48      	blt.n	80026f2 <HAL_PCD_IRQHandler+0xa2>
  if (__HAL_PCD_GET_FLAG (hpcd, USB_ISTR_RESET))
 8002660:	6823      	ldr	r3, [r4, #0]
 8002662:	2244      	movs	r2, #68	; 0x44
 8002664:	5a9a      	ldrh	r2, [r3, r2]
 8002666:	0552      	lsls	r2, r2, #21
 8002668:	d446      	bmi.n	80026f8 <HAL_PCD_IRQHandler+0xa8>
  if (__HAL_PCD_GET_FLAG (hpcd, USB_ISTR_PMAOVR))
 800266a:	6823      	ldr	r3, [r4, #0]
 800266c:	2244      	movs	r2, #68	; 0x44
 800266e:	5a9a      	ldrh	r2, [r3, r2]
 8002670:	0452      	lsls	r2, r2, #17
 8002672:	d504      	bpl.n	800267e <HAL_PCD_IRQHandler+0x2e>
    __HAL_PCD_CLEAR_FLAG(hpcd, USB_ISTR_PMAOVR);    
 8002674:	2144      	movs	r1, #68	; 0x44
 8002676:	5a5a      	ldrh	r2, [r3, r1]
 8002678:	4835      	ldr	r0, [pc, #212]	; (8002750 <HAL_PCD_IRQHandler+0x100>)
 800267a:	4002      	ands	r2, r0
 800267c:	525a      	strh	r2, [r3, r1]
  if (__HAL_PCD_GET_FLAG (hpcd, USB_ISTR_ERR))
 800267e:	6823      	ldr	r3, [r4, #0]
 8002680:	2244      	movs	r2, #68	; 0x44
 8002682:	5a9a      	ldrh	r2, [r3, r2]
 8002684:	0492      	lsls	r2, r2, #18
 8002686:	d504      	bpl.n	8002692 <HAL_PCD_IRQHandler+0x42>
    __HAL_PCD_CLEAR_FLAG(hpcd, USB_ISTR_ERR); 
 8002688:	2144      	movs	r1, #68	; 0x44
 800268a:	5a5a      	ldrh	r2, [r3, r1]
 800268c:	4831      	ldr	r0, [pc, #196]	; (8002754 <HAL_PCD_IRQHandler+0x104>)
 800268e:	4002      	ands	r2, r0
 8002690:	525a      	strh	r2, [r3, r1]
  if (__HAL_PCD_GET_FLAG (hpcd, USB_ISTR_WKUP))
 8002692:	6823      	ldr	r3, [r4, #0]
 8002694:	2244      	movs	r2, #68	; 0x44
 8002696:	5a9a      	ldrh	r2, [r3, r2]
 8002698:	04d2      	lsls	r2, r2, #19
 800269a:	d43a      	bmi.n	8002712 <HAL_PCD_IRQHandler+0xc2>
  if (__HAL_PCD_GET_FLAG (hpcd, USB_ISTR_SUSP))
 800269c:	6823      	ldr	r3, [r4, #0]
 800269e:	2244      	movs	r2, #68	; 0x44
 80026a0:	5a9a      	ldrh	r2, [r3, r2]
 80026a2:	0512      	lsls	r2, r2, #20
 80026a4:	d515      	bpl.n	80026d2 <HAL_PCD_IRQHandler+0x82>
    __HAL_PCD_CLEAR_FLAG(hpcd, USB_ISTR_SUSP);  
 80026a6:	2144      	movs	r1, #68	; 0x44
 80026a8:	5a5a      	ldrh	r2, [r3, r1]
 80026aa:	482b      	ldr	r0, [pc, #172]	; (8002758 <HAL_PCD_IRQHandler+0x108>)
 80026ac:	4002      	ands	r2, r0
 80026ae:	525a      	strh	r2, [r3, r1]
    hpcd->Instance->CNTR |= USB_CNTR_FSUSP;
 80026b0:	6820      	ldr	r0, [r4, #0]
 80026b2:	2240      	movs	r2, #64	; 0x40
 80026b4:	5a83      	ldrh	r3, [r0, r2]
 80026b6:	2508      	movs	r5, #8
 80026b8:	432b      	orrs	r3, r5
 80026ba:	b29b      	uxth	r3, r3
 80026bc:	5283      	strh	r3, [r0, r2]
    hpcd->Instance->CNTR |= USB_CNTR_LPMODE;
 80026be:	6820      	ldr	r0, [r4, #0]
 80026c0:	5a83      	ldrh	r3, [r0, r2]
 80026c2:	2504      	movs	r5, #4
 80026c4:	432b      	orrs	r3, r5
 80026c6:	b29b      	uxth	r3, r3
 80026c8:	5283      	strh	r3, [r0, r2]
    if (__HAL_PCD_GET_FLAG (hpcd, USB_ISTR_WKUP) == 0)
 80026ca:	6823      	ldr	r3, [r4, #0]
 80026cc:	5a5b      	ldrh	r3, [r3, r1]
 80026ce:	04db      	lsls	r3, r3, #19
 80026d0:	d531      	bpl.n	8002736 <HAL_PCD_IRQHandler+0xe6>
  if (__HAL_PCD_GET_FLAG (hpcd, USB_ISTR_SOF))
 80026d2:	6823      	ldr	r3, [r4, #0]
 80026d4:	2244      	movs	r2, #68	; 0x44
 80026d6:	5a9a      	ldrh	r2, [r3, r2]
 80026d8:	0592      	lsls	r2, r2, #22
 80026da:	d430      	bmi.n	800273e <HAL_PCD_IRQHandler+0xee>
  if (__HAL_PCD_GET_FLAG (hpcd, USB_ISTR_ESOF))
 80026dc:	6823      	ldr	r3, [r4, #0]
 80026de:	2244      	movs	r2, #68	; 0x44
 80026e0:	5a9a      	ldrh	r2, [r3, r2]
 80026e2:	05d2      	lsls	r2, r2, #23
 80026e4:	d504      	bpl.n	80026f0 <HAL_PCD_IRQHandler+0xa0>
    __HAL_PCD_CLEAR_FLAG(hpcd, USB_ISTR_ESOF); 
 80026e6:	2144      	movs	r1, #68	; 0x44
 80026e8:	5a5a      	ldrh	r2, [r3, r1]
 80026ea:	481c      	ldr	r0, [pc, #112]	; (800275c <HAL_PCD_IRQHandler+0x10c>)
 80026ec:	4002      	ands	r2, r0
 80026ee:	525a      	strh	r2, [r3, r1]
}
 80026f0:	bd70      	pop	{r4, r5, r6, pc}
    PCD_EP_ISR_Handler(hpcd);
 80026f2:	f7ff fd4f 	bl	8002194 <PCD_EP_ISR_Handler>
 80026f6:	e7b3      	b.n	8002660 <HAL_PCD_IRQHandler+0x10>
    __HAL_PCD_CLEAR_FLAG(hpcd, USB_ISTR_RESET);
 80026f8:	2144      	movs	r1, #68	; 0x44
 80026fa:	5a5a      	ldrh	r2, [r3, r1]
 80026fc:	4818      	ldr	r0, [pc, #96]	; (8002760 <HAL_PCD_IRQHandler+0x110>)
 80026fe:	4002      	ands	r2, r0
 8002700:	525a      	strh	r2, [r3, r1]
    HAL_PCD_ResetCallback(hpcd);
 8002702:	0020      	movs	r0, r4
 8002704:	f003 fa25 	bl	8005b52 <HAL_PCD_ResetCallback>
    HAL_PCD_SetAddress(hpcd, 0U);
 8002708:	2100      	movs	r1, #0
 800270a:	0020      	movs	r0, r4
 800270c:	f7fe ff80 	bl	8001610 <HAL_PCD_SetAddress>
 8002710:	e7ab      	b.n	800266a <HAL_PCD_IRQHandler+0x1a>
    hpcd->Instance->CNTR &= (uint16_t)(~(USB_CNTR_LPMODE));
 8002712:	2240      	movs	r2, #64	; 0x40
 8002714:	5a99      	ldrh	r1, [r3, r2]
 8002716:	2004      	movs	r0, #4
 8002718:	4381      	bics	r1, r0
 800271a:	5299      	strh	r1, [r3, r2]
    hpcd->Instance->CNTR = wInterrupt_Mask;
 800271c:	4b11      	ldr	r3, [pc, #68]	; (8002764 <HAL_PCD_IRQHandler+0x114>)
 800271e:	6821      	ldr	r1, [r4, #0]
 8002720:	528b      	strh	r3, [r1, r2]
    HAL_PCD_ResumeCallback(hpcd);
 8002722:	0020      	movs	r0, r4
 8002724:	f003 fa34 	bl	8005b90 <HAL_PCD_ResumeCallback>
    __HAL_PCD_CLEAR_FLAG(hpcd, USB_ISTR_WKUP);     
 8002728:	6821      	ldr	r1, [r4, #0]
 800272a:	2244      	movs	r2, #68	; 0x44
 800272c:	5a8b      	ldrh	r3, [r1, r2]
 800272e:	480e      	ldr	r0, [pc, #56]	; (8002768 <HAL_PCD_IRQHandler+0x118>)
 8002730:	4003      	ands	r3, r0
 8002732:	528b      	strh	r3, [r1, r2]
 8002734:	e7b2      	b.n	800269c <HAL_PCD_IRQHandler+0x4c>
      HAL_PCD_SuspendCallback(hpcd);
 8002736:	0020      	movs	r0, r4
 8002738:	f003 fa18 	bl	8005b6c <HAL_PCD_SuspendCallback>
 800273c:	e7c9      	b.n	80026d2 <HAL_PCD_IRQHandler+0x82>
    __HAL_PCD_CLEAR_FLAG(hpcd, USB_ISTR_SOF); 
 800273e:	2144      	movs	r1, #68	; 0x44
 8002740:	5a5a      	ldrh	r2, [r3, r1]
 8002742:	480a      	ldr	r0, [pc, #40]	; (800276c <HAL_PCD_IRQHandler+0x11c>)
 8002744:	4002      	ands	r2, r0
 8002746:	525a      	strh	r2, [r3, r1]
    HAL_PCD_SOFCallback(hpcd);
 8002748:	0020      	movs	r0, r4
 800274a:	f003 f9fb 	bl	8005b44 <HAL_PCD_SOFCallback>
 800274e:	e7c5      	b.n	80026dc <HAL_PCD_IRQHandler+0x8c>
 8002750:	ffffbfff 	.word	0xffffbfff
 8002754:	ffffdfff 	.word	0xffffdfff
 8002758:	fffff7ff 	.word	0xfffff7ff
 800275c:	fffffeff 	.word	0xfffffeff
 8002760:	fffffbff 	.word	0xfffffbff
 8002764:	ffffbd00 	.word	0xffffbd00
 8002768:	ffffefff 	.word	0xffffefff
 800276c:	fffffdff 	.word	0xfffffdff

08002770 <HAL_PCDEx_PMAConfig>:
HAL_StatusTypeDef  HAL_PCDEx_PMAConfig(PCD_HandleTypeDef *hpcd, 
                        uint16_t ep_addr,
                        uint16_t ep_kind,
                        uint32_t pmaadress)

{
 8002770:	b510      	push	{r4, lr}
  PCD_EPTypeDef *ep;
  
  /* initialize ep structure*/
  if ((0x80U & ep_addr) == 0x80U)
 8002772:	060c      	lsls	r4, r1, #24
 8002774:	d50f      	bpl.n	8002796 <HAL_PCDEx_PMAConfig+0x26>
  {
    ep = &hpcd->IN_ep[ep_addr & 0x7FU];
 8002776:	247f      	movs	r4, #127	; 0x7f
 8002778:	4021      	ands	r1, r4
 800277a:	00cc      	lsls	r4, r1, #3
 800277c:	1a61      	subs	r1, r4, r1
 800277e:	008c      	lsls	r4, r1, #2
 8002780:	3428      	adds	r4, #40	; 0x28
 8002782:	1900      	adds	r0, r0, r4
  {
    ep = &hpcd->OUT_ep[ep_addr];
  }
  
  /* Here we check if the endpoint is single or double Buffer*/
  if (ep_kind == PCD_SNG_BUF)
 8002784:	2a00      	cmp	r2, #0
 8002786:	d00d      	beq.n	80027a4 <HAL_PCDEx_PMAConfig+0x34>
    ep->pmaadress = (uint16_t)pmaadress;
  }
  else /*USB_DBL_BUF*/
  {
    /*Double Buffer Endpoint*/
    ep->doublebuffer = 1U;
 8002788:	2201      	movs	r2, #1
 800278a:	7282      	strb	r2, [r0, #10]
    /*Configure the PMA*/
    ep->pmaaddr0 =  pmaadress & 0xFFFFU;
 800278c:	80c3      	strh	r3, [r0, #6]
    ep->pmaaddr1 =  (pmaadress & 0xFFFF0000U) >> 16U;
 800278e:	0c1b      	lsrs	r3, r3, #16
 8002790:	8103      	strh	r3, [r0, #8]
  }
  
  return HAL_OK;
}
 8002792:	2000      	movs	r0, #0
 8002794:	bd10      	pop	{r4, pc}
    ep = &hpcd->OUT_ep[ep_addr];
 8002796:	00cc      	lsls	r4, r1, #3
 8002798:	1a61      	subs	r1, r4, r1
 800279a:	008c      	lsls	r4, r1, #2
 800279c:	3409      	adds	r4, #9
 800279e:	34ff      	adds	r4, #255	; 0xff
 80027a0:	1900      	adds	r0, r0, r4
 80027a2:	e7ef      	b.n	8002784 <HAL_PCDEx_PMAConfig+0x14>
    ep->doublebuffer = 0U;
 80027a4:	7282      	strb	r2, [r0, #10]
    ep->pmaadress = (uint16_t)pmaadress;
 80027a6:	8083      	strh	r3, [r0, #4]
 80027a8:	e7f3      	b.n	8002792 <HAL_PCDEx_PMAConfig+0x22>
	...

080027ac <HAL_RCC_OscConfig>:
  *         supported by this macro. User should request a transition to HSE Off
  *         first and then HSE On or HSE Bypass.
  * @retval HAL status
  */
HAL_StatusTypeDef HAL_RCC_OscConfig(RCC_OscInitTypeDef  *RCC_OscInitStruct)
{
 80027ac:	b570      	push	{r4, r5, r6, lr}
 80027ae:	0004      	movs	r4, r0
  /* Check the parameters */
  assert_param(RCC_OscInitStruct != NULL);
  assert_param(IS_RCC_OSCILLATORTYPE(RCC_OscInitStruct->OscillatorType));

  /*------------------------------- HSE Configuration ------------------------*/ 
  if(((RCC_OscInitStruct->OscillatorType) & RCC_OSCILLATORTYPE_HSE) == RCC_OSCILLATORTYPE_HSE)
 80027b0:	6803      	ldr	r3, [r0, #0]
 80027b2:	07db      	lsls	r3, r3, #31
 80027b4:	d53b      	bpl.n	800282e <HAL_RCC_OscConfig+0x82>
  {
    /* Check the parameters */
    assert_param(IS_RCC_HSE(RCC_OscInitStruct->HSEState));

    /* When the HSE is used as system clock or clock source for PLL in these cases it is not allowed to be disabled */
    if((__HAL_RCC_GET_SYSCLK_SOURCE() == RCC_SYSCLKSOURCE_STATUS_HSE)
 80027b6:	4b87      	ldr	r3, [pc, #540]	; (80029d4 <HAL_RCC_OscConfig+0x228>)
 80027b8:	685a      	ldr	r2, [r3, #4]
 80027ba:	230c      	movs	r3, #12
 80027bc:	4013      	ands	r3, r2
 80027be:	2b04      	cmp	r3, #4
 80027c0:	d02d      	beq.n	800281e <HAL_RCC_OscConfig+0x72>
       || ((__HAL_RCC_GET_SYSCLK_SOURCE() == RCC_SYSCLKSOURCE_STATUS_PLLCLK) && (__HAL_RCC_GET_PLL_OSCSOURCE() == RCC_PLLSOURCE_HSE)))
 80027c2:	4b84      	ldr	r3, [pc, #528]	; (80029d4 <HAL_RCC_OscConfig+0x228>)
 80027c4:	685a      	ldr	r2, [r3, #4]
 80027c6:	230c      	movs	r3, #12
 80027c8:	4013      	ands	r3, r2
 80027ca:	2b08      	cmp	r3, #8
 80027cc:	d01e      	beq.n	800280c <HAL_RCC_OscConfig+0x60>
      }
    }
    else
    {
      /* Set the new HSE configuration ---------------------------------------*/
      __HAL_RCC_HSE_CONFIG(RCC_OscInitStruct->HSEState);
 80027ce:	6863      	ldr	r3, [r4, #4]
 80027d0:	2b01      	cmp	r3, #1
 80027d2:	d052      	beq.n	800287a <HAL_RCC_OscConfig+0xce>
 80027d4:	2b00      	cmp	r3, #0
 80027d6:	d157      	bne.n	8002888 <HAL_RCC_OscConfig+0xdc>
 80027d8:	4b7e      	ldr	r3, [pc, #504]	; (80029d4 <HAL_RCC_OscConfig+0x228>)
 80027da:	681a      	ldr	r2, [r3, #0]
 80027dc:	497e      	ldr	r1, [pc, #504]	; (80029d8 <HAL_RCC_OscConfig+0x22c>)
 80027de:	400a      	ands	r2, r1
 80027e0:	601a      	str	r2, [r3, #0]
 80027e2:	681a      	ldr	r2, [r3, #0]
 80027e4:	497d      	ldr	r1, [pc, #500]	; (80029dc <HAL_RCC_OscConfig+0x230>)
 80027e6:	400a      	ands	r2, r1
 80027e8:	601a      	str	r2, [r3, #0]


       /* Check the HSE State */
      if(RCC_OscInitStruct->HSEState != RCC_HSE_OFF)
 80027ea:	6863      	ldr	r3, [r4, #4]
 80027ec:	2b00      	cmp	r3, #0
 80027ee:	d063      	beq.n	80028b8 <HAL_RCC_OscConfig+0x10c>
      {
        /* Get Start Tick */
        tickstart = HAL_GetTick();
 80027f0:	f7fd fd5e 	bl	80002b0 <HAL_GetTick>
 80027f4:	0005      	movs	r5, r0

        /* Wait till HSE is ready */
        while(__HAL_RCC_GET_FLAG(RCC_FLAG_HSERDY) == RESET)
 80027f6:	4b77      	ldr	r3, [pc, #476]	; (80029d4 <HAL_RCC_OscConfig+0x228>)
 80027f8:	681b      	ldr	r3, [r3, #0]
 80027fa:	039b      	lsls	r3, r3, #14
 80027fc:	d417      	bmi.n	800282e <HAL_RCC_OscConfig+0x82>
        {
          if((HAL_GetTick() - tickstart ) > HSE_TIMEOUT_VALUE)
 80027fe:	f7fd fd57 	bl	80002b0 <HAL_GetTick>
 8002802:	1b40      	subs	r0, r0, r5
 8002804:	2864      	cmp	r0, #100	; 0x64
 8002806:	d9f6      	bls.n	80027f6 <HAL_RCC_OscConfig+0x4a>
          {
            return HAL_TIMEOUT;
 8002808:	2003      	movs	r0, #3
 800280a:	e0e0      	b.n	80029ce <HAL_RCC_OscConfig+0x222>
       || ((__HAL_RCC_GET_SYSCLK_SOURCE() == RCC_SYSCLKSOURCE_STATUS_PLLCLK) && (__HAL_RCC_GET_PLL_OSCSOURCE() == RCC_PLLSOURCE_HSE)))
 800280c:	4b71      	ldr	r3, [pc, #452]	; (80029d4 <HAL_RCC_OscConfig+0x228>)
 800280e:	685b      	ldr	r3, [r3, #4]
 8002810:	22c0      	movs	r2, #192	; 0xc0
 8002812:	0252      	lsls	r2, r2, #9
 8002814:	4013      	ands	r3, r2
 8002816:	2280      	movs	r2, #128	; 0x80
 8002818:	0252      	lsls	r2, r2, #9
 800281a:	4293      	cmp	r3, r2
 800281c:	d1d7      	bne.n	80027ce <HAL_RCC_OscConfig+0x22>
      if((__HAL_RCC_GET_FLAG(RCC_FLAG_HSERDY) != RESET) && (RCC_OscInitStruct->HSEState == RCC_HSE_OFF))
 800281e:	4b6d      	ldr	r3, [pc, #436]	; (80029d4 <HAL_RCC_OscConfig+0x228>)
 8002820:	681b      	ldr	r3, [r3, #0]
 8002822:	039b      	lsls	r3, r3, #14
 8002824:	d503      	bpl.n	800282e <HAL_RCC_OscConfig+0x82>
 8002826:	6863      	ldr	r3, [r4, #4]
 8002828:	2b00      	cmp	r3, #0
 800282a:	d100      	bne.n	800282e <HAL_RCC_OscConfig+0x82>
 800282c:	e0cc      	b.n	80029c8 <HAL_RCC_OscConfig+0x21c>
//    }
//  }

#if defined(RCC_HSI48_SUPPORT)
  /*----------------------------- HSI48 Configuration --------------------------*/
  if(((RCC_OscInitStruct->OscillatorType) & RCC_OSCILLATORTYPE_HSI48) == RCC_OSCILLATORTYPE_HSI48)
 800282e:	6823      	ldr	r3, [r4, #0]
 8002830:	069b      	lsls	r3, r3, #26
 8002832:	d572      	bpl.n	800291a <HAL_RCC_OscConfig+0x16e>
  {
    /* Check the parameters */
    assert_param(IS_RCC_HSI48(RCC_OscInitStruct->HSI48State));

    /* When the HSI48 is used as system clock it is not allowed to be disabled */
    if((__HAL_RCC_GET_SYSCLK_SOURCE() == RCC_SYSCLKSOURCE_STATUS_HSI48) ||
 8002834:	4b67      	ldr	r3, [pc, #412]	; (80029d4 <HAL_RCC_OscConfig+0x228>)
 8002836:	685a      	ldr	r2, [r3, #4]
 8002838:	230c      	movs	r3, #12
 800283a:	4013      	ands	r3, r2
 800283c:	2b0c      	cmp	r3, #12
 800283e:	d050      	beq.n	80028e2 <HAL_RCC_OscConfig+0x136>
       ((__HAL_RCC_GET_SYSCLK_SOURCE() == RCC_SYSCLKSOURCE_STATUS_PLLCLK) && (__HAL_RCC_GET_PLL_OSCSOURCE() == RCC_PLLSOURCE_HSI48)))
 8002840:	4b64      	ldr	r3, [pc, #400]	; (80029d4 <HAL_RCC_OscConfig+0x228>)
 8002842:	685a      	ldr	r2, [r3, #4]
 8002844:	230c      	movs	r3, #12
 8002846:	4013      	ands	r3, r2
    if((__HAL_RCC_GET_SYSCLK_SOURCE() == RCC_SYSCLKSOURCE_STATUS_HSI48) ||
 8002848:	2b08      	cmp	r3, #8
 800284a:	d043      	beq.n	80028d4 <HAL_RCC_OscConfig+0x128>
      }
    }
    else
    {
      /* Check the HSI48 State */
      if(RCC_OscInitStruct->HSI48State != RCC_HSI48_OFF)
 800284c:	6a23      	ldr	r3, [r4, #32]
 800284e:	2b00      	cmp	r3, #0
 8002850:	d050      	beq.n	80028f4 <HAL_RCC_OscConfig+0x148>
      {
        /* Enable the Internal High Speed oscillator (HSI48). */
        __HAL_RCC_HSI48_ENABLE();
 8002852:	4a60      	ldr	r2, [pc, #384]	; (80029d4 <HAL_RCC_OscConfig+0x228>)
 8002854:	6b51      	ldr	r1, [r2, #52]	; 0x34
 8002856:	2380      	movs	r3, #128	; 0x80
 8002858:	025b      	lsls	r3, r3, #9
 800285a:	430b      	orrs	r3, r1
 800285c:	6353      	str	r3, [r2, #52]	; 0x34

        /* Get Start Tick */
        tickstart = HAL_GetTick();
 800285e:	f7fd fd27 	bl	80002b0 <HAL_GetTick>
 8002862:	0005      	movs	r5, r0
      
        /* Wait till HSI48 is ready */  
        while(__HAL_RCC_GET_FLAG(RCC_FLAG_HSI48RDY) == RESET)
 8002864:	4b5b      	ldr	r3, [pc, #364]	; (80029d4 <HAL_RCC_OscConfig+0x228>)
 8002866:	6b5b      	ldr	r3, [r3, #52]	; 0x34
 8002868:	03db      	lsls	r3, r3, #15
 800286a:	d456      	bmi.n	800291a <HAL_RCC_OscConfig+0x16e>
        {
          if((HAL_GetTick() - tickstart) > HSI48_TIMEOUT_VALUE)
 800286c:	f7fd fd20 	bl	80002b0 <HAL_GetTick>
 8002870:	1b40      	subs	r0, r0, r5
 8002872:	2802      	cmp	r0, #2
 8002874:	d9f6      	bls.n	8002864 <HAL_RCC_OscConfig+0xb8>
          {
            return HAL_TIMEOUT;
 8002876:	2003      	movs	r0, #3
 8002878:	e0a9      	b.n	80029ce <HAL_RCC_OscConfig+0x222>
      __HAL_RCC_HSE_CONFIG(RCC_OscInitStruct->HSEState);
 800287a:	4a56      	ldr	r2, [pc, #344]	; (80029d4 <HAL_RCC_OscConfig+0x228>)
 800287c:	6811      	ldr	r1, [r2, #0]
 800287e:	2380      	movs	r3, #128	; 0x80
 8002880:	025b      	lsls	r3, r3, #9
 8002882:	430b      	orrs	r3, r1
 8002884:	6013      	str	r3, [r2, #0]
 8002886:	e7b0      	b.n	80027ea <HAL_RCC_OscConfig+0x3e>
 8002888:	2b05      	cmp	r3, #5
 800288a:	d009      	beq.n	80028a0 <HAL_RCC_OscConfig+0xf4>
 800288c:	4b51      	ldr	r3, [pc, #324]	; (80029d4 <HAL_RCC_OscConfig+0x228>)
 800288e:	681a      	ldr	r2, [r3, #0]
 8002890:	4951      	ldr	r1, [pc, #324]	; (80029d8 <HAL_RCC_OscConfig+0x22c>)
 8002892:	400a      	ands	r2, r1
 8002894:	601a      	str	r2, [r3, #0]
 8002896:	681a      	ldr	r2, [r3, #0]
 8002898:	4950      	ldr	r1, [pc, #320]	; (80029dc <HAL_RCC_OscConfig+0x230>)
 800289a:	400a      	ands	r2, r1
 800289c:	601a      	str	r2, [r3, #0]
 800289e:	e7a4      	b.n	80027ea <HAL_RCC_OscConfig+0x3e>
 80028a0:	4b4c      	ldr	r3, [pc, #304]	; (80029d4 <HAL_RCC_OscConfig+0x228>)
 80028a2:	6819      	ldr	r1, [r3, #0]
 80028a4:	2280      	movs	r2, #128	; 0x80
 80028a6:	02d2      	lsls	r2, r2, #11
 80028a8:	430a      	orrs	r2, r1
 80028aa:	601a      	str	r2, [r3, #0]
 80028ac:	6819      	ldr	r1, [r3, #0]
 80028ae:	2280      	movs	r2, #128	; 0x80
 80028b0:	0252      	lsls	r2, r2, #9
 80028b2:	430a      	orrs	r2, r1
 80028b4:	601a      	str	r2, [r3, #0]
 80028b6:	e798      	b.n	80027ea <HAL_RCC_OscConfig+0x3e>
        tickstart = HAL_GetTick();
 80028b8:	f7fd fcfa 	bl	80002b0 <HAL_GetTick>
 80028bc:	0005      	movs	r5, r0
        while(__HAL_RCC_GET_FLAG(RCC_FLAG_HSERDY) != RESET)
 80028be:	4b45      	ldr	r3, [pc, #276]	; (80029d4 <HAL_RCC_OscConfig+0x228>)
 80028c0:	681b      	ldr	r3, [r3, #0]
 80028c2:	039b      	lsls	r3, r3, #14
 80028c4:	d5b3      	bpl.n	800282e <HAL_RCC_OscConfig+0x82>
           if((HAL_GetTick() - tickstart ) > HSE_TIMEOUT_VALUE)
 80028c6:	f7fd fcf3 	bl	80002b0 <HAL_GetTick>
 80028ca:	1b40      	subs	r0, r0, r5
 80028cc:	2864      	cmp	r0, #100	; 0x64
 80028ce:	d9f6      	bls.n	80028be <HAL_RCC_OscConfig+0x112>
            return HAL_TIMEOUT;
 80028d0:	2003      	movs	r0, #3
 80028d2:	e07c      	b.n	80029ce <HAL_RCC_OscConfig+0x222>
       ((__HAL_RCC_GET_SYSCLK_SOURCE() == RCC_SYSCLKSOURCE_STATUS_PLLCLK) && (__HAL_RCC_GET_PLL_OSCSOURCE() == RCC_PLLSOURCE_HSI48)))
 80028d4:	4b3f      	ldr	r3, [pc, #252]	; (80029d4 <HAL_RCC_OscConfig+0x228>)
 80028d6:	685b      	ldr	r3, [r3, #4]
 80028d8:	22c0      	movs	r2, #192	; 0xc0
 80028da:	0252      	lsls	r2, r2, #9
 80028dc:	4013      	ands	r3, r2
 80028de:	4293      	cmp	r3, r2
 80028e0:	d1b4      	bne.n	800284c <HAL_RCC_OscConfig+0xa0>
      if((__HAL_RCC_GET_FLAG(RCC_FLAG_HSI48RDY) != RESET) && (RCC_OscInitStruct->HSI48State != RCC_HSI48_ON))
 80028e2:	4b3c      	ldr	r3, [pc, #240]	; (80029d4 <HAL_RCC_OscConfig+0x228>)
 80028e4:	6b5b      	ldr	r3, [r3, #52]	; 0x34
 80028e6:	03db      	lsls	r3, r3, #15
 80028e8:	d517      	bpl.n	800291a <HAL_RCC_OscConfig+0x16e>
 80028ea:	6a23      	ldr	r3, [r4, #32]
 80028ec:	2b01      	cmp	r3, #1
 80028ee:	d014      	beq.n	800291a <HAL_RCC_OscConfig+0x16e>
        return HAL_ERROR;
 80028f0:	2001      	movs	r0, #1
 80028f2:	e06c      	b.n	80029ce <HAL_RCC_OscConfig+0x222>
        } 
      }
      else
      {
        /* Disable the Internal High Speed oscillator (HSI48). */
        __HAL_RCC_HSI48_DISABLE();
 80028f4:	4a37      	ldr	r2, [pc, #220]	; (80029d4 <HAL_RCC_OscConfig+0x228>)
 80028f6:	6b53      	ldr	r3, [r2, #52]	; 0x34
 80028f8:	4937      	ldr	r1, [pc, #220]	; (80029d8 <HAL_RCC_OscConfig+0x22c>)
 80028fa:	400b      	ands	r3, r1
 80028fc:	6353      	str	r3, [r2, #52]	; 0x34

        /* Get Start Tick */
        tickstart = HAL_GetTick();
 80028fe:	f7fd fcd7 	bl	80002b0 <HAL_GetTick>
 8002902:	0005      	movs	r5, r0
      
        /* Wait till HSI48 is ready */  
        while(__HAL_RCC_GET_FLAG(RCC_FLAG_HSI48RDY) != RESET)
 8002904:	4b33      	ldr	r3, [pc, #204]	; (80029d4 <HAL_RCC_OscConfig+0x228>)
 8002906:	6b5b      	ldr	r3, [r3, #52]	; 0x34
 8002908:	03db      	lsls	r3, r3, #15
 800290a:	d506      	bpl.n	800291a <HAL_RCC_OscConfig+0x16e>
        {
          if((HAL_GetTick() - tickstart) > HSI48_TIMEOUT_VALUE)
 800290c:	f7fd fcd0 	bl	80002b0 <HAL_GetTick>
 8002910:	1b40      	subs	r0, r0, r5
 8002912:	2802      	cmp	r0, #2
 8002914:	d9f6      	bls.n	8002904 <HAL_RCC_OscConfig+0x158>
          {
            return HAL_TIMEOUT;
 8002916:	2003      	movs	r0, #3
 8002918:	e059      	b.n	80029ce <HAL_RCC_OscConfig+0x222>
#endif /* RCC_HSI48_SUPPORT */
       
  /*-------------------------------- PLL Configuration -----------------------*/
  /* Check the parameters */
  assert_param(IS_RCC_PLL(RCC_OscInitStruct->PLL.PLLState));
  if ((RCC_OscInitStruct->PLL.PLLState) != RCC_PLL_NONE)
 800291a:	6a63      	ldr	r3, [r4, #36]	; 0x24
 800291c:	2b00      	cmp	r3, #0
 800291e:	d055      	beq.n	80029cc <HAL_RCC_OscConfig+0x220>
  {
    /* Check if the PLL is used as system clock or not */
    if(__HAL_RCC_GET_SYSCLK_SOURCE() != RCC_SYSCLKSOURCE_STATUS_PLLCLK)
 8002920:	4a2c      	ldr	r2, [pc, #176]	; (80029d4 <HAL_RCC_OscConfig+0x228>)
 8002922:	6851      	ldr	r1, [r2, #4]
 8002924:	220c      	movs	r2, #12
 8002926:	400a      	ands	r2, r1
 8002928:	2a08      	cmp	r2, #8
 800292a:	d051      	beq.n	80029d0 <HAL_RCC_OscConfig+0x224>
    { 
      if((RCC_OscInitStruct->PLL.PLLState) == RCC_PLL_ON)
 800292c:	2b02      	cmp	r3, #2
 800292e:	d012      	beq.n	8002956 <HAL_RCC_OscConfig+0x1aa>
        }
      }
      else
      {
        /* Disable the main PLL. */
        __HAL_RCC_PLL_DISABLE();
 8002930:	4a28      	ldr	r2, [pc, #160]	; (80029d4 <HAL_RCC_OscConfig+0x228>)
 8002932:	6813      	ldr	r3, [r2, #0]
 8002934:	492a      	ldr	r1, [pc, #168]	; (80029e0 <HAL_RCC_OscConfig+0x234>)
 8002936:	400b      	ands	r3, r1
 8002938:	6013      	str	r3, [r2, #0]
 
        /* Get Start Tick */
        tickstart = HAL_GetTick();
 800293a:	f7fd fcb9 	bl	80002b0 <HAL_GetTick>
 800293e:	0004      	movs	r4, r0
        
        /* Wait till PLL is disabled */  
        while(__HAL_RCC_GET_FLAG(RCC_FLAG_PLLRDY)  != RESET)
 8002940:	4b24      	ldr	r3, [pc, #144]	; (80029d4 <HAL_RCC_OscConfig+0x228>)
 8002942:	681b      	ldr	r3, [r3, #0]
 8002944:	019b      	lsls	r3, r3, #6
 8002946:	d53d      	bpl.n	80029c4 <HAL_RCC_OscConfig+0x218>
        {
          if((HAL_GetTick() - tickstart ) > PLL_TIMEOUT_VALUE)
 8002948:	f7fd fcb2 	bl	80002b0 <HAL_GetTick>
 800294c:	1b00      	subs	r0, r0, r4
 800294e:	2802      	cmp	r0, #2
 8002950:	d9f6      	bls.n	8002940 <HAL_RCC_OscConfig+0x194>
          {
            return HAL_TIMEOUT;
 8002952:	2003      	movs	r0, #3
 8002954:	e03b      	b.n	80029ce <HAL_RCC_OscConfig+0x222>
        __HAL_RCC_PLL_DISABLE();
 8002956:	4a1f      	ldr	r2, [pc, #124]	; (80029d4 <HAL_RCC_OscConfig+0x228>)
 8002958:	6813      	ldr	r3, [r2, #0]
 800295a:	4921      	ldr	r1, [pc, #132]	; (80029e0 <HAL_RCC_OscConfig+0x234>)
 800295c:	400b      	ands	r3, r1
 800295e:	6013      	str	r3, [r2, #0]
        tickstart = HAL_GetTick();
 8002960:	f7fd fca6 	bl	80002b0 <HAL_GetTick>
 8002964:	0005      	movs	r5, r0
        while(__HAL_RCC_GET_FLAG(RCC_FLAG_PLLRDY)  != RESET)
 8002966:	4b1b      	ldr	r3, [pc, #108]	; (80029d4 <HAL_RCC_OscConfig+0x228>)
 8002968:	681b      	ldr	r3, [r3, #0]
 800296a:	019b      	lsls	r3, r3, #6
 800296c:	d506      	bpl.n	800297c <HAL_RCC_OscConfig+0x1d0>
          if((HAL_GetTick() - tickstart ) > PLL_TIMEOUT_VALUE)
 800296e:	f7fd fc9f 	bl	80002b0 <HAL_GetTick>
 8002972:	1b40      	subs	r0, r0, r5
 8002974:	2802      	cmp	r0, #2
 8002976:	d9f6      	bls.n	8002966 <HAL_RCC_OscConfig+0x1ba>
            return HAL_TIMEOUT;
 8002978:	2003      	movs	r0, #3
 800297a:	e028      	b.n	80029ce <HAL_RCC_OscConfig+0x222>
        __HAL_RCC_PLL_CONFIG(RCC_OscInitStruct->PLL.PLLSource,
 800297c:	4b15      	ldr	r3, [pc, #84]	; (80029d4 <HAL_RCC_OscConfig+0x228>)
 800297e:	6ada      	ldr	r2, [r3, #44]	; 0x2c
 8002980:	210f      	movs	r1, #15
 8002982:	438a      	bics	r2, r1
 8002984:	6b21      	ldr	r1, [r4, #48]	; 0x30
 8002986:	430a      	orrs	r2, r1
 8002988:	62da      	str	r2, [r3, #44]	; 0x2c
 800298a:	685a      	ldr	r2, [r3, #4]
 800298c:	4915      	ldr	r1, [pc, #84]	; (80029e4 <HAL_RCC_OscConfig+0x238>)
 800298e:	400a      	ands	r2, r1
 8002990:	6ae1      	ldr	r1, [r4, #44]	; 0x2c
 8002992:	6aa0      	ldr	r0, [r4, #40]	; 0x28
 8002994:	4301      	orrs	r1, r0
 8002996:	430a      	orrs	r2, r1
 8002998:	605a      	str	r2, [r3, #4]
        __HAL_RCC_PLL_ENABLE();
 800299a:	6819      	ldr	r1, [r3, #0]
 800299c:	2280      	movs	r2, #128	; 0x80
 800299e:	0452      	lsls	r2, r2, #17
 80029a0:	430a      	orrs	r2, r1
 80029a2:	601a      	str	r2, [r3, #0]
        tickstart = HAL_GetTick();
 80029a4:	f7fd fc84 	bl	80002b0 <HAL_GetTick>
 80029a8:	0004      	movs	r4, r0
        while(__HAL_RCC_GET_FLAG(RCC_FLAG_PLLRDY)  == RESET)
 80029aa:	4b0a      	ldr	r3, [pc, #40]	; (80029d4 <HAL_RCC_OscConfig+0x228>)
 80029ac:	681b      	ldr	r3, [r3, #0]
 80029ae:	019b      	lsls	r3, r3, #6
 80029b0:	d406      	bmi.n	80029c0 <HAL_RCC_OscConfig+0x214>
          if((HAL_GetTick() - tickstart ) > PLL_TIMEOUT_VALUE)
 80029b2:	f7fd fc7d 	bl	80002b0 <HAL_GetTick>
 80029b6:	1b00      	subs	r0, r0, r4
 80029b8:	2802      	cmp	r0, #2
 80029ba:	d9f6      	bls.n	80029aa <HAL_RCC_OscConfig+0x1fe>
            return HAL_TIMEOUT;
 80029bc:	2003      	movs	r0, #3
 80029be:	e006      	b.n	80029ce <HAL_RCC_OscConfig+0x222>
    {
      return HAL_ERROR;
    }
  }
  
  return HAL_OK;
 80029c0:	2000      	movs	r0, #0
 80029c2:	e004      	b.n	80029ce <HAL_RCC_OscConfig+0x222>
 80029c4:	2000      	movs	r0, #0
 80029c6:	e002      	b.n	80029ce <HAL_RCC_OscConfig+0x222>
        return HAL_ERROR;
 80029c8:	2001      	movs	r0, #1
 80029ca:	e000      	b.n	80029ce <HAL_RCC_OscConfig+0x222>
  return HAL_OK;
 80029cc:	2000      	movs	r0, #0
}
 80029ce:	bd70      	pop	{r4, r5, r6, pc}
      return HAL_ERROR;
 80029d0:	2001      	movs	r0, #1
 80029d2:	e7fc      	b.n	80029ce <HAL_RCC_OscConfig+0x222>
 80029d4:	40021000 	.word	0x40021000
 80029d8:	fffeffff 	.word	0xfffeffff
 80029dc:	fffbffff 	.word	0xfffbffff
 80029e0:	feffffff 	.word	0xfeffffff
 80029e4:	ffc27fff 	.word	0xffc27fff

080029e8 <HAL_RCC_GetSysClockFreq>:
  *         right SYSCLK value. Otherwise, any configuration based on this function will be incorrect.
  *         
  * @retval SYSCLK frequency
  */
uint32_t HAL_RCC_GetSysClockFreq(void)
{
 80029e8:	b530      	push	{r4, r5, lr}
 80029ea:	b089      	sub	sp, #36	; 0x24
  const uint8_t aPLLMULFactorTable[16] = { 2U,  3U,  4U,  5U,  6U,  7U,  8U,  9U,
 80029ec:	aa04      	add	r2, sp, #16
 80029ee:	4b1f      	ldr	r3, [pc, #124]	; (8002a6c <HAL_RCC_GetSysClockFreq+0x84>)
 80029f0:	0018      	movs	r0, r3
 80029f2:	c832      	ldmia	r0!, {r1, r4, r5}
 80029f4:	c232      	stmia	r2!, {r1, r4, r5}
 80029f6:	0011      	movs	r1, r2
 80029f8:	6802      	ldr	r2, [r0, #0]
 80029fa:	600a      	str	r2, [r1, #0]
                                         10U, 11U, 12U, 13U, 14U, 15U, 16U, 16U};
  const uint8_t aPredivFactorTable[16] = { 1U, 2U,  3U,  4U,  5U,  6U,  7U,  8U,
 80029fc:	466a      	mov	r2, sp
 80029fe:	3310      	adds	r3, #16
 8002a00:	cb13      	ldmia	r3!, {r0, r1, r4}
 8002a02:	c213      	stmia	r2!, {r0, r1, r4}
 8002a04:	681b      	ldr	r3, [r3, #0]
 8002a06:	6013      	str	r3, [r2, #0]
                                           9U,10U, 11U, 12U, 13U, 14U, 15U, 16U};

  uint32_t tmpreg = 0U, prediv = 0U, pllclk = 0U, pllmul = 0U;
  uint32_t sysclockfreq = 0U;
  
  tmpreg = RCC->CFGR;
 8002a08:	4b19      	ldr	r3, [pc, #100]	; (8002a70 <HAL_RCC_GetSysClockFreq+0x88>)
 8002a0a:	685a      	ldr	r2, [r3, #4]
  
  /* Get SYSCLK source -------------------------------------------------------*/
  switch (tmpreg & RCC_CFGR_SWS)
 8002a0c:	230c      	movs	r3, #12
 8002a0e:	4013      	ands	r3, r2
 8002a10:	2b08      	cmp	r3, #8
 8002a12:	d004      	beq.n	8002a1e <HAL_RCC_GetSysClockFreq+0x36>
 8002a14:	2b0c      	cmp	r3, #12
 8002a16:	d026      	beq.n	8002a66 <HAL_RCC_GetSysClockFreq+0x7e>
  {
    case RCC_SYSCLKSOURCE_STATUS_HSE:  /* HSE used as system clock */
    {
      sysclockfreq = HSE_VALUE;
 8002a18:	4816      	ldr	r0, [pc, #88]	; (8002a74 <HAL_RCC_GetSysClockFreq+0x8c>)
      sysclockfreq = HSI_VALUE;
      break;
    }
  }
  return sysclockfreq;
}
 8002a1a:	b009      	add	sp, #36	; 0x24
 8002a1c:	bd30      	pop	{r4, r5, pc}
      pllmul = aPLLMULFactorTable[(uint32_t)(tmpreg & RCC_CFGR_PLLMUL) >> RCC_CFGR_PLLMUL_BITNUMBER];
 8002a1e:	0c91      	lsrs	r1, r2, #18
 8002a20:	230f      	movs	r3, #15
 8002a22:	4019      	ands	r1, r3
 8002a24:	a804      	add	r0, sp, #16
 8002a26:	5c44      	ldrb	r4, [r0, r1]
      prediv = aPredivFactorTable[(uint32_t)(RCC->CFGR2 & RCC_CFGR2_PREDIV) >> RCC_CFGR2_PREDIV_BITNUMBER];
 8002a28:	4911      	ldr	r1, [pc, #68]	; (8002a70 <HAL_RCC_GetSysClockFreq+0x88>)
 8002a2a:	6ac9      	ldr	r1, [r1, #44]	; 0x2c
 8002a2c:	400b      	ands	r3, r1
 8002a2e:	4669      	mov	r1, sp
 8002a30:	5cc9      	ldrb	r1, [r1, r3]
      if ((tmpreg & RCC_CFGR_PLLSRC) == RCC_PLLSOURCE_HSE)
 8002a32:	23c0      	movs	r3, #192	; 0xc0
 8002a34:	025b      	lsls	r3, r3, #9
 8002a36:	401a      	ands	r2, r3
 8002a38:	2380      	movs	r3, #128	; 0x80
 8002a3a:	025b      	lsls	r3, r3, #9
 8002a3c:	429a      	cmp	r2, r3
 8002a3e:	d008      	beq.n	8002a52 <HAL_RCC_GetSysClockFreq+0x6a>
      else if ((tmpreg & RCC_CFGR_PLLSRC) == RCC_PLLSOURCE_HSI48)
 8002a40:	23c0      	movs	r3, #192	; 0xc0
 8002a42:	025b      	lsls	r3, r3, #9
 8002a44:	429a      	cmp	r2, r3
 8002a46:	d009      	beq.n	8002a5c <HAL_RCC_GetSysClockFreq+0x74>
        pllclk = (HSI_VALUE / prediv) * pllmul;
 8002a48:	480a      	ldr	r0, [pc, #40]	; (8002a74 <HAL_RCC_GetSysClockFreq+0x8c>)
 8002a4a:	f7fd fb7b 	bl	8000144 <__udivsi3>
 8002a4e:	4360      	muls	r0, r4
 8002a50:	e7e3      	b.n	8002a1a <HAL_RCC_GetSysClockFreq+0x32>
        pllclk = (HSE_VALUE / prediv) * pllmul;
 8002a52:	4808      	ldr	r0, [pc, #32]	; (8002a74 <HAL_RCC_GetSysClockFreq+0x8c>)
 8002a54:	f7fd fb76 	bl	8000144 <__udivsi3>
 8002a58:	4360      	muls	r0, r4
 8002a5a:	e7de      	b.n	8002a1a <HAL_RCC_GetSysClockFreq+0x32>
        pllclk = (HSI48_VALUE / prediv) * pllmul;
 8002a5c:	4806      	ldr	r0, [pc, #24]	; (8002a78 <HAL_RCC_GetSysClockFreq+0x90>)
 8002a5e:	f7fd fb71 	bl	8000144 <__udivsi3>
 8002a62:	4360      	muls	r0, r4
 8002a64:	e7d9      	b.n	8002a1a <HAL_RCC_GetSysClockFreq+0x32>
      sysclockfreq = HSI48_VALUE;
 8002a66:	4804      	ldr	r0, [pc, #16]	; (8002a78 <HAL_RCC_GetSysClockFreq+0x90>)
  return sysclockfreq;
 8002a68:	e7d7      	b.n	8002a1a <HAL_RCC_GetSysClockFreq+0x32>
 8002a6a:	46c0      	nop			; (mov r8, r8)
 8002a6c:	08005f6c 	.word	0x08005f6c
 8002a70:	40021000 	.word	0x40021000
 8002a74:	007a1200 	.word	0x007a1200
 8002a78:	02dc6c00 	.word	0x02dc6c00

08002a7c <HAL_RCC_ClockConfig>:
{
 8002a7c:	b570      	push	{r4, r5, r6, lr}
 8002a7e:	0005      	movs	r5, r0
 8002a80:	000c      	movs	r4, r1
  if(FLatency > (FLASH->ACR & FLASH_ACR_LATENCY))
 8002a82:	4b59      	ldr	r3, [pc, #356]	; (8002be8 <HAL_RCC_ClockConfig+0x16c>)
 8002a84:	681a      	ldr	r2, [r3, #0]
 8002a86:	2301      	movs	r3, #1
 8002a88:	4013      	ands	r3, r2
 8002a8a:	428b      	cmp	r3, r1
 8002a8c:	d20b      	bcs.n	8002aa6 <HAL_RCC_ClockConfig+0x2a>
    __HAL_FLASH_SET_LATENCY(FLatency);
 8002a8e:	4956      	ldr	r1, [pc, #344]	; (8002be8 <HAL_RCC_ClockConfig+0x16c>)
 8002a90:	680b      	ldr	r3, [r1, #0]
 8002a92:	2201      	movs	r2, #1
 8002a94:	4393      	bics	r3, r2
 8002a96:	4323      	orrs	r3, r4
 8002a98:	600b      	str	r3, [r1, #0]
    if((FLASH->ACR & FLASH_ACR_LATENCY) != FLatency)
 8002a9a:	680b      	ldr	r3, [r1, #0]
 8002a9c:	401a      	ands	r2, r3
 8002a9e:	4294      	cmp	r4, r2
 8002aa0:	d001      	beq.n	8002aa6 <HAL_RCC_ClockConfig+0x2a>
      return HAL_ERROR;
 8002aa2:	2001      	movs	r0, #1
 8002aa4:	e09d      	b.n	8002be2 <HAL_RCC_ClockConfig+0x166>
  if(((RCC_ClkInitStruct->ClockType) & RCC_CLOCKTYPE_HCLK) == RCC_CLOCKTYPE_HCLK)
 8002aa6:	682b      	ldr	r3, [r5, #0]
 8002aa8:	079b      	lsls	r3, r3, #30
 8002aaa:	d506      	bpl.n	8002aba <HAL_RCC_ClockConfig+0x3e>
    MODIFY_REG(RCC->CFGR, RCC_CFGR_HPRE, RCC_ClkInitStruct->AHBCLKDivider);
 8002aac:	4a4f      	ldr	r2, [pc, #316]	; (8002bec <HAL_RCC_ClockConfig+0x170>)
 8002aae:	6853      	ldr	r3, [r2, #4]
 8002ab0:	21f0      	movs	r1, #240	; 0xf0
 8002ab2:	438b      	bics	r3, r1
 8002ab4:	68a9      	ldr	r1, [r5, #8]
 8002ab6:	430b      	orrs	r3, r1
 8002ab8:	6053      	str	r3, [r2, #4]
  if(((RCC_ClkInitStruct->ClockType) & RCC_CLOCKTYPE_SYSCLK) == RCC_CLOCKTYPE_SYSCLK)
 8002aba:	682b      	ldr	r3, [r5, #0]
 8002abc:	07db      	lsls	r3, r3, #31
 8002abe:	d564      	bpl.n	8002b8a <HAL_RCC_ClockConfig+0x10e>
    if(RCC_ClkInitStruct->SYSCLKSource == RCC_SYSCLKSOURCE_HSE)
 8002ac0:	686b      	ldr	r3, [r5, #4]
 8002ac2:	2b01      	cmp	r3, #1
 8002ac4:	d025      	beq.n	8002b12 <HAL_RCC_ClockConfig+0x96>
    else if(RCC_ClkInitStruct->SYSCLKSource == RCC_SYSCLKSOURCE_PLLCLK)
 8002ac6:	2b02      	cmp	r3, #2
 8002ac8:	d029      	beq.n	8002b1e <HAL_RCC_ClockConfig+0xa2>
    else if(RCC_ClkInitStruct->SYSCLKSource == RCC_SYSCLKSOURCE_HSI48)
 8002aca:	2b03      	cmp	r3, #3
 8002acc:	d02d      	beq.n	8002b2a <HAL_RCC_ClockConfig+0xae>
      if(__HAL_RCC_GET_FLAG(RCC_FLAG_HSIRDY) == RESET)
 8002ace:	4a47      	ldr	r2, [pc, #284]	; (8002bec <HAL_RCC_ClockConfig+0x170>)
 8002ad0:	6812      	ldr	r2, [r2, #0]
 8002ad2:	0792      	lsls	r2, r2, #30
 8002ad4:	d400      	bmi.n	8002ad8 <HAL_RCC_ClockConfig+0x5c>
 8002ad6:	e085      	b.n	8002be4 <HAL_RCC_ClockConfig+0x168>
    __HAL_RCC_SYSCLK_CONFIG(RCC_ClkInitStruct->SYSCLKSource);
 8002ad8:	4944      	ldr	r1, [pc, #272]	; (8002bec <HAL_RCC_ClockConfig+0x170>)
 8002ada:	684a      	ldr	r2, [r1, #4]
 8002adc:	2003      	movs	r0, #3
 8002ade:	4382      	bics	r2, r0
 8002ae0:	4313      	orrs	r3, r2
 8002ae2:	604b      	str	r3, [r1, #4]
    tickstart = HAL_GetTick();
 8002ae4:	f7fd fbe4 	bl	80002b0 <HAL_GetTick>
 8002ae8:	0006      	movs	r6, r0
    if(RCC_ClkInitStruct->SYSCLKSource == RCC_SYSCLKSOURCE_HSE)
 8002aea:	686b      	ldr	r3, [r5, #4]
 8002aec:	2b01      	cmp	r3, #1
 8002aee:	d022      	beq.n	8002b36 <HAL_RCC_ClockConfig+0xba>
    else if(RCC_ClkInitStruct->SYSCLKSource == RCC_SYSCLKSOURCE_PLLCLK)
 8002af0:	2b02      	cmp	r3, #2
 8002af2:	d02e      	beq.n	8002b52 <HAL_RCC_ClockConfig+0xd6>
    else if(RCC_ClkInitStruct->SYSCLKSource == RCC_SYSCLKSOURCE_HSI48)
 8002af4:	2b03      	cmp	r3, #3
 8002af6:	d03a      	beq.n	8002b6e <HAL_RCC_ClockConfig+0xf2>
      while (__HAL_RCC_GET_SYSCLK_SOURCE() != RCC_SYSCLKSOURCE_STATUS_HSI)
 8002af8:	4b3c      	ldr	r3, [pc, #240]	; (8002bec <HAL_RCC_ClockConfig+0x170>)
 8002afa:	685b      	ldr	r3, [r3, #4]
 8002afc:	220c      	movs	r2, #12
 8002afe:	421a      	tst	r2, r3
 8002b00:	d043      	beq.n	8002b8a <HAL_RCC_ClockConfig+0x10e>
        if((HAL_GetTick() - tickstart ) > CLOCKSWITCH_TIMEOUT_VALUE)
 8002b02:	f7fd fbd5 	bl	80002b0 <HAL_GetTick>
 8002b06:	1b80      	subs	r0, r0, r6
 8002b08:	4b39      	ldr	r3, [pc, #228]	; (8002bf0 <HAL_RCC_ClockConfig+0x174>)
 8002b0a:	4298      	cmp	r0, r3
 8002b0c:	d9f4      	bls.n	8002af8 <HAL_RCC_ClockConfig+0x7c>
          return HAL_TIMEOUT;
 8002b0e:	2003      	movs	r0, #3
 8002b10:	e067      	b.n	8002be2 <HAL_RCC_ClockConfig+0x166>
      if(__HAL_RCC_GET_FLAG(RCC_FLAG_HSERDY) == RESET)
 8002b12:	4a36      	ldr	r2, [pc, #216]	; (8002bec <HAL_RCC_ClockConfig+0x170>)
 8002b14:	6812      	ldr	r2, [r2, #0]
 8002b16:	0392      	lsls	r2, r2, #14
 8002b18:	d4de      	bmi.n	8002ad8 <HAL_RCC_ClockConfig+0x5c>
        return HAL_ERROR;
 8002b1a:	2001      	movs	r0, #1
 8002b1c:	e061      	b.n	8002be2 <HAL_RCC_ClockConfig+0x166>
      if(__HAL_RCC_GET_FLAG(RCC_FLAG_PLLRDY) == RESET)
 8002b1e:	4a33      	ldr	r2, [pc, #204]	; (8002bec <HAL_RCC_ClockConfig+0x170>)
 8002b20:	6812      	ldr	r2, [r2, #0]
 8002b22:	0192      	lsls	r2, r2, #6
 8002b24:	d4d8      	bmi.n	8002ad8 <HAL_RCC_ClockConfig+0x5c>
        return HAL_ERROR;
 8002b26:	2001      	movs	r0, #1
 8002b28:	e05b      	b.n	8002be2 <HAL_RCC_ClockConfig+0x166>
      if(__HAL_RCC_GET_FLAG(RCC_FLAG_HSI48RDY) == RESET)
 8002b2a:	4a30      	ldr	r2, [pc, #192]	; (8002bec <HAL_RCC_ClockConfig+0x170>)
 8002b2c:	6b52      	ldr	r2, [r2, #52]	; 0x34
 8002b2e:	03d2      	lsls	r2, r2, #15
 8002b30:	d4d2      	bmi.n	8002ad8 <HAL_RCC_ClockConfig+0x5c>
        return HAL_ERROR;
 8002b32:	2001      	movs	r0, #1
 8002b34:	e055      	b.n	8002be2 <HAL_RCC_ClockConfig+0x166>
      while (__HAL_RCC_GET_SYSCLK_SOURCE() != RCC_SYSCLKSOURCE_STATUS_HSE)
 8002b36:	4b2d      	ldr	r3, [pc, #180]	; (8002bec <HAL_RCC_ClockConfig+0x170>)
 8002b38:	685a      	ldr	r2, [r3, #4]
 8002b3a:	230c      	movs	r3, #12
 8002b3c:	4013      	ands	r3, r2
 8002b3e:	2b04      	cmp	r3, #4
 8002b40:	d023      	beq.n	8002b8a <HAL_RCC_ClockConfig+0x10e>
        if((HAL_GetTick() - tickstart ) > CLOCKSWITCH_TIMEOUT_VALUE)
 8002b42:	f7fd fbb5 	bl	80002b0 <HAL_GetTick>
 8002b46:	1b80      	subs	r0, r0, r6
 8002b48:	4b29      	ldr	r3, [pc, #164]	; (8002bf0 <HAL_RCC_ClockConfig+0x174>)
 8002b4a:	4298      	cmp	r0, r3
 8002b4c:	d9f3      	bls.n	8002b36 <HAL_RCC_ClockConfig+0xba>
          return HAL_TIMEOUT;
 8002b4e:	2003      	movs	r0, #3
 8002b50:	e047      	b.n	8002be2 <HAL_RCC_ClockConfig+0x166>
      while (__HAL_RCC_GET_SYSCLK_SOURCE() != RCC_SYSCLKSOURCE_STATUS_PLLCLK)
 8002b52:	4b26      	ldr	r3, [pc, #152]	; (8002bec <HAL_RCC_ClockConfig+0x170>)
 8002b54:	685a      	ldr	r2, [r3, #4]
 8002b56:	230c      	movs	r3, #12
 8002b58:	4013      	ands	r3, r2
 8002b5a:	2b08      	cmp	r3, #8
 8002b5c:	d015      	beq.n	8002b8a <HAL_RCC_ClockConfig+0x10e>
        if((HAL_GetTick() - tickstart ) > CLOCKSWITCH_TIMEOUT_VALUE)
 8002b5e:	f7fd fba7 	bl	80002b0 <HAL_GetTick>
 8002b62:	1b80      	subs	r0, r0, r6
 8002b64:	4b22      	ldr	r3, [pc, #136]	; (8002bf0 <HAL_RCC_ClockConfig+0x174>)
 8002b66:	4298      	cmp	r0, r3
 8002b68:	d9f3      	bls.n	8002b52 <HAL_RCC_ClockConfig+0xd6>
          return HAL_TIMEOUT;
 8002b6a:	2003      	movs	r0, #3
 8002b6c:	e039      	b.n	8002be2 <HAL_RCC_ClockConfig+0x166>
      while (__HAL_RCC_GET_SYSCLK_SOURCE() != RCC_SYSCLKSOURCE_STATUS_HSI48)
 8002b6e:	4b1f      	ldr	r3, [pc, #124]	; (8002bec <HAL_RCC_ClockConfig+0x170>)
 8002b70:	685a      	ldr	r2, [r3, #4]
 8002b72:	230c      	movs	r3, #12
 8002b74:	4013      	ands	r3, r2
 8002b76:	2b0c      	cmp	r3, #12
 8002b78:	d007      	beq.n	8002b8a <HAL_RCC_ClockConfig+0x10e>
        if((HAL_GetTick() - tickstart) > CLOCKSWITCH_TIMEOUT_VALUE)
 8002b7a:	f7fd fb99 	bl	80002b0 <HAL_GetTick>
 8002b7e:	1b80      	subs	r0, r0, r6
 8002b80:	4b1b      	ldr	r3, [pc, #108]	; (8002bf0 <HAL_RCC_ClockConfig+0x174>)
 8002b82:	4298      	cmp	r0, r3
 8002b84:	d9f3      	bls.n	8002b6e <HAL_RCC_ClockConfig+0xf2>
          return HAL_TIMEOUT;
 8002b86:	2003      	movs	r0, #3
 8002b88:	e02b      	b.n	8002be2 <HAL_RCC_ClockConfig+0x166>
  if(FLatency < (FLASH->ACR & FLASH_ACR_LATENCY))
 8002b8a:	4b17      	ldr	r3, [pc, #92]	; (8002be8 <HAL_RCC_ClockConfig+0x16c>)
 8002b8c:	681a      	ldr	r2, [r3, #0]
 8002b8e:	2301      	movs	r3, #1
 8002b90:	4013      	ands	r3, r2
 8002b92:	429c      	cmp	r4, r3
 8002b94:	d20b      	bcs.n	8002bae <HAL_RCC_ClockConfig+0x132>
    __HAL_FLASH_SET_LATENCY(FLatency);
 8002b96:	4914      	ldr	r1, [pc, #80]	; (8002be8 <HAL_RCC_ClockConfig+0x16c>)
 8002b98:	680b      	ldr	r3, [r1, #0]
 8002b9a:	2201      	movs	r2, #1
 8002b9c:	4393      	bics	r3, r2
 8002b9e:	4323      	orrs	r3, r4
 8002ba0:	600b      	str	r3, [r1, #0]
    if((FLASH->ACR & FLASH_ACR_LATENCY) != FLatency)
 8002ba2:	680b      	ldr	r3, [r1, #0]
 8002ba4:	401a      	ands	r2, r3
 8002ba6:	4294      	cmp	r4, r2
 8002ba8:	d001      	beq.n	8002bae <HAL_RCC_ClockConfig+0x132>
      return HAL_ERROR;
 8002baa:	2001      	movs	r0, #1
 8002bac:	e019      	b.n	8002be2 <HAL_RCC_ClockConfig+0x166>
  if(((RCC_ClkInitStruct->ClockType) & RCC_CLOCKTYPE_PCLK1) == RCC_CLOCKTYPE_PCLK1)
 8002bae:	682b      	ldr	r3, [r5, #0]
 8002bb0:	075b      	lsls	r3, r3, #29
 8002bb2:	d506      	bpl.n	8002bc2 <HAL_RCC_ClockConfig+0x146>
    MODIFY_REG(RCC->CFGR, RCC_CFGR_PPRE, RCC_ClkInitStruct->APB1CLKDivider);
 8002bb4:	4a0d      	ldr	r2, [pc, #52]	; (8002bec <HAL_RCC_ClockConfig+0x170>)
 8002bb6:	6853      	ldr	r3, [r2, #4]
 8002bb8:	490e      	ldr	r1, [pc, #56]	; (8002bf4 <HAL_RCC_ClockConfig+0x178>)
 8002bba:	400b      	ands	r3, r1
 8002bbc:	68e9      	ldr	r1, [r5, #12]
 8002bbe:	430b      	orrs	r3, r1
 8002bc0:	6053      	str	r3, [r2, #4]
  SystemCoreClock = HAL_RCC_GetSysClockFreq() >> AHBPrescTable[(RCC->CFGR & RCC_CFGR_HPRE)>> RCC_CFGR_HPRE_BITNUMBER];
 8002bc2:	f7ff ff11 	bl	80029e8 <HAL_RCC_GetSysClockFreq>
 8002bc6:	4b09      	ldr	r3, [pc, #36]	; (8002bec <HAL_RCC_ClockConfig+0x170>)
 8002bc8:	685a      	ldr	r2, [r3, #4]
 8002bca:	0912      	lsrs	r2, r2, #4
 8002bcc:	230f      	movs	r3, #15
 8002bce:	4013      	ands	r3, r2
 8002bd0:	4a09      	ldr	r2, [pc, #36]	; (8002bf8 <HAL_RCC_ClockConfig+0x17c>)
 8002bd2:	5cd3      	ldrb	r3, [r2, r3]
 8002bd4:	40d8      	lsrs	r0, r3
 8002bd6:	4b09      	ldr	r3, [pc, #36]	; (8002bfc <HAL_RCC_ClockConfig+0x180>)
 8002bd8:	6018      	str	r0, [r3, #0]
  HAL_InitTick (TICK_INT_PRIORITY);
 8002bda:	2000      	movs	r0, #0
 8002bdc:	f7fd fb3e 	bl	800025c <HAL_InitTick>
  return HAL_OK;
 8002be0:	2000      	movs	r0, #0
}
 8002be2:	bd70      	pop	{r4, r5, r6, pc}
        return HAL_ERROR;
 8002be4:	2001      	movs	r0, #1
 8002be6:	e7fc      	b.n	8002be2 <HAL_RCC_ClockConfig+0x166>
 8002be8:	40022000 	.word	0x40022000
 8002bec:	40021000 	.word	0x40021000
 8002bf0:	00001388 	.word	0x00001388
 8002bf4:	fffff8ff 	.word	0xfffff8ff
 8002bf8:	080061ac 	.word	0x080061ac
 8002bfc:	20000118 	.word	0x20000118

08002c00 <HAL_RCC_GetHCLKFreq>:
  *         and updated within this function
  * @retval HCLK frequency
  */
uint32_t HAL_RCC_GetHCLKFreq(void)
{
  return SystemCoreClock;
 8002c00:	4b01      	ldr	r3, [pc, #4]	; (8002c08 <HAL_RCC_GetHCLKFreq+0x8>)
 8002c02:	6818      	ldr	r0, [r3, #0]
}
 8002c04:	4770      	bx	lr
 8002c06:	46c0      	nop			; (mov r8, r8)
 8002c08:	20000118 	.word	0x20000118

08002c0c <HAL_RCC_GetPCLK1Freq>:
  * @note   Each time PCLK1 changes, this function must be called to update the
  *         right PCLK1 value. Otherwise, any configuration based on this function will be incorrect.
  * @retval PCLK1 frequency
  */
uint32_t HAL_RCC_GetPCLK1Freq(void)
{
 8002c0c:	b510      	push	{r4, lr}
  /* Get HCLK source and Compute PCLK1 frequency ---------------------------*/
  return (HAL_RCC_GetHCLKFreq() >> APBPrescTable[(RCC->CFGR & RCC_CFGR_PPRE) >> RCC_CFGR_PPRE_BITNUMBER]);
 8002c0e:	f7ff fff7 	bl	8002c00 <HAL_RCC_GetHCLKFreq>
 8002c12:	4b04      	ldr	r3, [pc, #16]	; (8002c24 <HAL_RCC_GetPCLK1Freq+0x18>)
 8002c14:	685a      	ldr	r2, [r3, #4]
 8002c16:	0a12      	lsrs	r2, r2, #8
 8002c18:	2307      	movs	r3, #7
 8002c1a:	4013      	ands	r3, r2
 8002c1c:	4a02      	ldr	r2, [pc, #8]	; (8002c28 <HAL_RCC_GetPCLK1Freq+0x1c>)
 8002c1e:	5cd3      	ldrb	r3, [r2, r3]
 8002c20:	40d8      	lsrs	r0, r3
}    
 8002c22:	bd10      	pop	{r4, pc}
 8002c24:	40021000 	.word	0x40021000
 8002c28:	080061bc 	.word	0x080061bc

08002c2c <HAL_RCCEx_PeriphCLKConfig>:
  *         the backup registers) and RCC_BDCR register are set to their reset values.
  *
  * @retval HAL status
  */
HAL_StatusTypeDef HAL_RCCEx_PeriphCLKConfig(RCC_PeriphCLKInitTypeDef  *PeriphClkInit)
{
 8002c2c:	b570      	push	{r4, r5, r6, lr}
 8002c2e:	b082      	sub	sp, #8
 8002c30:	0004      	movs	r4, r0

  /* Check the parameters */
  assert_param(IS_RCC_PERIPHCLOCK(PeriphClkInit->PeriphClockSelection));
  
  /*---------------------------- RTC configuration -------------------------------*/
  if(((PeriphClkInit->PeriphClockSelection) & RCC_PERIPHCLK_RTC) == (RCC_PERIPHCLK_RTC))
 8002c32:	6803      	ldr	r3, [r0, #0]
 8002c34:	03db      	lsls	r3, r3, #15
 8002c36:	d535      	bpl.n	8002ca4 <HAL_RCCEx_PeriphCLKConfig+0x78>
    FlagStatus       pwrclkchanged = RESET;

    /* As soon as function is called to change RTC clock source, activation of the 
       power domain is done. */
    /* Requires to enable write access to Backup Domain of necessary */
    if(__HAL_RCC_PWR_IS_CLK_DISABLED())
 8002c38:	4b46      	ldr	r3, [pc, #280]	; (8002d54 <HAL_RCCEx_PeriphCLKConfig+0x128>)
 8002c3a:	69db      	ldr	r3, [r3, #28]
 8002c3c:	00db      	lsls	r3, r3, #3
 8002c3e:	d45c      	bmi.n	8002cfa <HAL_RCCEx_PeriphCLKConfig+0xce>
    {
    __HAL_RCC_PWR_CLK_ENABLE();
 8002c40:	4a44      	ldr	r2, [pc, #272]	; (8002d54 <HAL_RCCEx_PeriphCLKConfig+0x128>)
 8002c42:	69d1      	ldr	r1, [r2, #28]
 8002c44:	2080      	movs	r0, #128	; 0x80
 8002c46:	0540      	lsls	r0, r0, #21
 8002c48:	4301      	orrs	r1, r0
 8002c4a:	61d1      	str	r1, [r2, #28]
 8002c4c:	69d3      	ldr	r3, [r2, #28]
 8002c4e:	4003      	ands	r3, r0
 8002c50:	9301      	str	r3, [sp, #4]
 8002c52:	9b01      	ldr	r3, [sp, #4]
      pwrclkchanged = SET;
 8002c54:	2501      	movs	r5, #1
    }
    
    if(HAL_IS_BIT_CLR(PWR->CR, PWR_CR_DBP))
 8002c56:	4b40      	ldr	r3, [pc, #256]	; (8002d58 <HAL_RCCEx_PeriphCLKConfig+0x12c>)
 8002c58:	681b      	ldr	r3, [r3, #0]
 8002c5a:	05db      	lsls	r3, r3, #23
 8002c5c:	d54f      	bpl.n	8002cfe <HAL_RCCEx_PeriphCLKConfig+0xd2>
        }
      }
    }
    
    /* Reset the Backup domain only if the RTC Clock source selection is modified from reset value */ 
    temp_reg = (RCC->BDCR & RCC_BDCR_RTCSEL);
 8002c5e:	4b3d      	ldr	r3, [pc, #244]	; (8002d54 <HAL_RCCEx_PeriphCLKConfig+0x128>)
 8002c60:	6a1b      	ldr	r3, [r3, #32]
 8002c62:	22c0      	movs	r2, #192	; 0xc0
 8002c64:	0092      	lsls	r2, r2, #2
 8002c66:	4013      	ands	r3, r2
    if((temp_reg != 0x00000000U) && (temp_reg != (PeriphClkInit->RTCClockSelection & RCC_BDCR_RTCSEL)))
 8002c68:	d013      	beq.n	8002c92 <HAL_RCCEx_PeriphCLKConfig+0x66>
 8002c6a:	6861      	ldr	r1, [r4, #4]
 8002c6c:	400a      	ands	r2, r1
 8002c6e:	4293      	cmp	r3, r2
 8002c70:	d00f      	beq.n	8002c92 <HAL_RCCEx_PeriphCLKConfig+0x66>
    {
      /* Store the content of BDCR register before the reset of Backup Domain */
      temp_reg = (RCC->BDCR & ~(RCC_BDCR_RTCSEL));
 8002c72:	4b38      	ldr	r3, [pc, #224]	; (8002d54 <HAL_RCCEx_PeriphCLKConfig+0x128>)
 8002c74:	6a18      	ldr	r0, [r3, #32]
 8002c76:	4a39      	ldr	r2, [pc, #228]	; (8002d5c <HAL_RCCEx_PeriphCLKConfig+0x130>)
 8002c78:	4002      	ands	r2, r0
      /* RTC Clock selection can be changed only if the Backup Domain is reset */
      __HAL_RCC_BACKUPRESET_FORCE();
 8002c7a:	6a1e      	ldr	r6, [r3, #32]
 8002c7c:	2180      	movs	r1, #128	; 0x80
 8002c7e:	0249      	lsls	r1, r1, #9
 8002c80:	4331      	orrs	r1, r6
 8002c82:	6219      	str	r1, [r3, #32]
      __HAL_RCC_BACKUPRESET_RELEASE();
 8002c84:	6a19      	ldr	r1, [r3, #32]
 8002c86:	4e36      	ldr	r6, [pc, #216]	; (8002d60 <HAL_RCCEx_PeriphCLKConfig+0x134>)
 8002c88:	4031      	ands	r1, r6
 8002c8a:	6219      	str	r1, [r3, #32]
      /* Restore the Content of BDCR register */
      RCC->BDCR = temp_reg;
 8002c8c:	621a      	str	r2, [r3, #32]
      
      /* Wait for LSERDY if LSE was enabled */
      if (HAL_IS_BIT_SET(temp_reg, RCC_BDCR_LSEON))
 8002c8e:	07c3      	lsls	r3, r0, #31
 8002c90:	d449      	bmi.n	8002d26 <HAL_RCCEx_PeriphCLKConfig+0xfa>
            return HAL_TIMEOUT;
          }
        }
      }
    }
    __HAL_RCC_RTC_CONFIG(PeriphClkInit->RTCClockSelection);
 8002c92:	4a30      	ldr	r2, [pc, #192]	; (8002d54 <HAL_RCCEx_PeriphCLKConfig+0x128>)
 8002c94:	6a13      	ldr	r3, [r2, #32]
 8002c96:	4931      	ldr	r1, [pc, #196]	; (8002d5c <HAL_RCCEx_PeriphCLKConfig+0x130>)
 8002c98:	400b      	ands	r3, r1
 8002c9a:	6861      	ldr	r1, [r4, #4]
 8002c9c:	430b      	orrs	r3, r1
 8002c9e:	6213      	str	r3, [r2, #32]

    /* Require to disable power clock if necessary */
    if(pwrclkchanged == SET)
 8002ca0:	2d01      	cmp	r5, #1
 8002ca2:	d04f      	beq.n	8002d44 <HAL_RCCEx_PeriphCLKConfig+0x118>
      __HAL_RCC_PWR_CLK_DISABLE();
    }
  }

  /*------------------------------- USART1 Configuration ------------------------*/ 
  if(((PeriphClkInit->PeriphClockSelection) & RCC_PERIPHCLK_USART1) == RCC_PERIPHCLK_USART1)
 8002ca4:	6823      	ldr	r3, [r4, #0]
 8002ca6:	07db      	lsls	r3, r3, #31
 8002ca8:	d506      	bpl.n	8002cb8 <HAL_RCCEx_PeriphCLKConfig+0x8c>
  {
    /* Check the parameters */
    assert_param(IS_RCC_USART1CLKSOURCE(PeriphClkInit->Usart1ClockSelection));
    
    /* Configure the USART1 clock source */
    __HAL_RCC_USART1_CONFIG(PeriphClkInit->Usart1ClockSelection);
 8002caa:	4a2a      	ldr	r2, [pc, #168]	; (8002d54 <HAL_RCCEx_PeriphCLKConfig+0x128>)
 8002cac:	6b13      	ldr	r3, [r2, #48]	; 0x30
 8002cae:	2103      	movs	r1, #3
 8002cb0:	438b      	bics	r3, r1
 8002cb2:	68a1      	ldr	r1, [r4, #8]
 8002cb4:	430b      	orrs	r3, r1
 8002cb6:	6313      	str	r3, [r2, #48]	; 0x30
    __HAL_RCC_USART3_CONFIG(PeriphClkInit->Usart3ClockSelection);
  }
#endif /* STM32F091xC || STM32F098xx */  

  /*------------------------------ I2C1 Configuration ------------------------*/ 
  if(((PeriphClkInit->PeriphClockSelection) & RCC_PERIPHCLK_I2C1) == RCC_PERIPHCLK_I2C1)
 8002cb8:	6823      	ldr	r3, [r4, #0]
 8002cba:	069b      	lsls	r3, r3, #26
 8002cbc:	d506      	bpl.n	8002ccc <HAL_RCCEx_PeriphCLKConfig+0xa0>
  {
    /* Check the parameters */
    assert_param(IS_RCC_I2C1CLKSOURCE(PeriphClkInit->I2c1ClockSelection));
    
    /* Configure the I2C1 clock source */
    __HAL_RCC_I2C1_CONFIG(PeriphClkInit->I2c1ClockSelection);
 8002cbe:	4a25      	ldr	r2, [pc, #148]	; (8002d54 <HAL_RCCEx_PeriphCLKConfig+0x128>)
 8002cc0:	6b13      	ldr	r3, [r2, #48]	; 0x30
 8002cc2:	2110      	movs	r1, #16
 8002cc4:	438b      	bics	r3, r1
 8002cc6:	68e1      	ldr	r1, [r4, #12]
 8002cc8:	430b      	orrs	r3, r1
 8002cca:	6313      	str	r3, [r2, #48]	; 0x30
  }

#if defined(STM32F042x6) || defined(STM32F048xx) || defined(STM32F072xB) || defined(STM32F078xx) || defined(STM32F070xB) || defined(STM32F070x6)
  /*------------------------------ USB Configuration ------------------------*/ 
  if(((PeriphClkInit->PeriphClockSelection) & RCC_PERIPHCLK_USB) == RCC_PERIPHCLK_USB)
 8002ccc:	6823      	ldr	r3, [r4, #0]
 8002cce:	039b      	lsls	r3, r3, #14
 8002cd0:	d506      	bpl.n	8002ce0 <HAL_RCCEx_PeriphCLKConfig+0xb4>
  {
    /* Check the parameters */
    assert_param(IS_RCC_USBCLKSOURCE(PeriphClkInit->UsbClockSelection));
    
    /* Configure the USB clock source */
    __HAL_RCC_USB_CONFIG(PeriphClkInit->UsbClockSelection);
 8002cd2:	4a20      	ldr	r2, [pc, #128]	; (8002d54 <HAL_RCCEx_PeriphCLKConfig+0x128>)
 8002cd4:	6b13      	ldr	r3, [r2, #48]	; 0x30
 8002cd6:	2180      	movs	r1, #128	; 0x80
 8002cd8:	438b      	bics	r3, r1
 8002cda:	6961      	ldr	r1, [r4, #20]
 8002cdc:	430b      	orrs	r3, r1
 8002cde:	6313      	str	r3, [r2, #48]	; 0x30
#if defined(STM32F042x6) || defined(STM32F048xx)\
 || defined(STM32F051x8) || defined(STM32F058xx)\
 || defined(STM32F071xB) || defined(STM32F072xB) || defined(STM32F078xx)\
 || defined(STM32F091xC) || defined(STM32F098xx)
  /*------------------------------ CEC clock Configuration -------------------*/ 
  if(((PeriphClkInit->PeriphClockSelection) & RCC_PERIPHCLK_CEC) == RCC_PERIPHCLK_CEC)
 8002ce0:	6823      	ldr	r3, [r4, #0]
 8002ce2:	055b      	lsls	r3, r3, #21
 8002ce4:	d533      	bpl.n	8002d4e <HAL_RCCEx_PeriphCLKConfig+0x122>
  {
    /* Check the parameters */
    assert_param(IS_RCC_CECCLKSOURCE(PeriphClkInit->CecClockSelection));
    
    /* Configure the CEC clock source */
    __HAL_RCC_CEC_CONFIG(PeriphClkInit->CecClockSelection);
 8002ce6:	4a1b      	ldr	r2, [pc, #108]	; (8002d54 <HAL_RCCEx_PeriphCLKConfig+0x128>)
 8002ce8:	6b13      	ldr	r3, [r2, #48]	; 0x30
 8002cea:	2140      	movs	r1, #64	; 0x40
 8002cec:	438b      	bics	r3, r1
 8002cee:	6921      	ldr	r1, [r4, #16]
 8002cf0:	430b      	orrs	r3, r1
 8002cf2:	6313      	str	r3, [r2, #48]	; 0x30
#endif /* STM32F042x6 || STM32F048xx ||                */
       /* STM32F051x8 || STM32F058xx ||                */
       /* STM32F071xB || STM32F072xB || STM32F078xx || */
       /* STM32F091xC || STM32F098xx */
  
  return HAL_OK;
 8002cf4:	2000      	movs	r0, #0
}
 8002cf6:	b002      	add	sp, #8
 8002cf8:	bd70      	pop	{r4, r5, r6, pc}
    FlagStatus       pwrclkchanged = RESET;
 8002cfa:	2500      	movs	r5, #0
 8002cfc:	e7ab      	b.n	8002c56 <HAL_RCCEx_PeriphCLKConfig+0x2a>
      SET_BIT(PWR->CR, PWR_CR_DBP);
 8002cfe:	4a16      	ldr	r2, [pc, #88]	; (8002d58 <HAL_RCCEx_PeriphCLKConfig+0x12c>)
 8002d00:	6811      	ldr	r1, [r2, #0]
 8002d02:	2380      	movs	r3, #128	; 0x80
 8002d04:	005b      	lsls	r3, r3, #1
 8002d06:	430b      	orrs	r3, r1
 8002d08:	6013      	str	r3, [r2, #0]
      tickstart = HAL_GetTick();
 8002d0a:	f7fd fad1 	bl	80002b0 <HAL_GetTick>
 8002d0e:	0006      	movs	r6, r0
      while(HAL_IS_BIT_CLR(PWR->CR, PWR_CR_DBP))
 8002d10:	4b11      	ldr	r3, [pc, #68]	; (8002d58 <HAL_RCCEx_PeriphCLKConfig+0x12c>)
 8002d12:	681b      	ldr	r3, [r3, #0]
 8002d14:	05db      	lsls	r3, r3, #23
 8002d16:	d4a2      	bmi.n	8002c5e <HAL_RCCEx_PeriphCLKConfig+0x32>
        if((HAL_GetTick() - tickstart) > RCC_DBP_TIMEOUT_VALUE)
 8002d18:	f7fd faca 	bl	80002b0 <HAL_GetTick>
 8002d1c:	1b80      	subs	r0, r0, r6
 8002d1e:	2864      	cmp	r0, #100	; 0x64
 8002d20:	d9f6      	bls.n	8002d10 <HAL_RCCEx_PeriphCLKConfig+0xe4>
          return HAL_TIMEOUT;
 8002d22:	2003      	movs	r0, #3
 8002d24:	e7e7      	b.n	8002cf6 <HAL_RCCEx_PeriphCLKConfig+0xca>
        tickstart = HAL_GetTick();
 8002d26:	f7fd fac3 	bl	80002b0 <HAL_GetTick>
 8002d2a:	0006      	movs	r6, r0
        while(__HAL_RCC_GET_FLAG(RCC_FLAG_LSERDY) == RESET)
 8002d2c:	4b09      	ldr	r3, [pc, #36]	; (8002d54 <HAL_RCCEx_PeriphCLKConfig+0x128>)
 8002d2e:	6a1b      	ldr	r3, [r3, #32]
 8002d30:	079b      	lsls	r3, r3, #30
 8002d32:	d4ae      	bmi.n	8002c92 <HAL_RCCEx_PeriphCLKConfig+0x66>
          if((HAL_GetTick() - tickstart) > RCC_LSE_TIMEOUT_VALUE)
 8002d34:	f7fd fabc 	bl	80002b0 <HAL_GetTick>
 8002d38:	1b80      	subs	r0, r0, r6
 8002d3a:	4b0a      	ldr	r3, [pc, #40]	; (8002d64 <HAL_RCCEx_PeriphCLKConfig+0x138>)
 8002d3c:	4298      	cmp	r0, r3
 8002d3e:	d9f5      	bls.n	8002d2c <HAL_RCCEx_PeriphCLKConfig+0x100>
            return HAL_TIMEOUT;
 8002d40:	2003      	movs	r0, #3
 8002d42:	e7d8      	b.n	8002cf6 <HAL_RCCEx_PeriphCLKConfig+0xca>
      __HAL_RCC_PWR_CLK_DISABLE();
 8002d44:	69d3      	ldr	r3, [r2, #28]
 8002d46:	4908      	ldr	r1, [pc, #32]	; (8002d68 <HAL_RCCEx_PeriphCLKConfig+0x13c>)
 8002d48:	400b      	ands	r3, r1
 8002d4a:	61d3      	str	r3, [r2, #28]
 8002d4c:	e7aa      	b.n	8002ca4 <HAL_RCCEx_PeriphCLKConfig+0x78>
  return HAL_OK;
 8002d4e:	2000      	movs	r0, #0
 8002d50:	e7d1      	b.n	8002cf6 <HAL_RCCEx_PeriphCLKConfig+0xca>
 8002d52:	46c0      	nop			; (mov r8, r8)
 8002d54:	40021000 	.word	0x40021000
 8002d58:	40007000 	.word	0x40007000
 8002d5c:	fffffcff 	.word	0xfffffcff
 8002d60:	fffeffff 	.word	0xfffeffff
 8002d64:	00001388 	.word	0x00001388
 8002d68:	efffffff 	.word	0xefffffff

08002d6c <SPI_WaitFlagStateUntilTimeout>:
  * @param Tickstart tick start value
  * @retval HAL status
  */
static HAL_StatusTypeDef SPI_WaitFlagStateUntilTimeout(SPI_HandleTypeDef *hspi, uint32_t Flag, uint32_t State,
                                                       uint32_t Timeout, uint32_t Tickstart)
{
 8002d6c:	b5f8      	push	{r3, r4, r5, r6, r7, lr}
 8002d6e:	0006      	movs	r6, r0
 8002d70:	000c      	movs	r4, r1
 8002d72:	0017      	movs	r7, r2
 8002d74:	001d      	movs	r5, r3
  while ((__HAL_SPI_GET_FLAG(hspi, Flag) ? SET : RESET) != State)
 8002d76:	e03e      	b.n	8002df6 <SPI_WaitFlagStateUntilTimeout+0x8a>
  {
    if (Timeout != HAL_MAX_DELAY)
    {
      if ((Timeout == 0U) || ((HAL_GetTick() - Tickstart) >= Timeout))
 8002d78:	2d00      	cmp	r5, #0
 8002d7a:	d005      	beq.n	8002d88 <SPI_WaitFlagStateUntilTimeout+0x1c>
 8002d7c:	f7fd fa98 	bl	80002b0 <HAL_GetTick>
 8002d80:	9b06      	ldr	r3, [sp, #24]
 8002d82:	1ac0      	subs	r0, r0, r3
 8002d84:	4285      	cmp	r5, r0
 8002d86:	d836      	bhi.n	8002df6 <SPI_WaitFlagStateUntilTimeout+0x8a>
        /* Disable the SPI and reset the CRC: the CRC value should be cleared
        on both master and slave sides in order to resynchronize the master
        and slave for their respective CRC calculation */

        /* Disable TXE, RXNE and ERR interrupts for the interrupt process */
        __HAL_SPI_DISABLE_IT(hspi, (SPI_IT_TXE | SPI_IT_RXNE | SPI_IT_ERR));
 8002d88:	6832      	ldr	r2, [r6, #0]
 8002d8a:	6853      	ldr	r3, [r2, #4]
 8002d8c:	21e0      	movs	r1, #224	; 0xe0
 8002d8e:	438b      	bics	r3, r1
 8002d90:	6053      	str	r3, [r2, #4]

        if ((hspi->Init.Mode == SPI_MODE_MASTER) && ((hspi->Init.Direction == SPI_DIRECTION_1LINE)
 8002d92:	2382      	movs	r3, #130	; 0x82
 8002d94:	005b      	lsls	r3, r3, #1
 8002d96:	6872      	ldr	r2, [r6, #4]
 8002d98:	429a      	cmp	r2, r3
 8002d9a:	d00c      	beq.n	8002db6 <SPI_WaitFlagStateUntilTimeout+0x4a>
          /* Disable SPI peripheral */
          __HAL_SPI_DISABLE(hspi);
        }

        /* Reset CRC Calculation */
        if (hspi->Init.CRCCalculation == SPI_CRCCALCULATION_ENABLE)
 8002d9c:	2380      	movs	r3, #128	; 0x80
 8002d9e:	019b      	lsls	r3, r3, #6
 8002da0:	6ab2      	ldr	r2, [r6, #40]	; 0x28
 8002da2:	429a      	cmp	r2, r3
 8002da4:	d016      	beq.n	8002dd4 <SPI_WaitFlagStateUntilTimeout+0x68>
        {
          SPI_RESET_CRC(hspi);
        }

        hspi->State = HAL_SPI_STATE_READY;
 8002da6:	2201      	movs	r2, #1
 8002da8:	235d      	movs	r3, #93	; 0x5d
 8002daa:	54f2      	strb	r2, [r6, r3]

        /* Process Unlocked */
        __HAL_UNLOCK(hspi);
 8002dac:	2200      	movs	r2, #0
 8002dae:	3b01      	subs	r3, #1
 8002db0:	54f2      	strb	r2, [r6, r3]

        return HAL_TIMEOUT;
 8002db2:	2003      	movs	r0, #3
 8002db4:	e027      	b.n	8002e06 <SPI_WaitFlagStateUntilTimeout+0x9a>
        if ((hspi->Init.Mode == SPI_MODE_MASTER) && ((hspi->Init.Direction == SPI_DIRECTION_1LINE)
 8002db6:	68b3      	ldr	r3, [r6, #8]
 8002db8:	2280      	movs	r2, #128	; 0x80
 8002dba:	0212      	lsls	r2, r2, #8
 8002dbc:	4293      	cmp	r3, r2
 8002dbe:	d003      	beq.n	8002dc8 <SPI_WaitFlagStateUntilTimeout+0x5c>
                                                     || (hspi->Init.Direction == SPI_DIRECTION_2LINES_RXONLY)))
 8002dc0:	2280      	movs	r2, #128	; 0x80
 8002dc2:	00d2      	lsls	r2, r2, #3
 8002dc4:	4293      	cmp	r3, r2
 8002dc6:	d1e9      	bne.n	8002d9c <SPI_WaitFlagStateUntilTimeout+0x30>
          __HAL_SPI_DISABLE(hspi);
 8002dc8:	6832      	ldr	r2, [r6, #0]
 8002dca:	6813      	ldr	r3, [r2, #0]
 8002dcc:	2140      	movs	r1, #64	; 0x40
 8002dce:	438b      	bics	r3, r1
 8002dd0:	6013      	str	r3, [r2, #0]
 8002dd2:	e7e3      	b.n	8002d9c <SPI_WaitFlagStateUntilTimeout+0x30>
          SPI_RESET_CRC(hspi);
 8002dd4:	6832      	ldr	r2, [r6, #0]
 8002dd6:	6813      	ldr	r3, [r2, #0]
 8002dd8:	490b      	ldr	r1, [pc, #44]	; (8002e08 <SPI_WaitFlagStateUntilTimeout+0x9c>)
 8002dda:	400b      	ands	r3, r1
 8002ddc:	6013      	str	r3, [r2, #0]
 8002dde:	6832      	ldr	r2, [r6, #0]
 8002de0:	6811      	ldr	r1, [r2, #0]
 8002de2:	2380      	movs	r3, #128	; 0x80
 8002de4:	019b      	lsls	r3, r3, #6
 8002de6:	430b      	orrs	r3, r1
 8002de8:	6013      	str	r3, [r2, #0]
 8002dea:	e7dc      	b.n	8002da6 <SPI_WaitFlagStateUntilTimeout+0x3a>
  while ((__HAL_SPI_GET_FLAG(hspi, Flag) ? SET : RESET) != State)
 8002dec:	2301      	movs	r3, #1
 8002dee:	42bb      	cmp	r3, r7
 8002df0:	d008      	beq.n	8002e04 <SPI_WaitFlagStateUntilTimeout+0x98>
    if (Timeout != HAL_MAX_DELAY)
 8002df2:	1c6b      	adds	r3, r5, #1
 8002df4:	d1c0      	bne.n	8002d78 <SPI_WaitFlagStateUntilTimeout+0xc>
  while ((__HAL_SPI_GET_FLAG(hspi, Flag) ? SET : RESET) != State)
 8002df6:	6833      	ldr	r3, [r6, #0]
 8002df8:	689b      	ldr	r3, [r3, #8]
 8002dfa:	4023      	ands	r3, r4
 8002dfc:	429c      	cmp	r4, r3
 8002dfe:	d0f5      	beq.n	8002dec <SPI_WaitFlagStateUntilTimeout+0x80>
 8002e00:	2300      	movs	r3, #0
 8002e02:	e7f4      	b.n	8002dee <SPI_WaitFlagStateUntilTimeout+0x82>
      }
    }
  }

  return HAL_OK;
 8002e04:	2000      	movs	r0, #0
}
 8002e06:	bdf8      	pop	{r3, r4, r5, r6, r7, pc}
 8002e08:	ffffdfff 	.word	0xffffdfff

08002e0c <SPI_WaitFifoStateUntilTimeout>:
  * @param Tickstart tick start value
  * @retval HAL status
  */
static HAL_StatusTypeDef SPI_WaitFifoStateUntilTimeout(SPI_HandleTypeDef *hspi, uint32_t Fifo, uint32_t State,
                                                       uint32_t Timeout, uint32_t Tickstart)
{
 8002e0c:	b5f0      	push	{r4, r5, r6, r7, lr}
 8002e0e:	b083      	sub	sp, #12
 8002e10:	0007      	movs	r7, r0
 8002e12:	000c      	movs	r4, r1
 8002e14:	0015      	movs	r5, r2
 8002e16:	001e      	movs	r6, r3
  __IO uint8_t tmpreg;

  while ((hspi->Instance->SR & Fifo) != State)
 8002e18:	e001      	b.n	8002e1e <SPI_WaitFifoStateUntilTimeout+0x12>
      tmpreg = *((__IO uint8_t *)&hspi->Instance->DR);
      /* To avoid GCC warning */
      UNUSED(tmpreg);
    }

    if (Timeout != HAL_MAX_DELAY)
 8002e1a:	1c73      	adds	r3, r6, #1
 8002e1c:	d110      	bne.n	8002e40 <SPI_WaitFifoStateUntilTimeout+0x34>
  while ((hspi->Instance->SR & Fifo) != State)
 8002e1e:	683a      	ldr	r2, [r7, #0]
 8002e20:	6893      	ldr	r3, [r2, #8]
 8002e22:	4023      	ands	r3, r4
 8002e24:	42ab      	cmp	r3, r5
 8002e26:	d045      	beq.n	8002eb4 <SPI_WaitFifoStateUntilTimeout+0xa8>
    if ((Fifo == SPI_SR_FRLVL) && (State == SPI_FRLVL_EMPTY))
 8002e28:	23c0      	movs	r3, #192	; 0xc0
 8002e2a:	00db      	lsls	r3, r3, #3
 8002e2c:	429c      	cmp	r4, r3
 8002e2e:	d1f4      	bne.n	8002e1a <SPI_WaitFifoStateUntilTimeout+0xe>
 8002e30:	2d00      	cmp	r5, #0
 8002e32:	d1f2      	bne.n	8002e1a <SPI_WaitFifoStateUntilTimeout+0xe>
      tmpreg = *((__IO uint8_t *)&hspi->Instance->DR);
 8002e34:	7b13      	ldrb	r3, [r2, #12]
 8002e36:	b2db      	uxtb	r3, r3
 8002e38:	466a      	mov	r2, sp
 8002e3a:	71d3      	strb	r3, [r2, #7]
      UNUSED(tmpreg);
 8002e3c:	79d3      	ldrb	r3, [r2, #7]
 8002e3e:	e7ec      	b.n	8002e1a <SPI_WaitFifoStateUntilTimeout+0xe>
    {
      if ((Timeout == 0U) || ((HAL_GetTick() - Tickstart) >= Timeout))
 8002e40:	2e00      	cmp	r6, #0
 8002e42:	d005      	beq.n	8002e50 <SPI_WaitFifoStateUntilTimeout+0x44>
 8002e44:	f7fd fa34 	bl	80002b0 <HAL_GetTick>
 8002e48:	9b08      	ldr	r3, [sp, #32]
 8002e4a:	1ac0      	subs	r0, r0, r3
 8002e4c:	4286      	cmp	r6, r0
 8002e4e:	d8e6      	bhi.n	8002e1e <SPI_WaitFifoStateUntilTimeout+0x12>
        /* Disable the SPI and reset the CRC: the CRC value should be cleared
           on both master and slave sides in order to resynchronize the master
           and slave for their respective CRC calculation */

        /* Disable TXE, RXNE and ERR interrupts for the interrupt process */
        __HAL_SPI_DISABLE_IT(hspi, (SPI_IT_TXE | SPI_IT_RXNE | SPI_IT_ERR));
 8002e50:	683a      	ldr	r2, [r7, #0]
 8002e52:	6853      	ldr	r3, [r2, #4]
 8002e54:	21e0      	movs	r1, #224	; 0xe0
 8002e56:	438b      	bics	r3, r1
 8002e58:	6053      	str	r3, [r2, #4]

        if ((hspi->Init.Mode == SPI_MODE_MASTER) && ((hspi->Init.Direction == SPI_DIRECTION_1LINE)
 8002e5a:	2382      	movs	r3, #130	; 0x82
 8002e5c:	005b      	lsls	r3, r3, #1
 8002e5e:	687a      	ldr	r2, [r7, #4]
 8002e60:	429a      	cmp	r2, r3
 8002e62:	d00c      	beq.n	8002e7e <SPI_WaitFifoStateUntilTimeout+0x72>
          /* Disable SPI peripheral */
          __HAL_SPI_DISABLE(hspi);
        }

        /* Reset CRC Calculation */
        if (hspi->Init.CRCCalculation == SPI_CRCCALCULATION_ENABLE)
 8002e64:	2380      	movs	r3, #128	; 0x80
 8002e66:	019b      	lsls	r3, r3, #6
 8002e68:	6aba      	ldr	r2, [r7, #40]	; 0x28
 8002e6a:	429a      	cmp	r2, r3
 8002e6c:	d016      	beq.n	8002e9c <SPI_WaitFifoStateUntilTimeout+0x90>
        {
          SPI_RESET_CRC(hspi);
        }

        hspi->State = HAL_SPI_STATE_READY;
 8002e6e:	2201      	movs	r2, #1
 8002e70:	235d      	movs	r3, #93	; 0x5d
 8002e72:	54fa      	strb	r2, [r7, r3]

        /* Process Unlocked */
        __HAL_UNLOCK(hspi);
 8002e74:	2200      	movs	r2, #0
 8002e76:	3b01      	subs	r3, #1
 8002e78:	54fa      	strb	r2, [r7, r3]

        return HAL_TIMEOUT;
 8002e7a:	2003      	movs	r0, #3
 8002e7c:	e01b      	b.n	8002eb6 <SPI_WaitFifoStateUntilTimeout+0xaa>
        if ((hspi->Init.Mode == SPI_MODE_MASTER) && ((hspi->Init.Direction == SPI_DIRECTION_1LINE)
 8002e7e:	68bb      	ldr	r3, [r7, #8]
 8002e80:	2280      	movs	r2, #128	; 0x80
 8002e82:	0212      	lsls	r2, r2, #8
 8002e84:	4293      	cmp	r3, r2
 8002e86:	d003      	beq.n	8002e90 <SPI_WaitFifoStateUntilTimeout+0x84>
                                                     || (hspi->Init.Direction == SPI_DIRECTION_2LINES_RXONLY)))
 8002e88:	2280      	movs	r2, #128	; 0x80
 8002e8a:	00d2      	lsls	r2, r2, #3
 8002e8c:	4293      	cmp	r3, r2
 8002e8e:	d1e9      	bne.n	8002e64 <SPI_WaitFifoStateUntilTimeout+0x58>
          __HAL_SPI_DISABLE(hspi);
 8002e90:	683a      	ldr	r2, [r7, #0]
 8002e92:	6813      	ldr	r3, [r2, #0]
 8002e94:	2140      	movs	r1, #64	; 0x40
 8002e96:	438b      	bics	r3, r1
 8002e98:	6013      	str	r3, [r2, #0]
 8002e9a:	e7e3      	b.n	8002e64 <SPI_WaitFifoStateUntilTimeout+0x58>
          SPI_RESET_CRC(hspi);
 8002e9c:	683a      	ldr	r2, [r7, #0]
 8002e9e:	6813      	ldr	r3, [r2, #0]
 8002ea0:	4906      	ldr	r1, [pc, #24]	; (8002ebc <SPI_WaitFifoStateUntilTimeout+0xb0>)
 8002ea2:	400b      	ands	r3, r1
 8002ea4:	6013      	str	r3, [r2, #0]
 8002ea6:	683a      	ldr	r2, [r7, #0]
 8002ea8:	6811      	ldr	r1, [r2, #0]
 8002eaa:	2380      	movs	r3, #128	; 0x80
 8002eac:	019b      	lsls	r3, r3, #6
 8002eae:	430b      	orrs	r3, r1
 8002eb0:	6013      	str	r3, [r2, #0]
 8002eb2:	e7dc      	b.n	8002e6e <SPI_WaitFifoStateUntilTimeout+0x62>
      }
    }
  }

  return HAL_OK;
 8002eb4:	2000      	movs	r0, #0
}
 8002eb6:	b003      	add	sp, #12
 8002eb8:	bdf0      	pop	{r4, r5, r6, r7, pc}
 8002eba:	46c0      	nop			; (mov r8, r8)
 8002ebc:	ffffdfff 	.word	0xffffdfff

08002ec0 <SPI_EndRxTxTransaction>:
  * @param  Timeout Timeout duration
  * @param  Tickstart tick start value
  * @retval HAL status
  */
static HAL_StatusTypeDef SPI_EndRxTxTransaction(SPI_HandleTypeDef *hspi, uint32_t Timeout, uint32_t Tickstart)
{
 8002ec0:	b570      	push	{r4, r5, r6, lr}
 8002ec2:	b082      	sub	sp, #8
 8002ec4:	0004      	movs	r4, r0
 8002ec6:	000d      	movs	r5, r1
 8002ec8:	0016      	movs	r6, r2
  /* Control if the TX fifo is empty */
  if (SPI_WaitFifoStateUntilTimeout(hspi, SPI_FLAG_FTLVL, SPI_FTLVL_EMPTY, Timeout, Tickstart) != HAL_OK)
 8002eca:	9200      	str	r2, [sp, #0]
 8002ecc:	000b      	movs	r3, r1
 8002ece:	2200      	movs	r2, #0
 8002ed0:	21c0      	movs	r1, #192	; 0xc0
 8002ed2:	0149      	lsls	r1, r1, #5
 8002ed4:	f7ff ff9a 	bl	8002e0c <SPI_WaitFifoStateUntilTimeout>
 8002ed8:	2800      	cmp	r0, #0
 8002eda:	d006      	beq.n	8002eea <SPI_EndRxTxTransaction+0x2a>
  {
    SET_BIT(hspi->ErrorCode, HAL_SPI_ERROR_FLAG);
 8002edc:	6e23      	ldr	r3, [r4, #96]	; 0x60
 8002ede:	2220      	movs	r2, #32
 8002ee0:	4313      	orrs	r3, r2
 8002ee2:	6623      	str	r3, [r4, #96]	; 0x60
    return HAL_TIMEOUT;
 8002ee4:	2003      	movs	r0, #3
  {
    SET_BIT(hspi->ErrorCode, HAL_SPI_ERROR_FLAG);
    return HAL_TIMEOUT;
  }
  return HAL_OK;
}
 8002ee6:	b002      	add	sp, #8
 8002ee8:	bd70      	pop	{r4, r5, r6, pc}
  if (SPI_WaitFlagStateUntilTimeout(hspi, SPI_FLAG_BSY, RESET, Timeout, Tickstart) != HAL_OK)
 8002eea:	9600      	str	r6, [sp, #0]
 8002eec:	002b      	movs	r3, r5
 8002eee:	2200      	movs	r2, #0
 8002ef0:	2180      	movs	r1, #128	; 0x80
 8002ef2:	0020      	movs	r0, r4
 8002ef4:	f7ff ff3a 	bl	8002d6c <SPI_WaitFlagStateUntilTimeout>
 8002ef8:	2800      	cmp	r0, #0
 8002efa:	d005      	beq.n	8002f08 <SPI_EndRxTxTransaction+0x48>
    SET_BIT(hspi->ErrorCode, HAL_SPI_ERROR_FLAG);
 8002efc:	6e23      	ldr	r3, [r4, #96]	; 0x60
 8002efe:	2220      	movs	r2, #32
 8002f00:	4313      	orrs	r3, r2
 8002f02:	6623      	str	r3, [r4, #96]	; 0x60
    return HAL_TIMEOUT;
 8002f04:	2003      	movs	r0, #3
 8002f06:	e7ee      	b.n	8002ee6 <SPI_EndRxTxTransaction+0x26>
  if (SPI_WaitFifoStateUntilTimeout(hspi, SPI_FLAG_FRLVL, SPI_FRLVL_EMPTY, Timeout, Tickstart) != HAL_OK)
 8002f08:	9600      	str	r6, [sp, #0]
 8002f0a:	002b      	movs	r3, r5
 8002f0c:	2200      	movs	r2, #0
 8002f0e:	21c0      	movs	r1, #192	; 0xc0
 8002f10:	00c9      	lsls	r1, r1, #3
 8002f12:	0020      	movs	r0, r4
 8002f14:	f7ff ff7a 	bl	8002e0c <SPI_WaitFifoStateUntilTimeout>
 8002f18:	2800      	cmp	r0, #0
 8002f1a:	d0e4      	beq.n	8002ee6 <SPI_EndRxTxTransaction+0x26>
    SET_BIT(hspi->ErrorCode, HAL_SPI_ERROR_FLAG);
 8002f1c:	6e23      	ldr	r3, [r4, #96]	; 0x60
 8002f1e:	2220      	movs	r2, #32
 8002f20:	4313      	orrs	r3, r2
 8002f22:	6623      	str	r3, [r4, #96]	; 0x60
    return HAL_TIMEOUT;
 8002f24:	2003      	movs	r0, #3
 8002f26:	e7de      	b.n	8002ee6 <SPI_EndRxTxTransaction+0x26>

08002f28 <HAL_SPI_Init>:
{
 8002f28:	b570      	push	{r4, r5, r6, lr}
 8002f2a:	1e04      	subs	r4, r0, #0
  if (hspi == NULL)
 8002f2c:	d05e      	beq.n	8002fec <HAL_SPI_Init+0xc4>
  hspi->Init.CRCCalculation = SPI_CRCCALCULATION_DISABLE;
 8002f2e:	2300      	movs	r3, #0
 8002f30:	6283      	str	r3, [r0, #40]	; 0x28
  if (hspi->State == HAL_SPI_STATE_RESET)
 8002f32:	335d      	adds	r3, #93	; 0x5d
 8002f34:	5cc3      	ldrb	r3, [r0, r3]
 8002f36:	2b00      	cmp	r3, #0
 8002f38:	d04c      	beq.n	8002fd4 <HAL_SPI_Init+0xac>
  hspi->State = HAL_SPI_STATE_BUSY;
 8002f3a:	2202      	movs	r2, #2
 8002f3c:	235d      	movs	r3, #93	; 0x5d
 8002f3e:	54e2      	strb	r2, [r4, r3]
  __HAL_SPI_DISABLE(hspi);
 8002f40:	6822      	ldr	r2, [r4, #0]
 8002f42:	6813      	ldr	r3, [r2, #0]
 8002f44:	2140      	movs	r1, #64	; 0x40
 8002f46:	438b      	bics	r3, r1
 8002f48:	6013      	str	r3, [r2, #0]
  if (hspi->Init.DataSize > SPI_DATASIZE_8BIT)
 8002f4a:	68e3      	ldr	r3, [r4, #12]
 8002f4c:	22e0      	movs	r2, #224	; 0xe0
 8002f4e:	00d2      	lsls	r2, r2, #3
 8002f50:	4293      	cmp	r3, r2
 8002f52:	d945      	bls.n	8002fe0 <HAL_SPI_Init+0xb8>
    frxth = SPI_RXFIFO_THRESHOLD_HF;
 8002f54:	2100      	movs	r1, #0
  if ((hspi->Init.DataSize != SPI_DATASIZE_16BIT) && (hspi->Init.DataSize != SPI_DATASIZE_8BIT))
 8002f56:	22f0      	movs	r2, #240	; 0xf0
 8002f58:	0112      	lsls	r2, r2, #4
 8002f5a:	4293      	cmp	r3, r2
 8002f5c:	d005      	beq.n	8002f6a <HAL_SPI_Init+0x42>
 8002f5e:	22e0      	movs	r2, #224	; 0xe0
 8002f60:	00d2      	lsls	r2, r2, #3
 8002f62:	4293      	cmp	r3, r2
 8002f64:	d001      	beq.n	8002f6a <HAL_SPI_Init+0x42>
    hspi->Init.CRCCalculation = SPI_CRCCALCULATION_DISABLE;
 8002f66:	2200      	movs	r2, #0
 8002f68:	62a2      	str	r2, [r4, #40]	; 0x28
  if (hspi->Init.CRCLength == SPI_CRC_LENGTH_DATASIZE)
 8002f6a:	6b22      	ldr	r2, [r4, #48]	; 0x30
 8002f6c:	2a00      	cmp	r2, #0
 8002f6e:	d105      	bne.n	8002f7c <HAL_SPI_Init+0x54>
    if (hspi->Init.DataSize > SPI_DATASIZE_8BIT)
 8002f70:	22e0      	movs	r2, #224	; 0xe0
 8002f72:	00d2      	lsls	r2, r2, #3
 8002f74:	4293      	cmp	r3, r2
 8002f76:	d936      	bls.n	8002fe6 <HAL_SPI_Init+0xbe>
      hspi->Init.CRCLength = SPI_CRC_LENGTH_16BIT;
 8002f78:	2302      	movs	r3, #2
 8002f7a:	6323      	str	r3, [r4, #48]	; 0x30
  WRITE_REG(hspi->Instance->CR1, (hspi->Init.Mode | hspi->Init.Direction |
 8002f7c:	6822      	ldr	r2, [r4, #0]
 8002f7e:	6863      	ldr	r3, [r4, #4]
 8002f80:	68a0      	ldr	r0, [r4, #8]
 8002f82:	4303      	orrs	r3, r0
 8002f84:	6920      	ldr	r0, [r4, #16]
 8002f86:	4303      	orrs	r3, r0
 8002f88:	6960      	ldr	r0, [r4, #20]
 8002f8a:	4303      	orrs	r3, r0
 8002f8c:	2080      	movs	r0, #128	; 0x80
 8002f8e:	0080      	lsls	r0, r0, #2
 8002f90:	69a5      	ldr	r5, [r4, #24]
 8002f92:	4028      	ands	r0, r5
 8002f94:	4303      	orrs	r3, r0
 8002f96:	69e0      	ldr	r0, [r4, #28]
 8002f98:	4303      	orrs	r3, r0
 8002f9a:	6a20      	ldr	r0, [r4, #32]
 8002f9c:	4303      	orrs	r3, r0
 8002f9e:	6aa0      	ldr	r0, [r4, #40]	; 0x28
 8002fa0:	4303      	orrs	r3, r0
 8002fa2:	6013      	str	r3, [r2, #0]
  WRITE_REG(hspi->Instance->CR2, (((hspi->Init.NSS >> 16U) & SPI_CR2_SSOE) | hspi->Init.TIMode |
 8002fa4:	6822      	ldr	r2, [r4, #0]
 8002fa6:	8b60      	ldrh	r0, [r4, #26]
 8002fa8:	2304      	movs	r3, #4
 8002faa:	4003      	ands	r3, r0
 8002fac:	6a60      	ldr	r0, [r4, #36]	; 0x24
 8002fae:	4303      	orrs	r3, r0
 8002fb0:	6b60      	ldr	r0, [r4, #52]	; 0x34
 8002fb2:	4303      	orrs	r3, r0
 8002fb4:	68e0      	ldr	r0, [r4, #12]
 8002fb6:	4303      	orrs	r3, r0
 8002fb8:	430b      	orrs	r3, r1
 8002fba:	6053      	str	r3, [r2, #4]
  CLEAR_BIT(hspi->Instance->I2SCFGR, SPI_I2SCFGR_I2SMOD);
 8002fbc:	6822      	ldr	r2, [r4, #0]
 8002fbe:	69d3      	ldr	r3, [r2, #28]
 8002fc0:	490b      	ldr	r1, [pc, #44]	; (8002ff0 <HAL_SPI_Init+0xc8>)
 8002fc2:	400b      	ands	r3, r1
 8002fc4:	61d3      	str	r3, [r2, #28]
  hspi->ErrorCode = HAL_SPI_ERROR_NONE;
 8002fc6:	2300      	movs	r3, #0
 8002fc8:	6623      	str	r3, [r4, #96]	; 0x60
  hspi->State     = HAL_SPI_STATE_READY;
 8002fca:	2201      	movs	r2, #1
 8002fcc:	335d      	adds	r3, #93	; 0x5d
 8002fce:	54e2      	strb	r2, [r4, r3]
  return HAL_OK;
 8002fd0:	2000      	movs	r0, #0
}
 8002fd2:	bd70      	pop	{r4, r5, r6, pc}
    hspi->Lock = HAL_UNLOCKED;
 8002fd4:	2200      	movs	r2, #0
 8002fd6:	335c      	adds	r3, #92	; 0x5c
 8002fd8:	54c2      	strb	r2, [r0, r3]
    HAL_SPI_MspInit(hspi);
 8002fda:	f002 fc2b 	bl	8005834 <HAL_SPI_MspInit>
 8002fde:	e7ac      	b.n	8002f3a <HAL_SPI_Init+0x12>
    frxth = SPI_RXFIFO_THRESHOLD_QF;
 8002fe0:	2180      	movs	r1, #128	; 0x80
 8002fe2:	0149      	lsls	r1, r1, #5
 8002fe4:	e7b7      	b.n	8002f56 <HAL_SPI_Init+0x2e>
      hspi->Init.CRCLength = SPI_CRC_LENGTH_8BIT;
 8002fe6:	2301      	movs	r3, #1
 8002fe8:	6323      	str	r3, [r4, #48]	; 0x30
 8002fea:	e7c7      	b.n	8002f7c <HAL_SPI_Init+0x54>
    return HAL_ERROR;
 8002fec:	2001      	movs	r0, #1
 8002fee:	e7f0      	b.n	8002fd2 <HAL_SPI_Init+0xaa>
 8002ff0:	fffff7ff 	.word	0xfffff7ff

08002ff4 <HAL_SPI_Transmit_DMA>:
{
 8002ff4:	b510      	push	{r4, lr}
 8002ff6:	0004      	movs	r4, r0
  __HAL_LOCK(hspi);
 8002ff8:	235c      	movs	r3, #92	; 0x5c
 8002ffa:	5cc3      	ldrb	r3, [r0, r3]
 8002ffc:	2b01      	cmp	r3, #1
 8002ffe:	d100      	bne.n	8003002 <HAL_SPI_Transmit_DMA+0xe>
 8003000:	e07c      	b.n	80030fc <HAL_SPI_Transmit_DMA+0x108>
 8003002:	2001      	movs	r0, #1
 8003004:	235c      	movs	r3, #92	; 0x5c
 8003006:	54e0      	strb	r0, [r4, r3]
  if (hspi->State != HAL_SPI_STATE_READY)
 8003008:	3301      	adds	r3, #1
 800300a:	5ce3      	ldrb	r3, [r4, r3]
 800300c:	2b01      	cmp	r3, #1
 800300e:	d004      	beq.n	800301a <HAL_SPI_Transmit_DMA+0x26>
    errorcode = HAL_BUSY;
 8003010:	2002      	movs	r0, #2
  __HAL_UNLOCK(hspi);
 8003012:	2200      	movs	r2, #0
 8003014:	235c      	movs	r3, #92	; 0x5c
 8003016:	54e2      	strb	r2, [r4, r3]
}
 8003018:	bd10      	pop	{r4, pc}
  if ((pData == NULL) || (Size == 0U))
 800301a:	2900      	cmp	r1, #0
 800301c:	d06a      	beq.n	80030f4 <HAL_SPI_Transmit_DMA+0x100>
 800301e:	2a00      	cmp	r2, #0
 8003020:	d06a      	beq.n	80030f8 <HAL_SPI_Transmit_DMA+0x104>
  hspi->State       = HAL_SPI_STATE_BUSY_TX;
 8003022:	3002      	adds	r0, #2
 8003024:	335c      	adds	r3, #92	; 0x5c
 8003026:	54e0      	strb	r0, [r4, r3]
  hspi->ErrorCode   = HAL_SPI_ERROR_NONE;
 8003028:	2300      	movs	r3, #0
 800302a:	6623      	str	r3, [r4, #96]	; 0x60
  hspi->pTxBuffPtr  = (uint8_t *)pData;
 800302c:	63a1      	str	r1, [r4, #56]	; 0x38
  hspi->TxXferSize  = Size;
 800302e:	87a2      	strh	r2, [r4, #60]	; 0x3c
  hspi->TxXferCount = Size;
 8003030:	87e2      	strh	r2, [r4, #62]	; 0x3e
  hspi->pRxBuffPtr  = (uint8_t *)NULL;
 8003032:	6423      	str	r3, [r4, #64]	; 0x40
  hspi->TxISR       = NULL;
 8003034:	6523      	str	r3, [r4, #80]	; 0x50
  hspi->RxISR       = NULL;
 8003036:	64e3      	str	r3, [r4, #76]	; 0x4c
  hspi->RxXferSize  = 0U;
 8003038:	2244      	movs	r2, #68	; 0x44
 800303a:	52a3      	strh	r3, [r4, r2]
  hspi->RxXferCount = 0U;
 800303c:	3202      	adds	r2, #2
 800303e:	52a3      	strh	r3, [r4, r2]
  if (hspi->Init.Direction == SPI_DIRECTION_1LINE)
 8003040:	2380      	movs	r3, #128	; 0x80
 8003042:	021b      	lsls	r3, r3, #8
 8003044:	68a2      	ldr	r2, [r4, #8]
 8003046:	429a      	cmp	r2, r3
 8003048:	d037      	beq.n	80030ba <HAL_SPI_Transmit_DMA+0xc6>
  hspi->hdmatx->XferHalfCpltCallback = SPI_DMAHalfTransmitCplt;
 800304a:	6d63      	ldr	r3, [r4, #84]	; 0x54
 800304c:	4a2c      	ldr	r2, [pc, #176]	; (8003100 <HAL_SPI_Transmit_DMA+0x10c>)
 800304e:	62da      	str	r2, [r3, #44]	; 0x2c
  hspi->hdmatx->XferCpltCallback = SPI_DMATransmitCplt;
 8003050:	6d63      	ldr	r3, [r4, #84]	; 0x54
 8003052:	4a2c      	ldr	r2, [pc, #176]	; (8003104 <HAL_SPI_Transmit_DMA+0x110>)
 8003054:	629a      	str	r2, [r3, #40]	; 0x28
  hspi->hdmatx->XferErrorCallback = SPI_DMAError;
 8003056:	6d63      	ldr	r3, [r4, #84]	; 0x54
 8003058:	4a2b      	ldr	r2, [pc, #172]	; (8003108 <HAL_SPI_Transmit_DMA+0x114>)
 800305a:	631a      	str	r2, [r3, #48]	; 0x30
  hspi->hdmatx->XferAbortCallback = NULL;
 800305c:	6d63      	ldr	r3, [r4, #84]	; 0x54
 800305e:	2200      	movs	r2, #0
 8003060:	635a      	str	r2, [r3, #52]	; 0x34
  CLEAR_BIT(hspi->Instance->CR2, SPI_CR2_LDMATX);
 8003062:	6822      	ldr	r2, [r4, #0]
 8003064:	6853      	ldr	r3, [r2, #4]
 8003066:	4929      	ldr	r1, [pc, #164]	; (800310c <HAL_SPI_Transmit_DMA+0x118>)
 8003068:	400b      	ands	r3, r1
 800306a:	6053      	str	r3, [r2, #4]
  if ((hspi->Init.DataSize <= SPI_DATASIZE_8BIT) && (hspi->hdmatx->Init.MemDataAlignment == DMA_MDATAALIGN_HALFWORD))
 800306c:	23e0      	movs	r3, #224	; 0xe0
 800306e:	00db      	lsls	r3, r3, #3
 8003070:	68e2      	ldr	r2, [r4, #12]
 8003072:	429a      	cmp	r2, r3
 8003074:	d805      	bhi.n	8003082 <HAL_SPI_Transmit_DMA+0x8e>
 8003076:	6d63      	ldr	r3, [r4, #84]	; 0x54
 8003078:	695a      	ldr	r2, [r3, #20]
 800307a:	2380      	movs	r3, #128	; 0x80
 800307c:	00db      	lsls	r3, r3, #3
 800307e:	429a      	cmp	r2, r3
 8003080:	d022      	beq.n	80030c8 <HAL_SPI_Transmit_DMA+0xd4>
  HAL_DMA_Start_IT(hspi->hdmatx, (uint32_t)hspi->pTxBuffPtr, (uint32_t)&hspi->Instance->DR, hspi->TxXferCount);
 8003082:	6822      	ldr	r2, [r4, #0]
 8003084:	320c      	adds	r2, #12
 8003086:	8fe3      	ldrh	r3, [r4, #62]	; 0x3e
 8003088:	b29b      	uxth	r3, r3
 800308a:	6ba1      	ldr	r1, [r4, #56]	; 0x38
 800308c:	6d60      	ldr	r0, [r4, #84]	; 0x54
 800308e:	f7fd ff3f 	bl	8000f10 <HAL_DMA_Start_IT>
  if ((hspi->Instance->CR1 & SPI_CR1_SPE) != SPI_CR1_SPE)
 8003092:	6823      	ldr	r3, [r4, #0]
 8003094:	681a      	ldr	r2, [r3, #0]
 8003096:	0652      	lsls	r2, r2, #25
 8003098:	d403      	bmi.n	80030a2 <HAL_SPI_Transmit_DMA+0xae>
    __HAL_SPI_ENABLE(hspi);
 800309a:	681a      	ldr	r2, [r3, #0]
 800309c:	2140      	movs	r1, #64	; 0x40
 800309e:	430a      	orrs	r2, r1
 80030a0:	601a      	str	r2, [r3, #0]
  __HAL_SPI_ENABLE_IT(hspi, (SPI_IT_ERR));
 80030a2:	6822      	ldr	r2, [r4, #0]
 80030a4:	6853      	ldr	r3, [r2, #4]
 80030a6:	2120      	movs	r1, #32
 80030a8:	430b      	orrs	r3, r1
 80030aa:	6053      	str	r3, [r2, #4]
  SET_BIT(hspi->Instance->CR2, SPI_CR2_TXDMAEN);
 80030ac:	6822      	ldr	r2, [r4, #0]
 80030ae:	6853      	ldr	r3, [r2, #4]
 80030b0:	391e      	subs	r1, #30
 80030b2:	430b      	orrs	r3, r1
 80030b4:	6053      	str	r3, [r2, #4]
  HAL_StatusTypeDef errorcode = HAL_OK;
 80030b6:	2000      	movs	r0, #0
 80030b8:	e7ab      	b.n	8003012 <HAL_SPI_Transmit_DMA+0x1e>
    SPI_1LINE_TX(hspi);
 80030ba:	6822      	ldr	r2, [r4, #0]
 80030bc:	6811      	ldr	r1, [r2, #0]
 80030be:	2380      	movs	r3, #128	; 0x80
 80030c0:	01db      	lsls	r3, r3, #7
 80030c2:	430b      	orrs	r3, r1
 80030c4:	6013      	str	r3, [r2, #0]
 80030c6:	e7c0      	b.n	800304a <HAL_SPI_Transmit_DMA+0x56>
    if ((hspi->TxXferCount & 0x1U) == 0U)
 80030c8:	8fe3      	ldrh	r3, [r4, #62]	; 0x3e
 80030ca:	07db      	lsls	r3, r3, #31
 80030cc:	d407      	bmi.n	80030de <HAL_SPI_Transmit_DMA+0xea>
      CLEAR_BIT(hspi->Instance->CR2, SPI_CR2_LDMATX);
 80030ce:	6822      	ldr	r2, [r4, #0]
 80030d0:	6853      	ldr	r3, [r2, #4]
 80030d2:	400b      	ands	r3, r1
 80030d4:	6053      	str	r3, [r2, #4]
      hspi->TxXferCount = (hspi->TxXferCount >> 1U);
 80030d6:	8fe3      	ldrh	r3, [r4, #62]	; 0x3e
 80030d8:	085b      	lsrs	r3, r3, #1
 80030da:	87e3      	strh	r3, [r4, #62]	; 0x3e
 80030dc:	e7d1      	b.n	8003082 <HAL_SPI_Transmit_DMA+0x8e>
      SET_BIT(hspi->Instance->CR2, SPI_CR2_LDMATX);
 80030de:	6822      	ldr	r2, [r4, #0]
 80030e0:	6851      	ldr	r1, [r2, #4]
 80030e2:	2380      	movs	r3, #128	; 0x80
 80030e4:	01db      	lsls	r3, r3, #7
 80030e6:	430b      	orrs	r3, r1
 80030e8:	6053      	str	r3, [r2, #4]
      hspi->TxXferCount = (hspi->TxXferCount >> 1U) + 1U;
 80030ea:	8fe3      	ldrh	r3, [r4, #62]	; 0x3e
 80030ec:	085b      	lsrs	r3, r3, #1
 80030ee:	3301      	adds	r3, #1
 80030f0:	87e3      	strh	r3, [r4, #62]	; 0x3e
 80030f2:	e7c6      	b.n	8003082 <HAL_SPI_Transmit_DMA+0x8e>
    errorcode = HAL_ERROR;
 80030f4:	2001      	movs	r0, #1
 80030f6:	e78c      	b.n	8003012 <HAL_SPI_Transmit_DMA+0x1e>
 80030f8:	2001      	movs	r0, #1
 80030fa:	e78a      	b.n	8003012 <HAL_SPI_Transmit_DMA+0x1e>
  __HAL_LOCK(hspi);
 80030fc:	2002      	movs	r0, #2
 80030fe:	e78b      	b.n	8003018 <HAL_SPI_Transmit_DMA+0x24>
 8003100:	08003113 	.word	0x08003113
 8003104:	0800313f 	.word	0x0800313f
 8003108:	0800311d 	.word	0x0800311d
 800310c:	ffffbfff 	.word	0xffffbfff

08003110 <HAL_SPI_TxHalfCpltCallback>:
}
 8003110:	4770      	bx	lr

08003112 <SPI_DMAHalfTransmitCplt>:
{
 8003112:	b510      	push	{r4, lr}
  SPI_HandleTypeDef *hspi = (SPI_HandleTypeDef *)((DMA_HandleTypeDef *)hdma)->Parent;
 8003114:	6a40      	ldr	r0, [r0, #36]	; 0x24
  HAL_SPI_TxHalfCpltCallback(hspi);
 8003116:	f7ff fffb 	bl	8003110 <HAL_SPI_TxHalfCpltCallback>
}
 800311a:	bd10      	pop	{r4, pc}

0800311c <SPI_DMAError>:
{
 800311c:	b510      	push	{r4, lr}
  SPI_HandleTypeDef *hspi = (SPI_HandleTypeDef *)((DMA_HandleTypeDef *)hdma)->Parent;
 800311e:	6a40      	ldr	r0, [r0, #36]	; 0x24
  CLEAR_BIT(hspi->Instance->CR2, SPI_CR2_TXDMAEN | SPI_CR2_RXDMAEN);
 8003120:	6802      	ldr	r2, [r0, #0]
 8003122:	6853      	ldr	r3, [r2, #4]
 8003124:	2103      	movs	r1, #3
 8003126:	438b      	bics	r3, r1
 8003128:	6053      	str	r3, [r2, #4]
  SET_BIT(hspi->ErrorCode, HAL_SPI_ERROR_DMA);
 800312a:	6e03      	ldr	r3, [r0, #96]	; 0x60
 800312c:	2210      	movs	r2, #16
 800312e:	4313      	orrs	r3, r2
 8003130:	6603      	str	r3, [r0, #96]	; 0x60
  hspi->State = HAL_SPI_STATE_READY;
 8003132:	3a0f      	subs	r2, #15
 8003134:	235d      	movs	r3, #93	; 0x5d
 8003136:	54c2      	strb	r2, [r0, r3]
  HAL_SPI_ErrorCallback(hspi);
 8003138:	f001 fc9a 	bl	8004a70 <HAL_SPI_ErrorCallback>
}
 800313c:	bd10      	pop	{r4, pc}

0800313e <SPI_DMATransmitCplt>:
{
 800313e:	b530      	push	{r4, r5, lr}
 8003140:	b083      	sub	sp, #12
 8003142:	0005      	movs	r5, r0
  SPI_HandleTypeDef *hspi = (SPI_HandleTypeDef *)((DMA_HandleTypeDef *)hdma)->Parent;
 8003144:	6a44      	ldr	r4, [r0, #36]	; 0x24
  tickstart = HAL_GetTick();
 8003146:	f7fd f8b3 	bl	80002b0 <HAL_GetTick>
  if ((hdma->Instance->CCR & DMA_CCR_CIRC) != DMA_CCR_CIRC)
 800314a:	682b      	ldr	r3, [r5, #0]
 800314c:	681b      	ldr	r3, [r3, #0]
 800314e:	069b      	lsls	r3, r3, #26
 8003150:	d426      	bmi.n	80031a0 <SPI_DMATransmitCplt+0x62>
    __HAL_SPI_DISABLE_IT(hspi, SPI_IT_ERR);
 8003152:	6822      	ldr	r2, [r4, #0]
 8003154:	6853      	ldr	r3, [r2, #4]
 8003156:	2120      	movs	r1, #32
 8003158:	438b      	bics	r3, r1
 800315a:	6053      	str	r3, [r2, #4]
    CLEAR_BIT(hspi->Instance->CR2, SPI_CR2_TXDMAEN);
 800315c:	6822      	ldr	r2, [r4, #0]
 800315e:	6853      	ldr	r3, [r2, #4]
 8003160:	391e      	subs	r1, #30
 8003162:	438b      	bics	r3, r1
 8003164:	6053      	str	r3, [r2, #4]
    if (SPI_EndRxTxTransaction(hspi, SPI_DEFAULT_TIMEOUT, tickstart) != HAL_OK)
 8003166:	0002      	movs	r2, r0
 8003168:	3162      	adds	r1, #98	; 0x62
 800316a:	0020      	movs	r0, r4
 800316c:	f7ff fea8 	bl	8002ec0 <SPI_EndRxTxTransaction>
 8003170:	2800      	cmp	r0, #0
 8003172:	d003      	beq.n	800317c <SPI_DMATransmitCplt+0x3e>
      SET_BIT(hspi->ErrorCode, HAL_SPI_ERROR_FLAG);
 8003174:	6e23      	ldr	r3, [r4, #96]	; 0x60
 8003176:	2220      	movs	r2, #32
 8003178:	4313      	orrs	r3, r2
 800317a:	6623      	str	r3, [r4, #96]	; 0x60
    if (hspi->Init.Direction == SPI_DIRECTION_2LINES)
 800317c:	68a3      	ldr	r3, [r4, #8]
 800317e:	2b00      	cmp	r3, #0
 8003180:	d106      	bne.n	8003190 <SPI_DMATransmitCplt+0x52>
      __HAL_SPI_CLEAR_OVRFLAG(hspi);
 8003182:	9301      	str	r3, [sp, #4]
 8003184:	6823      	ldr	r3, [r4, #0]
 8003186:	68da      	ldr	r2, [r3, #12]
 8003188:	9201      	str	r2, [sp, #4]
 800318a:	689b      	ldr	r3, [r3, #8]
 800318c:	9301      	str	r3, [sp, #4]
 800318e:	9b01      	ldr	r3, [sp, #4]
    hspi->TxXferCount = 0U;
 8003190:	2300      	movs	r3, #0
 8003192:	87e3      	strh	r3, [r4, #62]	; 0x3e
    hspi->State = HAL_SPI_STATE_READY;
 8003194:	2201      	movs	r2, #1
 8003196:	335d      	adds	r3, #93	; 0x5d
 8003198:	54e2      	strb	r2, [r4, r3]
    if (hspi->ErrorCode != HAL_SPI_ERROR_NONE)
 800319a:	6e23      	ldr	r3, [r4, #96]	; 0x60
 800319c:	2b00      	cmp	r3, #0
 800319e:	d104      	bne.n	80031aa <SPI_DMATransmitCplt+0x6c>
  HAL_SPI_TxCpltCallback(hspi);
 80031a0:	0020      	movs	r0, r4
 80031a2:	f001 fc2f 	bl	8004a04 <HAL_SPI_TxCpltCallback>
}
 80031a6:	b003      	add	sp, #12
 80031a8:	bd30      	pop	{r4, r5, pc}
      HAL_SPI_ErrorCallback(hspi);
 80031aa:	0020      	movs	r0, r4
 80031ac:	f001 fc60 	bl	8004a70 <HAL_SPI_ErrorCallback>
      return;
 80031b0:	e7f9      	b.n	80031a6 <SPI_DMATransmitCplt+0x68>
	...

080031b4 <HAL_SPI_IRQHandler>:
{
 80031b4:	b530      	push	{r4, r5, lr}
 80031b6:	b085      	sub	sp, #20
 80031b8:	0004      	movs	r4, r0
  uint32_t itsource = hspi->Instance->CR2;
 80031ba:	6801      	ldr	r1, [r0, #0]
 80031bc:	6848      	ldr	r0, [r1, #4]
  uint32_t itflag   = hspi->Instance->SR;
 80031be:	688b      	ldr	r3, [r1, #8]
  if (((itflag & SPI_FLAG_OVR) == RESET) &&
 80031c0:	2241      	movs	r2, #65	; 0x41
 80031c2:	401a      	ands	r2, r3
 80031c4:	2a01      	cmp	r2, #1
 80031c6:	d058      	beq.n	800327a <HAL_SPI_IRQHandler+0xc6>
  if (((itflag & SPI_FLAG_TXE) != RESET) && ((itsource & SPI_IT_TXE) != RESET))
 80031c8:	079a      	lsls	r2, r3, #30
 80031ca:	d501      	bpl.n	80031d0 <HAL_SPI_IRQHandler+0x1c>
 80031cc:	0602      	lsls	r2, r0, #24
 80031ce:	d45a      	bmi.n	8003286 <HAL_SPI_IRQHandler+0xd2>
  if (((itflag & (SPI_FLAG_MODF | SPI_FLAG_OVR | SPI_FLAG_FRE)) != RESET) && ((itsource & SPI_IT_ERR) != RESET))
 80031d0:	22b0      	movs	r2, #176	; 0xb0
 80031d2:	0052      	lsls	r2, r2, #1
 80031d4:	4213      	tst	r3, r2
 80031d6:	d059      	beq.n	800328c <HAL_SPI_IRQHandler+0xd8>
 80031d8:	0682      	lsls	r2, r0, #26
 80031da:	d557      	bpl.n	800328c <HAL_SPI_IRQHandler+0xd8>
    if ((itflag & SPI_FLAG_OVR) != RESET)
 80031dc:	065a      	lsls	r2, r3, #25
 80031de:	d50e      	bpl.n	80031fe <HAL_SPI_IRQHandler+0x4a>
      if (hspi->State != HAL_SPI_STATE_BUSY_TX)
 80031e0:	225d      	movs	r2, #93	; 0x5d
 80031e2:	5ca2      	ldrb	r2, [r4, r2]
 80031e4:	2a03      	cmp	r2, #3
 80031e6:	d053      	beq.n	8003290 <HAL_SPI_IRQHandler+0xdc>
        SET_BIT(hspi->ErrorCode, HAL_SPI_ERROR_OVR);
 80031e8:	6e22      	ldr	r2, [r4, #96]	; 0x60
 80031ea:	2504      	movs	r5, #4
 80031ec:	432a      	orrs	r2, r5
 80031ee:	6622      	str	r2, [r4, #96]	; 0x60
        __HAL_SPI_CLEAR_OVRFLAG(hspi);
 80031f0:	2200      	movs	r2, #0
 80031f2:	9200      	str	r2, [sp, #0]
 80031f4:	68ca      	ldr	r2, [r1, #12]
 80031f6:	9200      	str	r2, [sp, #0]
 80031f8:	688a      	ldr	r2, [r1, #8]
 80031fa:	9200      	str	r2, [sp, #0]
 80031fc:	9a00      	ldr	r2, [sp, #0]
    if ((itflag & SPI_FLAG_MODF) != RESET)
 80031fe:	069a      	lsls	r2, r3, #26
 8003200:	d50c      	bpl.n	800321c <HAL_SPI_IRQHandler+0x68>
      SET_BIT(hspi->ErrorCode, HAL_SPI_ERROR_MODF);
 8003202:	6e22      	ldr	r2, [r4, #96]	; 0x60
 8003204:	2501      	movs	r5, #1
 8003206:	432a      	orrs	r2, r5
 8003208:	6622      	str	r2, [r4, #96]	; 0x60
      __HAL_SPI_CLEAR_MODFFLAG(hspi);
 800320a:	2200      	movs	r2, #0
 800320c:	9202      	str	r2, [sp, #8]
 800320e:	688a      	ldr	r2, [r1, #8]
 8003210:	9202      	str	r2, [sp, #8]
 8003212:	680a      	ldr	r2, [r1, #0]
 8003214:	353f      	adds	r5, #63	; 0x3f
 8003216:	43aa      	bics	r2, r5
 8003218:	600a      	str	r2, [r1, #0]
 800321a:	9a02      	ldr	r2, [sp, #8]
    if ((itflag & SPI_FLAG_FRE) != RESET)
 800321c:	05db      	lsls	r3, r3, #23
 800321e:	d509      	bpl.n	8003234 <HAL_SPI_IRQHandler+0x80>
      SET_BIT(hspi->ErrorCode, HAL_SPI_ERROR_FRE);
 8003220:	6e23      	ldr	r3, [r4, #96]	; 0x60
 8003222:	2208      	movs	r2, #8
 8003224:	4313      	orrs	r3, r2
 8003226:	6623      	str	r3, [r4, #96]	; 0x60
      __HAL_SPI_CLEAR_FREFLAG(hspi);
 8003228:	2300      	movs	r3, #0
 800322a:	9303      	str	r3, [sp, #12]
 800322c:	6823      	ldr	r3, [r4, #0]
 800322e:	689b      	ldr	r3, [r3, #8]
 8003230:	9303      	str	r3, [sp, #12]
 8003232:	9b03      	ldr	r3, [sp, #12]
    if (hspi->ErrorCode != HAL_SPI_ERROR_NONE)
 8003234:	6e23      	ldr	r3, [r4, #96]	; 0x60
 8003236:	2b00      	cmp	r3, #0
 8003238:	d028      	beq.n	800328c <HAL_SPI_IRQHandler+0xd8>
      __HAL_SPI_DISABLE_IT(hspi, SPI_IT_RXNE | SPI_IT_TXE | SPI_IT_ERR);
 800323a:	6822      	ldr	r2, [r4, #0]
 800323c:	6853      	ldr	r3, [r2, #4]
 800323e:	21e0      	movs	r1, #224	; 0xe0
 8003240:	438b      	bics	r3, r1
 8003242:	6053      	str	r3, [r2, #4]
      hspi->State = HAL_SPI_STATE_READY;
 8003244:	2201      	movs	r2, #1
 8003246:	235d      	movs	r3, #93	; 0x5d
 8003248:	54e2      	strb	r2, [r4, r3]
      if ((HAL_IS_BIT_SET(itsource, SPI_CR2_TXDMAEN)) || (HAL_IS_BIT_SET(itsource, SPI_CR2_RXDMAEN)))
 800324a:	0783      	lsls	r3, r0, #30
 800324c:	d028      	beq.n	80032a0 <HAL_SPI_IRQHandler+0xec>
        CLEAR_BIT(hspi->Instance->CR2, (SPI_CR2_TXDMAEN | SPI_CR2_RXDMAEN));
 800324e:	6822      	ldr	r2, [r4, #0]
 8003250:	6853      	ldr	r3, [r2, #4]
 8003252:	39dd      	subs	r1, #221	; 0xdd
 8003254:	438b      	bics	r3, r1
 8003256:	6053      	str	r3, [r2, #4]
        if (hspi->hdmarx != NULL)
 8003258:	6da3      	ldr	r3, [r4, #88]	; 0x58
 800325a:	2b00      	cmp	r3, #0
 800325c:	d004      	beq.n	8003268 <HAL_SPI_IRQHandler+0xb4>
          hspi->hdmarx->XferAbortCallback = SPI_DMAAbortOnError;
 800325e:	4a12      	ldr	r2, [pc, #72]	; (80032a8 <HAL_SPI_IRQHandler+0xf4>)
 8003260:	635a      	str	r2, [r3, #52]	; 0x34
          HAL_DMA_Abort_IT(hspi->hdmarx);
 8003262:	6da0      	ldr	r0, [r4, #88]	; 0x58
 8003264:	f7fd fe8f 	bl	8000f86 <HAL_DMA_Abort_IT>
        if (hspi->hdmatx != NULL)
 8003268:	6d63      	ldr	r3, [r4, #84]	; 0x54
 800326a:	2b00      	cmp	r3, #0
 800326c:	d00e      	beq.n	800328c <HAL_SPI_IRQHandler+0xd8>
          hspi->hdmatx->XferAbortCallback = SPI_DMAAbortOnError;
 800326e:	4a0e      	ldr	r2, [pc, #56]	; (80032a8 <HAL_SPI_IRQHandler+0xf4>)
 8003270:	635a      	str	r2, [r3, #52]	; 0x34
          HAL_DMA_Abort_IT(hspi->hdmatx);
 8003272:	6d60      	ldr	r0, [r4, #84]	; 0x54
 8003274:	f7fd fe87 	bl	8000f86 <HAL_DMA_Abort_IT>
 8003278:	e008      	b.n	800328c <HAL_SPI_IRQHandler+0xd8>
      ((itflag & SPI_FLAG_RXNE) != RESET) && ((itsource & SPI_IT_RXNE) != RESET))
 800327a:	0642      	lsls	r2, r0, #25
 800327c:	d5a4      	bpl.n	80031c8 <HAL_SPI_IRQHandler+0x14>
    hspi->RxISR(hspi);
 800327e:	6ce3      	ldr	r3, [r4, #76]	; 0x4c
 8003280:	0020      	movs	r0, r4
 8003282:	4798      	blx	r3
    return;
 8003284:	e002      	b.n	800328c <HAL_SPI_IRQHandler+0xd8>
    hspi->TxISR(hspi);
 8003286:	6d23      	ldr	r3, [r4, #80]	; 0x50
 8003288:	0020      	movs	r0, r4
 800328a:	4798      	blx	r3
}
 800328c:	b005      	add	sp, #20
 800328e:	bd30      	pop	{r4, r5, pc}
        __HAL_SPI_CLEAR_OVRFLAG(hspi);
 8003290:	2300      	movs	r3, #0
 8003292:	9301      	str	r3, [sp, #4]
 8003294:	68cb      	ldr	r3, [r1, #12]
 8003296:	9301      	str	r3, [sp, #4]
 8003298:	688b      	ldr	r3, [r1, #8]
 800329a:	9301      	str	r3, [sp, #4]
 800329c:	9b01      	ldr	r3, [sp, #4]
        return;
 800329e:	e7f5      	b.n	800328c <HAL_SPI_IRQHandler+0xd8>
        HAL_SPI_ErrorCallback(hspi);
 80032a0:	0020      	movs	r0, r4
 80032a2:	f001 fbe5 	bl	8004a70 <HAL_SPI_ErrorCallback>
 80032a6:	e7f1      	b.n	800328c <HAL_SPI_IRQHandler+0xd8>
 80032a8:	080032ad 	.word	0x080032ad

080032ac <SPI_DMAAbortOnError>:
{
 80032ac:	b510      	push	{r4, lr}
  SPI_HandleTypeDef *hspi = (SPI_HandleTypeDef *)((DMA_HandleTypeDef *)hdma)->Parent;
 80032ae:	6a40      	ldr	r0, [r0, #36]	; 0x24
  hspi->RxXferCount = 0U;
 80032b0:	2300      	movs	r3, #0
 80032b2:	2246      	movs	r2, #70	; 0x46
 80032b4:	5283      	strh	r3, [r0, r2]
  hspi->TxXferCount = 0U;
 80032b6:	87c3      	strh	r3, [r0, #62]	; 0x3e
  HAL_SPI_ErrorCallback(hspi);
 80032b8:	f001 fbda 	bl	8004a70 <HAL_SPI_ErrorCallback>
}
 80032bc:	bd10      	pop	{r4, pc}
	...

080032c0 <UART_EndRxTransfer>:
  * @retval None
  */
static void UART_EndRxTransfer(UART_HandleTypeDef *huart)
{
  /* Disable RXNE, PE and ERR (Frame error, noise error, overrun error) interrupts */
  CLEAR_BIT(huart->Instance->CR1, (USART_CR1_RXNEIE | USART_CR1_PEIE));
 80032c0:	6803      	ldr	r3, [r0, #0]
 80032c2:	4906      	ldr	r1, [pc, #24]	; (80032dc <UART_EndRxTransfer+0x1c>)
 80032c4:	681a      	ldr	r2, [r3, #0]
  CLEAR_BIT(huart->Instance->CR3, USART_CR3_EIE);

  /* At end of Rx process, restore huart->RxState to Ready */
  huart->RxState = HAL_UART_STATE_READY;
 80032c6:	306a      	adds	r0, #106	; 0x6a
  CLEAR_BIT(huart->Instance->CR1, (USART_CR1_RXNEIE | USART_CR1_PEIE));
 80032c8:	400a      	ands	r2, r1
 80032ca:	601a      	str	r2, [r3, #0]
  CLEAR_BIT(huart->Instance->CR3, USART_CR3_EIE);
 80032cc:	689a      	ldr	r2, [r3, #8]
 80032ce:	3123      	adds	r1, #35	; 0x23
 80032d0:	31ff      	adds	r1, #255	; 0xff
 80032d2:	438a      	bics	r2, r1
 80032d4:	609a      	str	r2, [r3, #8]
  huart->RxState = HAL_UART_STATE_READY;
 80032d6:	2320      	movs	r3, #32
 80032d8:	7003      	strb	r3, [r0, #0]
}
 80032da:	4770      	bx	lr
 80032dc:	fffffedf 	.word	0xfffffedf

080032e0 <HAL_UART_Transmit_DMA>:
{
 80032e0:	0013      	movs	r3, r2
  if(huart->gState == HAL_UART_STATE_READY)
 80032e2:	0002      	movs	r2, r0
{
 80032e4:	b570      	push	{r4, r5, r6, lr}
  if(huart->gState == HAL_UART_STATE_READY)
 80032e6:	3269      	adds	r2, #105	; 0x69
 80032e8:	7814      	ldrb	r4, [r2, #0]
{
 80032ea:	0005      	movs	r5, r0
    return HAL_BUSY;
 80032ec:	2002      	movs	r0, #2
  if(huart->gState == HAL_UART_STATE_READY)
 80032ee:	2c20      	cmp	r4, #32
 80032f0:	d134      	bne.n	800335c <HAL_UART_Transmit_DMA+0x7c>
      return HAL_ERROR;
 80032f2:	3801      	subs	r0, #1
    if((pData == NULL ) || (Size == 0U))
 80032f4:	2900      	cmp	r1, #0
 80032f6:	d031      	beq.n	800335c <HAL_UART_Transmit_DMA+0x7c>
 80032f8:	2b00      	cmp	r3, #0
 80032fa:	d02f      	beq.n	800335c <HAL_UART_Transmit_DMA+0x7c>
    if ((huart->Init.WordLength == UART_WORDLENGTH_9B) && (huart->Init.Parity == UART_PARITY_NONE))
 80032fc:	2480      	movs	r4, #128	; 0x80
 80032fe:	68ae      	ldr	r6, [r5, #8]
 8003300:	0164      	lsls	r4, r4, #5
 8003302:	42a6      	cmp	r6, r4
 8003304:	d104      	bne.n	8003310 <HAL_UART_Transmit_DMA+0x30>
 8003306:	692c      	ldr	r4, [r5, #16]
 8003308:	2c00      	cmp	r4, #0
 800330a:	d101      	bne.n	8003310 <HAL_UART_Transmit_DMA+0x30>
      if((((uint32_t)pData)&1U) != 0U)
 800330c:	4201      	tst	r1, r0
 800330e:	d125      	bne.n	800335c <HAL_UART_Transmit_DMA+0x7c>
    __HAL_LOCK(huart);
 8003310:	002e      	movs	r6, r5
 8003312:	3668      	adds	r6, #104	; 0x68
 8003314:	7834      	ldrb	r4, [r6, #0]
    return HAL_BUSY;
 8003316:	2002      	movs	r0, #2
    __HAL_LOCK(huart);
 8003318:	2c01      	cmp	r4, #1
 800331a:	d01f      	beq.n	800335c <HAL_UART_Transmit_DMA+0x7c>
 800331c:	3801      	subs	r0, #1
 800331e:	7030      	strb	r0, [r6, #0]
    huart->TxXferSize = Size;
 8003320:	0028      	movs	r0, r5
 8003322:	3050      	adds	r0, #80	; 0x50
    huart->pTxBuffPtr = pData;
 8003324:	64e9      	str	r1, [r5, #76]	; 0x4c
    huart->ErrorCode = HAL_UART_ERROR_NONE;
 8003326:	2400      	movs	r4, #0
    huart->TxXferSize = Size;
 8003328:	8003      	strh	r3, [r0, #0]
    huart->TxXferCount = Size;
 800332a:	8043      	strh	r3, [r0, #2]
    huart->gState = HAL_UART_STATE_BUSY_TX;
 800332c:	2021      	movs	r0, #33	; 0x21
    huart->ErrorCode = HAL_UART_ERROR_NONE;
 800332e:	66ec      	str	r4, [r5, #108]	; 0x6c
    huart->gState = HAL_UART_STATE_BUSY_TX;
 8003330:	7010      	strb	r0, [r2, #0]
    huart->hdmatx->XferCpltCallback = UART_DMATransmitCplt;
 8003332:	6e28      	ldr	r0, [r5, #96]	; 0x60
 8003334:	4a0a      	ldr	r2, [pc, #40]	; (8003360 <HAL_UART_Transmit_DMA+0x80>)
    huart->hdmatx->XferAbortCallback = NULL;
 8003336:	6344      	str	r4, [r0, #52]	; 0x34
    huart->hdmatx->XferCpltCallback = UART_DMATransmitCplt;
 8003338:	6282      	str	r2, [r0, #40]	; 0x28
    huart->hdmatx->XferHalfCpltCallback = UART_DMATxHalfCplt;
 800333a:	4a0a      	ldr	r2, [pc, #40]	; (8003364 <HAL_UART_Transmit_DMA+0x84>)
 800333c:	62c2      	str	r2, [r0, #44]	; 0x2c
    huart->hdmatx->XferErrorCallback = UART_DMAError;
 800333e:	4a0a      	ldr	r2, [pc, #40]	; (8003368 <HAL_UART_Transmit_DMA+0x88>)
 8003340:	6302      	str	r2, [r0, #48]	; 0x30
    HAL_DMA_Start_IT(huart->hdmatx, (uint32_t)huart->pTxBuffPtr, (uint32_t)&huart->Instance->TDR, Size);
 8003342:	682a      	ldr	r2, [r5, #0]
 8003344:	3228      	adds	r2, #40	; 0x28
 8003346:	f7fd fde3 	bl	8000f10 <HAL_DMA_Start_IT>
    __HAL_UART_CLEAR_FLAG(huart, UART_CLEAR_TCF);
 800334a:	2240      	movs	r2, #64	; 0x40
    return HAL_OK;
 800334c:	0020      	movs	r0, r4
    __HAL_UART_CLEAR_FLAG(huart, UART_CLEAR_TCF);
 800334e:	682b      	ldr	r3, [r5, #0]
 8003350:	621a      	str	r2, [r3, #32]
    SET_BIT(huart->Instance->CR3, USART_CR3_DMAT);
 8003352:	6899      	ldr	r1, [r3, #8]
 8003354:	1892      	adds	r2, r2, r2
 8003356:	430a      	orrs	r2, r1
    __HAL_UNLOCK(huart);
 8003358:	7034      	strb	r4, [r6, #0]
    SET_BIT(huart->Instance->CR3, USART_CR3_DMAT);
 800335a:	609a      	str	r2, [r3, #8]
}
 800335c:	bd70      	pop	{r4, r5, r6, pc}
 800335e:	46c0      	nop			; (mov r8, r8)
 8003360:	08003409 	.word	0x08003409
 8003364:	0800343b 	.word	0x0800343b
 8003368:	08003495 	.word	0x08003495

0800336c <HAL_UART_Receive_DMA>:
{
 800336c:	b5f8      	push	{r3, r4, r5, r6, r7, lr}
 800336e:	0013      	movs	r3, r2
  if(huart->RxState == HAL_UART_STATE_READY)
 8003370:	0002      	movs	r2, r0
 8003372:	326a      	adds	r2, #106	; 0x6a
 8003374:	7814      	ldrb	r4, [r2, #0]
{
 8003376:	0005      	movs	r5, r0
    return HAL_BUSY;
 8003378:	2002      	movs	r0, #2
  if(huart->RxState == HAL_UART_STATE_READY)
 800337a:	2c20      	cmp	r4, #32
 800337c:	d13c      	bne.n	80033f8 <HAL_UART_Receive_DMA+0x8c>
      return HAL_ERROR;
 800337e:	3801      	subs	r0, #1
    if((pData == NULL ) || (Size == 0U))
 8003380:	2900      	cmp	r1, #0
 8003382:	d039      	beq.n	80033f8 <HAL_UART_Receive_DMA+0x8c>
 8003384:	2b00      	cmp	r3, #0
 8003386:	d037      	beq.n	80033f8 <HAL_UART_Receive_DMA+0x8c>
    if ((huart->Init.WordLength == UART_WORDLENGTH_9B) && (huart->Init.Parity == UART_PARITY_NONE))
 8003388:	2480      	movs	r4, #128	; 0x80
 800338a:	68ae      	ldr	r6, [r5, #8]
 800338c:	0164      	lsls	r4, r4, #5
 800338e:	42a6      	cmp	r6, r4
 8003390:	d104      	bne.n	800339c <HAL_UART_Receive_DMA+0x30>
 8003392:	692c      	ldr	r4, [r5, #16]
 8003394:	2c00      	cmp	r4, #0
 8003396:	d101      	bne.n	800339c <HAL_UART_Receive_DMA+0x30>
      if((((uint32_t)pData)&1U) != 0U)
 8003398:	4201      	tst	r1, r0
 800339a:	d12d      	bne.n	80033f8 <HAL_UART_Receive_DMA+0x8c>
    __HAL_LOCK(huart);
 800339c:	002e      	movs	r6, r5
 800339e:	3668      	adds	r6, #104	; 0x68
 80033a0:	7834      	ldrb	r4, [r6, #0]
    return HAL_BUSY;
 80033a2:	2002      	movs	r0, #2
    __HAL_LOCK(huart);
 80033a4:	2c01      	cmp	r4, #1
 80033a6:	d027      	beq.n	80033f8 <HAL_UART_Receive_DMA+0x8c>
    huart->RxXferSize = Size;
 80033a8:	0028      	movs	r0, r5
    __HAL_LOCK(huart);
 80033aa:	2701      	movs	r7, #1
    huart->RxXferSize = Size;
 80033ac:	3058      	adds	r0, #88	; 0x58
    __HAL_LOCK(huart);
 80033ae:	7037      	strb	r7, [r6, #0]
    huart->ErrorCode = HAL_UART_ERROR_NONE;
 80033b0:	2400      	movs	r4, #0
    huart->pRxBuffPtr = pData;
 80033b2:	6569      	str	r1, [r5, #84]	; 0x54
    huart->RxXferSize = Size;
 80033b4:	8003      	strh	r3, [r0, #0]
    huart->RxState = HAL_UART_STATE_BUSY_RX;
 80033b6:	2022      	movs	r0, #34	; 0x22
    huart->ErrorCode = HAL_UART_ERROR_NONE;
 80033b8:	66ec      	str	r4, [r5, #108]	; 0x6c
    huart->RxState = HAL_UART_STATE_BUSY_RX;
 80033ba:	7010      	strb	r0, [r2, #0]
    huart->hdmarx->XferCpltCallback = UART_DMAReceiveCplt;
 80033bc:	6e68      	ldr	r0, [r5, #100]	; 0x64
 80033be:	4a0f      	ldr	r2, [pc, #60]	; (80033fc <HAL_UART_Receive_DMA+0x90>)
    huart->hdmarx->XferAbortCallback = NULL;
 80033c0:	6344      	str	r4, [r0, #52]	; 0x34
    huart->hdmarx->XferCpltCallback = UART_DMAReceiveCplt;
 80033c2:	6282      	str	r2, [r0, #40]	; 0x28
    huart->hdmarx->XferHalfCpltCallback = UART_DMARxHalfCplt;
 80033c4:	4a0e      	ldr	r2, [pc, #56]	; (8003400 <HAL_UART_Receive_DMA+0x94>)
 80033c6:	62c2      	str	r2, [r0, #44]	; 0x2c
    huart->hdmarx->XferErrorCallback = UART_DMAError;
 80033c8:	4a0e      	ldr	r2, [pc, #56]	; (8003404 <HAL_UART_Receive_DMA+0x98>)
 80033ca:	6302      	str	r2, [r0, #48]	; 0x30
    HAL_DMA_Start_IT(huart->hdmarx, (uint32_t)&huart->Instance->RDR, (uint32_t)huart->pRxBuffPtr, Size);
 80033cc:	682a      	ldr	r2, [r5, #0]
 80033ce:	3224      	adds	r2, #36	; 0x24
 80033d0:	4694      	mov	ip, r2
 80033d2:	000a      	movs	r2, r1
 80033d4:	4661      	mov	r1, ip
 80033d6:	f7fd fd9b 	bl	8000f10 <HAL_DMA_Start_IT>
    SET_BIT(huart->Instance->CR1, USART_CR1_PEIE);
 80033da:	2280      	movs	r2, #128	; 0x80
 80033dc:	682b      	ldr	r3, [r5, #0]
 80033de:	0052      	lsls	r2, r2, #1
 80033e0:	6819      	ldr	r1, [r3, #0]
    __HAL_UNLOCK(huart);
 80033e2:	7034      	strb	r4, [r6, #0]
    SET_BIT(huart->Instance->CR1, USART_CR1_PEIE);
 80033e4:	430a      	orrs	r2, r1
 80033e6:	601a      	str	r2, [r3, #0]
    SET_BIT(huart->Instance->CR3, USART_CR3_EIE);
 80033e8:	689a      	ldr	r2, [r3, #8]
    return HAL_OK;
 80033ea:	0020      	movs	r0, r4
    SET_BIT(huart->Instance->CR3, USART_CR3_EIE);
 80033ec:	4317      	orrs	r7, r2
    SET_BIT(huart->Instance->CR3, USART_CR3_DMAR);
 80033ee:	2240      	movs	r2, #64	; 0x40
    SET_BIT(huart->Instance->CR3, USART_CR3_EIE);
 80033f0:	609f      	str	r7, [r3, #8]
    SET_BIT(huart->Instance->CR3, USART_CR3_DMAR);
 80033f2:	6899      	ldr	r1, [r3, #8]
 80033f4:	430a      	orrs	r2, r1
 80033f6:	609a      	str	r2, [r3, #8]
}
 80033f8:	bdf8      	pop	{r3, r4, r5, r6, r7, pc}
 80033fa:	46c0      	nop			; (mov r8, r8)
 80033fc:	08003445 	.word	0x08003445
 8003400:	0800348b 	.word	0x0800348b
 8003404:	08003495 	.word	0x08003495

08003408 <UART_DMATransmitCplt>:
static void UART_DMATransmitCplt(DMA_HandleTypeDef *hdma)
{
  UART_HandleTypeDef* huart = (UART_HandleTypeDef*)(hdma->Parent);
  
  /* DMA Normal mode */
  if ( HAL_IS_BIT_CLR(hdma->Instance->CCR, DMA_CCR_CIRC) )
 8003408:	2120      	movs	r1, #32
 800340a:	6803      	ldr	r3, [r0, #0]
{
 800340c:	b510      	push	{r4, lr}
  if ( HAL_IS_BIT_CLR(hdma->Instance->CCR, DMA_CCR_CIRC) )
 800340e:	681b      	ldr	r3, [r3, #0]
  UART_HandleTypeDef* huart = (UART_HandleTypeDef*)(hdma->Parent);
 8003410:	6a42      	ldr	r2, [r0, #36]	; 0x24
  if ( HAL_IS_BIT_CLR(hdma->Instance->CCR, DMA_CCR_CIRC) )
 8003412:	400b      	ands	r3, r1
 8003414:	d10c      	bne.n	8003430 <UART_DMATransmitCplt+0x28>
  {
    huart->TxXferCount = 0;
 8003416:	0011      	movs	r1, r2
 8003418:	3152      	adds	r1, #82	; 0x52
 800341a:	800b      	strh	r3, [r1, #0]

    /* Disable the DMA transfer for transmit request by resetting the DMAT bit
       in the UART CR3 register */
    CLEAR_BIT(huart->Instance->CR3, USART_CR3_DMAT);
 800341c:	2180      	movs	r1, #128	; 0x80
 800341e:	6813      	ldr	r3, [r2, #0]
 8003420:	689a      	ldr	r2, [r3, #8]
 8003422:	438a      	bics	r2, r1
 8003424:	609a      	str	r2, [r3, #8]

    /* Enable the UART Transmit Complete Interrupt */
    SET_BIT(huart->Instance->CR1, USART_CR1_TCIE);
 8003426:	2240      	movs	r2, #64	; 0x40
 8003428:	6819      	ldr	r1, [r3, #0]
 800342a:	430a      	orrs	r2, r1
 800342c:	601a      	str	r2, [r3, #0]
  else
  {
    HAL_UART_TxCpltCallback(huart);
  }

}
 800342e:	bd10      	pop	{r4, pc}
    HAL_UART_TxCpltCallback(huart);
 8003430:	0010      	movs	r0, r2
 8003432:	f001 f9ff 	bl	8004834 <HAL_UART_TxCpltCallback>
}
 8003436:	e7fa      	b.n	800342e <UART_DMATransmitCplt+0x26>

08003438 <HAL_UART_TxHalfCpltCallback>:
 8003438:	4770      	bx	lr

0800343a <UART_DMATxHalfCplt>:
  * @brief DMA UART transmit process half complete callback.
  * @param hdma DMA handle.
  * @retval None
  */
static void UART_DMATxHalfCplt(DMA_HandleTypeDef *hdma)
{
 800343a:	b510      	push	{r4, lr}
  UART_HandleTypeDef* huart = (UART_HandleTypeDef*)(hdma->Parent);

  HAL_UART_TxHalfCpltCallback(huart);
 800343c:	6a40      	ldr	r0, [r0, #36]	; 0x24
 800343e:	f7ff fffb 	bl	8003438 <HAL_UART_TxHalfCpltCallback>
}
 8003442:	bd10      	pop	{r4, pc}

08003444 <UART_DMAReceiveCplt>:
static void UART_DMAReceiveCplt(DMA_HandleTypeDef *hdma)
{
  UART_HandleTypeDef* huart = (UART_HandleTypeDef*)(hdma->Parent);

  /* DMA Normal mode */
  if ( HAL_IS_BIT_CLR(hdma->Instance->CCR, DMA_CCR_CIRC) )
 8003444:	6803      	ldr	r3, [r0, #0]
  UART_HandleTypeDef* huart = (UART_HandleTypeDef*)(hdma->Parent);
 8003446:	6a42      	ldr	r2, [r0, #36]	; 0x24
  if ( HAL_IS_BIT_CLR(hdma->Instance->CCR, DMA_CCR_CIRC) )
 8003448:	2020      	movs	r0, #32
 800344a:	681b      	ldr	r3, [r3, #0]
{
 800344c:	b510      	push	{r4, lr}
  if ( HAL_IS_BIT_CLR(hdma->Instance->CCR, DMA_CCR_CIRC) )
 800344e:	4003      	ands	r3, r0
 8003450:	d113      	bne.n	800347a <UART_DMAReceiveCplt+0x36>
  {
    huart->RxXferCount = 0U;
 8003452:	0011      	movs	r1, r2
 8003454:	315a      	adds	r1, #90	; 0x5a
 8003456:	800b      	strh	r3, [r1, #0]

    /* Disable PE and ERR (Frame error, noise error, overrun error) interrupts */
    CLEAR_BIT(huart->Instance->CR1, USART_CR1_PEIE);
 8003458:	6813      	ldr	r3, [r2, #0]
 800345a:	4c0a      	ldr	r4, [pc, #40]	; (8003484 <UART_DMAReceiveCplt+0x40>)
 800345c:	6819      	ldr	r1, [r3, #0]
 800345e:	4021      	ands	r1, r4
 8003460:	6019      	str	r1, [r3, #0]
    CLEAR_BIT(huart->Instance->CR3, USART_CR3_EIE);
 8003462:	6899      	ldr	r1, [r3, #8]
 8003464:	3403      	adds	r4, #3
 8003466:	34ff      	adds	r4, #255	; 0xff
 8003468:	43a1      	bics	r1, r4
 800346a:	6099      	str	r1, [r3, #8]

    /* Disable the DMA transfer for the receiver request by resetting the DMAR bit
       in the UART CR3 register */
    CLEAR_BIT(huart->Instance->CR3, USART_CR3_DMAR);
 800346c:	6899      	ldr	r1, [r3, #8]
 800346e:	343f      	adds	r4, #63	; 0x3f
 8003470:	43a1      	bics	r1, r4
 8003472:	6099      	str	r1, [r3, #8]

    /* At end of Rx process, restore huart->RxState to Ready */
    huart->RxState = HAL_UART_STATE_READY;
 8003474:	0013      	movs	r3, r2
 8003476:	336a      	adds	r3, #106	; 0x6a
 8003478:	7018      	strb	r0, [r3, #0]
  }

  HAL_UART_RxCpltCallback(huart);
 800347a:	0010      	movs	r0, r2
 800347c:	f001 f9de 	bl	800483c <HAL_UART_RxCpltCallback>
}
 8003480:	bd10      	pop	{r4, pc}
 8003482:	46c0      	nop			; (mov r8, r8)
 8003484:	fffffeff 	.word	0xfffffeff

08003488 <HAL_UART_RxHalfCpltCallback>:
 8003488:	4770      	bx	lr

0800348a <UART_DMARxHalfCplt>:
  * @brief DMA UART receive process half complete callback.
  * @param hdma DMA handle.
  * @retval None
  */
static void UART_DMARxHalfCplt(DMA_HandleTypeDef *hdma)
{
 800348a:	b510      	push	{r4, lr}
  UART_HandleTypeDef* huart = (UART_HandleTypeDef*)(hdma->Parent);

  HAL_UART_RxHalfCpltCallback(huart);
 800348c:	6a40      	ldr	r0, [r0, #36]	; 0x24
 800348e:	f7ff fffb 	bl	8003488 <HAL_UART_RxHalfCpltCallback>
}
 8003492:	bd10      	pop	{r4, pc}

08003494 <UART_DMAError>:
  * @brief DMA UART communication error callback.
  * @param hdma DMA handle.
  * @retval None
  */
static void UART_DMAError(DMA_HandleTypeDef *hdma)
{
 8003494:	b510      	push	{r4, lr}
  UART_HandleTypeDef* huart = (UART_HandleTypeDef*)(hdma->Parent);
 8003496:	6a44      	ldr	r4, [r0, #36]	; 0x24

  /* Stop UART DMA Tx request if ongoing */
  if (  (huart->gState == HAL_UART_STATE_BUSY_TX)
 8003498:	0021      	movs	r1, r4
 800349a:	3169      	adds	r1, #105	; 0x69
 800349c:	780b      	ldrb	r3, [r1, #0]
 800349e:	2b21      	cmp	r3, #33	; 0x21
 80034a0:	d10d      	bne.n	80034be <UART_DMAError+0x2a>
      &&(HAL_IS_BIT_SET(huart->Instance->CR3, USART_CR3_DMAT)) )
 80034a2:	6823      	ldr	r3, [r4, #0]
 80034a4:	689a      	ldr	r2, [r3, #8]
 80034a6:	0612      	lsls	r2, r2, #24
 80034a8:	d509      	bpl.n	80034be <UART_DMAError+0x2a>
  {
    huart->TxXferCount = 0U;
 80034aa:	0022      	movs	r2, r4
 80034ac:	2000      	movs	r0, #0
 80034ae:	3252      	adds	r2, #82	; 0x52
 80034b0:	8010      	strh	r0, [r2, #0]
  CLEAR_BIT(huart->Instance->CR1, (USART_CR1_TXEIE | USART_CR1_TCIE));
 80034b2:	681a      	ldr	r2, [r3, #0]
 80034b4:	30c0      	adds	r0, #192	; 0xc0
 80034b6:	4382      	bics	r2, r0
 80034b8:	601a      	str	r2, [r3, #0]
  huart->gState = HAL_UART_STATE_READY;
 80034ba:	2320      	movs	r3, #32
 80034bc:	700b      	strb	r3, [r1, #0]
    UART_EndTxTransfer(huart);
  }

  /* Stop UART DMA Rx request if ongoing */
  if (  (huart->RxState == HAL_UART_STATE_BUSY_RX)
 80034be:	0023      	movs	r3, r4
 80034c0:	336a      	adds	r3, #106	; 0x6a
 80034c2:	781b      	ldrb	r3, [r3, #0]
 80034c4:	2b22      	cmp	r3, #34	; 0x22
 80034c6:	d10a      	bne.n	80034de <UART_DMAError+0x4a>
      &&(HAL_IS_BIT_SET(huart->Instance->CR3, USART_CR3_DMAR)) )
 80034c8:	6823      	ldr	r3, [r4, #0]
 80034ca:	689b      	ldr	r3, [r3, #8]
 80034cc:	065b      	lsls	r3, r3, #25
 80034ce:	d506      	bpl.n	80034de <UART_DMAError+0x4a>
  {
    huart->RxXferCount = 0U;
 80034d0:	0023      	movs	r3, r4
 80034d2:	2200      	movs	r2, #0
 80034d4:	335a      	adds	r3, #90	; 0x5a
 80034d6:	801a      	strh	r2, [r3, #0]
    UART_EndRxTransfer(huart);
 80034d8:	0020      	movs	r0, r4
 80034da:	f7ff fef1 	bl	80032c0 <UART_EndRxTransfer>
  }

  huart->ErrorCode |= HAL_UART_ERROR_DMA;
 80034de:	2310      	movs	r3, #16
 80034e0:	6ee2      	ldr	r2, [r4, #108]	; 0x6c
  HAL_UART_ErrorCallback(huart);
 80034e2:	0020      	movs	r0, r4
  huart->ErrorCode |= HAL_UART_ERROR_DMA;
 80034e4:	4313      	orrs	r3, r2
 80034e6:	66e3      	str	r3, [r4, #108]	; 0x6c
  HAL_UART_ErrorCallback(huart);
 80034e8:	f001 f9a6 	bl	8004838 <HAL_UART_ErrorCallback>
}
 80034ec:	bd10      	pop	{r4, pc}

080034ee <UART_DMAAbortOnError>:
  * @param  hdma DMA handle.
  * @retval None
  */
static void UART_DMAAbortOnError(DMA_HandleTypeDef *hdma)
{
  UART_HandleTypeDef* huart = (UART_HandleTypeDef*)(hdma->Parent);
 80034ee:	6a40      	ldr	r0, [r0, #36]	; 0x24
  huart->RxXferCount = 0U;
 80034f0:	2300      	movs	r3, #0
 80034f2:	0002      	movs	r2, r0
{
 80034f4:	b510      	push	{r4, lr}
  huart->RxXferCount = 0U;
 80034f6:	325a      	adds	r2, #90	; 0x5a
 80034f8:	8013      	strh	r3, [r2, #0]
  huart->TxXferCount = 0U;
 80034fa:	3a08      	subs	r2, #8
 80034fc:	8013      	strh	r3, [r2, #0]

  HAL_UART_ErrorCallback(huart);
 80034fe:	f001 f99b 	bl	8004838 <HAL_UART_ErrorCallback>
}
 8003502:	bd10      	pop	{r4, pc}

08003504 <UART_SetConfig>:
{
 8003504:	b570      	push	{r4, r5, r6, lr}
 8003506:	0004      	movs	r4, r0
  MODIFY_REG(huart->Instance->CR1, UART_CR1_FIELDS, tmpreg);
 8003508:	6805      	ldr	r5, [r0, #0]
  tmpreg = (uint32_t)huart->Init.WordLength | huart->Init.Parity | huart->Init.Mode | huart->Init.OverSampling ;
 800350a:	69c2      	ldr	r2, [r0, #28]
 800350c:	6883      	ldr	r3, [r0, #8]
 800350e:	6900      	ldr	r0, [r0, #16]
  MODIFY_REG(huart->Instance->CR1, UART_CR1_FIELDS, tmpreg);
 8003510:	6829      	ldr	r1, [r5, #0]
  tmpreg = (uint32_t)huart->Init.WordLength | huart->Init.Parity | huart->Init.Mode | huart->Init.OverSampling ;
 8003512:	4303      	orrs	r3, r0
 8003514:	6960      	ldr	r0, [r4, #20]
  UART_GETCLOCKSOURCE(huart, clocksource);
 8003516:	4e3f      	ldr	r6, [pc, #252]	; (8003614 <UART_SetConfig+0x110>)
  tmpreg = (uint32_t)huart->Init.WordLength | huart->Init.Parity | huart->Init.Mode | huart->Init.OverSampling ;
 8003518:	4303      	orrs	r3, r0
  MODIFY_REG(huart->Instance->CR1, UART_CR1_FIELDS, tmpreg);
 800351a:	483f      	ldr	r0, [pc, #252]	; (8003618 <UART_SetConfig+0x114>)
  tmpreg = (uint32_t)huart->Init.WordLength | huart->Init.Parity | huart->Init.Mode | huart->Init.OverSampling ;
 800351c:	4313      	orrs	r3, r2
  MODIFY_REG(huart->Instance->CR1, UART_CR1_FIELDS, tmpreg);
 800351e:	4001      	ands	r1, r0
 8003520:	430b      	orrs	r3, r1
 8003522:	602b      	str	r3, [r5, #0]
  MODIFY_REG(huart->Instance->CR2, USART_CR2_STOP, huart->Init.StopBits);
 8003524:	686b      	ldr	r3, [r5, #4]
 8003526:	493d      	ldr	r1, [pc, #244]	; (800361c <UART_SetConfig+0x118>)
  tmpreg = (uint32_t)huart->Init.HwFlowCtl | huart->Init.OneBitSampling ;
 8003528:	6a20      	ldr	r0, [r4, #32]
  MODIFY_REG(huart->Instance->CR2, USART_CR2_STOP, huart->Init.StopBits);
 800352a:	400b      	ands	r3, r1
 800352c:	68e1      	ldr	r1, [r4, #12]
 800352e:	430b      	orrs	r3, r1
 8003530:	606b      	str	r3, [r5, #4]
  tmpreg = (uint32_t)huart->Init.HwFlowCtl | huart->Init.OneBitSampling ;
 8003532:	69a3      	ldr	r3, [r4, #24]
  MODIFY_REG(huart->Instance->CR3, (USART_CR3_RTSE | USART_CR3_CTSE | USART_CR3_ONEBIT), tmpreg);
 8003534:	68a9      	ldr	r1, [r5, #8]
  tmpreg = (uint32_t)huart->Init.HwFlowCtl | huart->Init.OneBitSampling ;
 8003536:	4303      	orrs	r3, r0
  MODIFY_REG(huart->Instance->CR3, (USART_CR3_RTSE | USART_CR3_CTSE | USART_CR3_ONEBIT), tmpreg);
 8003538:	4839      	ldr	r0, [pc, #228]	; (8003620 <UART_SetConfig+0x11c>)
 800353a:	4001      	ands	r1, r0
 800353c:	430b      	orrs	r3, r1
 800353e:	60ab      	str	r3, [r5, #8]
 8003540:	2380      	movs	r3, #128	; 0x80
 8003542:	021b      	lsls	r3, r3, #8
  UART_GETCLOCKSOURCE(huart, clocksource);
 8003544:	42b5      	cmp	r5, r6
 8003546:	d110      	bne.n	800356a <UART_SetConfig+0x66>
 8003548:	2003      	movs	r0, #3
 800354a:	4936      	ldr	r1, [pc, #216]	; (8003624 <UART_SetConfig+0x120>)
 800354c:	6b09      	ldr	r1, [r1, #48]	; 0x30
 800354e:	4001      	ands	r1, r0
 8003550:	4835      	ldr	r0, [pc, #212]	; (8003628 <UART_SetConfig+0x124>)
 8003552:	5c40      	ldrb	r0, [r0, r1]
  if (huart->Init.OverSampling == UART_OVERSAMPLING_8)
 8003554:	429a      	cmp	r2, r3
 8003556:	d013      	beq.n	8003580 <UART_SetConfig+0x7c>
    switch (clocksource)
 8003558:	2808      	cmp	r0, #8
 800355a:	d858      	bhi.n	800360e <UART_SetConfig+0x10a>
 800355c:	f7fc fde8 	bl	8000130 <__gnu_thumb1_case_uqi>
 8003560:	57425737 	.word	0x57425737
 8003564:	5757574b 	.word	0x5757574b
 8003568:	50          	.byte	0x50
 8003569:	00          	.byte	0x00
  UART_GETCLOCKSOURCE(huart, clocksource);
 800356a:	4930      	ldr	r1, [pc, #192]	; (800362c <UART_SetConfig+0x128>)
 800356c:	428d      	cmp	r5, r1
 800356e:	d14c      	bne.n	800360a <UART_SetConfig+0x106>
  if (huart->Init.OverSampling == UART_OVERSAMPLING_8)
 8003570:	429a      	cmp	r2, r3
 8003572:	d12c      	bne.n	80035ce <UART_SetConfig+0xca>
        usartdiv = (uint16_t)(UART_DIV_SAMPLING8(HAL_RCC_GetPCLK1Freq(), huart->Init.BaudRate));
 8003574:	f7ff fb4a 	bl	8002c0c <HAL_RCC_GetPCLK1Freq>
        usartdiv = (uint16_t)(UART_DIV_SAMPLING8(HAL_RCC_GetSysClockFreq(), huart->Init.BaudRate));
 8003578:	6863      	ldr	r3, [r4, #4]
 800357a:	0040      	lsls	r0, r0, #1
 800357c:	085b      	lsrs	r3, r3, #1
 800357e:	e00b      	b.n	8003598 <UART_SetConfig+0x94>
    switch (clocksource)
 8003580:	2808      	cmp	r0, #8
 8003582:	d821      	bhi.n	80035c8 <UART_SetConfig+0xc4>
 8003584:	f7fc fdca 	bl	800011c <__gnu_thumb1_case_sqi>
 8003588:	200520f6 	.word	0x200520f6
 800358c:	20202018 	.word	0x20202018
 8003590:	1b          	.byte	0x1b
 8003591:	00          	.byte	0x00
        usartdiv = (uint16_t)(UART_DIV_SAMPLING8(HSI_VALUE, huart->Init.BaudRate));
 8003592:	6863      	ldr	r3, [r4, #4]
 8003594:	0858      	lsrs	r0, r3, #1
 8003596:	4b26      	ldr	r3, [pc, #152]	; (8003630 <UART_SetConfig+0x12c>)
        usartdiv = (uint16_t)(UART_DIV_SAMPLING8(LSE_VALUE, huart->Init.BaudRate));
 8003598:	18c0      	adds	r0, r0, r3
 800359a:	6861      	ldr	r1, [r4, #4]
 800359c:	f7fc fdd2 	bl	8000144 <__udivsi3>
 80035a0:	b283      	uxth	r3, r0
  HAL_StatusTypeDef ret               = HAL_OK;
 80035a2:	2000      	movs	r0, #0
    brrtemp = usartdiv & 0xFFF0U;
 80035a4:	220f      	movs	r2, #15
 80035a6:	0019      	movs	r1, r3
 80035a8:	4391      	bics	r1, r2
 80035aa:	000a      	movs	r2, r1
    brrtemp |= (uint16_t)((usartdiv & (uint16_t)0x000FU) >> 1U);
 80035ac:	071b      	lsls	r3, r3, #28
    huart->Instance->BRR = brrtemp;
 80035ae:	6821      	ldr	r1, [r4, #0]
    brrtemp |= (uint16_t)((usartdiv & (uint16_t)0x000FU) >> 1U);
 80035b0:	0f5b      	lsrs	r3, r3, #29
    huart->Instance->BRR = brrtemp;
 80035b2:	4313      	orrs	r3, r2
 80035b4:	60cb      	str	r3, [r1, #12]
}
 80035b6:	bd70      	pop	{r4, r5, r6, pc}
        usartdiv = (uint16_t)(UART_DIV_SAMPLING8(HAL_RCC_GetSysClockFreq(), huart->Init.BaudRate));
 80035b8:	f7ff fa16 	bl	80029e8 <HAL_RCC_GetSysClockFreq>
 80035bc:	e7dc      	b.n	8003578 <UART_SetConfig+0x74>
        usartdiv = (uint16_t)(UART_DIV_SAMPLING8(LSE_VALUE, huart->Init.BaudRate));
 80035be:	6863      	ldr	r3, [r4, #4]
 80035c0:	0858      	lsrs	r0, r3, #1
 80035c2:	2380      	movs	r3, #128	; 0x80
 80035c4:	025b      	lsls	r3, r3, #9
 80035c6:	e7e7      	b.n	8003598 <UART_SetConfig+0x94>
        ret = HAL_ERROR;
 80035c8:	2001      	movs	r0, #1
  uint16_t usartdiv                   = 0x0000U;
 80035ca:	2300      	movs	r3, #0
 80035cc:	e7ea      	b.n	80035a4 <UART_SetConfig+0xa0>
        huart->Instance->BRR = (uint16_t)(UART_DIV_SAMPLING16(HAL_RCC_GetPCLK1Freq(), huart->Init.BaudRate));
 80035ce:	f7ff fb1d 	bl	8002c0c <HAL_RCC_GetPCLK1Freq>
 80035d2:	6861      	ldr	r1, [r4, #4]
 80035d4:	084b      	lsrs	r3, r1, #1
 80035d6:	1818      	adds	r0, r3, r0
 80035d8:	f7fc fdb4 	bl	8000144 <__udivsi3>
 80035dc:	b280      	uxth	r0, r0
 80035de:	60e8      	str	r0, [r5, #12]
  HAL_StatusTypeDef ret               = HAL_OK;
 80035e0:	2000      	movs	r0, #0
        break;
 80035e2:	e7e8      	b.n	80035b6 <UART_SetConfig+0xb2>
        huart->Instance->BRR = (uint16_t)(UART_DIV_SAMPLING16(HSI_VALUE, huart->Init.BaudRate));
 80035e4:	6861      	ldr	r1, [r4, #4]
 80035e6:	4b13      	ldr	r3, [pc, #76]	; (8003634 <UART_SetConfig+0x130>)
 80035e8:	0848      	lsrs	r0, r1, #1
        huart->Instance->BRR = (uint16_t)(UART_DIV_SAMPLING16(LSE_VALUE, huart->Init.BaudRate));
 80035ea:	18c0      	adds	r0, r0, r3
 80035ec:	f7fc fdaa 	bl	8000144 <__udivsi3>
 80035f0:	b280      	uxth	r0, r0
 80035f2:	60f0      	str	r0, [r6, #12]
 80035f4:	e7f4      	b.n	80035e0 <UART_SetConfig+0xdc>
        huart->Instance->BRR = (uint16_t)(UART_DIV_SAMPLING16(HAL_RCC_GetSysClockFreq(), huart->Init.BaudRate));
 80035f6:	f7ff f9f7 	bl	80029e8 <HAL_RCC_GetSysClockFreq>
 80035fa:	6861      	ldr	r1, [r4, #4]
 80035fc:	084b      	lsrs	r3, r1, #1
 80035fe:	e7f4      	b.n	80035ea <UART_SetConfig+0xe6>
        huart->Instance->BRR = (uint16_t)(UART_DIV_SAMPLING16(LSE_VALUE, huart->Init.BaudRate));
 8003600:	2380      	movs	r3, #128	; 0x80
 8003602:	6861      	ldr	r1, [r4, #4]
 8003604:	021b      	lsls	r3, r3, #8
 8003606:	0848      	lsrs	r0, r1, #1
 8003608:	e7ef      	b.n	80035ea <UART_SetConfig+0xe6>
  if (huart->Init.OverSampling == UART_OVERSAMPLING_8)
 800360a:	429a      	cmp	r2, r3
 800360c:	d0dc      	beq.n	80035c8 <UART_SetConfig+0xc4>
        ret = HAL_ERROR;
 800360e:	2001      	movs	r0, #1
  return ret;
 8003610:	e7d1      	b.n	80035b6 <UART_SetConfig+0xb2>
 8003612:	46c0      	nop			; (mov r8, r8)
 8003614:	40013800 	.word	0x40013800
 8003618:	efff69f3 	.word	0xefff69f3
 800361c:	ffffcfff 	.word	0xffffcfff
 8003620:	fffff4ff 	.word	0xfffff4ff
 8003624:	40021000 	.word	0x40021000
 8003628:	08005f8c 	.word	0x08005f8c
 800362c:	40004400 	.word	0x40004400
 8003630:	00f42400 	.word	0x00f42400
 8003634:	007a1200 	.word	0x007a1200

08003638 <UART_AdvFeatureConfig>:
  if(HAL_IS_BIT_SET(huart->AdvancedInit.AdvFeatureInit, UART_ADVFEATURE_TXINVERT_INIT))
 8003638:	6a43      	ldr	r3, [r0, #36]	; 0x24
{
 800363a:	b530      	push	{r4, r5, lr}
  if(HAL_IS_BIT_SET(huart->AdvancedInit.AdvFeatureInit, UART_ADVFEATURE_TXINVERT_INIT))
 800363c:	07da      	lsls	r2, r3, #31
 800363e:	d506      	bpl.n	800364e <UART_AdvFeatureConfig+0x16>
    MODIFY_REG(huart->Instance->CR2, USART_CR2_TXINV, huart->AdvancedInit.TxPinLevelInvert);
 8003640:	6801      	ldr	r1, [r0, #0]
 8003642:	4c28      	ldr	r4, [pc, #160]	; (80036e4 <UART_AdvFeatureConfig+0xac>)
 8003644:	684a      	ldr	r2, [r1, #4]
 8003646:	4022      	ands	r2, r4
 8003648:	6a84      	ldr	r4, [r0, #40]	; 0x28
 800364a:	4322      	orrs	r2, r4
 800364c:	604a      	str	r2, [r1, #4]
  if(HAL_IS_BIT_SET(huart->AdvancedInit.AdvFeatureInit, UART_ADVFEATURE_RXINVERT_INIT))
 800364e:	079a      	lsls	r2, r3, #30
 8003650:	d506      	bpl.n	8003660 <UART_AdvFeatureConfig+0x28>
    MODIFY_REG(huart->Instance->CR2, USART_CR2_RXINV, huart->AdvancedInit.RxPinLevelInvert);
 8003652:	6801      	ldr	r1, [r0, #0]
 8003654:	4c24      	ldr	r4, [pc, #144]	; (80036e8 <UART_AdvFeatureConfig+0xb0>)
 8003656:	684a      	ldr	r2, [r1, #4]
 8003658:	4022      	ands	r2, r4
 800365a:	6ac4      	ldr	r4, [r0, #44]	; 0x2c
 800365c:	4322      	orrs	r2, r4
 800365e:	604a      	str	r2, [r1, #4]
  if(HAL_IS_BIT_SET(huart->AdvancedInit.AdvFeatureInit, UART_ADVFEATURE_DATAINVERT_INIT))
 8003660:	075a      	lsls	r2, r3, #29
 8003662:	d506      	bpl.n	8003672 <UART_AdvFeatureConfig+0x3a>
    MODIFY_REG(huart->Instance->CR2, USART_CR2_DATAINV, huart->AdvancedInit.DataInvert);
 8003664:	6801      	ldr	r1, [r0, #0]
 8003666:	4c21      	ldr	r4, [pc, #132]	; (80036ec <UART_AdvFeatureConfig+0xb4>)
 8003668:	684a      	ldr	r2, [r1, #4]
 800366a:	4022      	ands	r2, r4
 800366c:	6b04      	ldr	r4, [r0, #48]	; 0x30
 800366e:	4322      	orrs	r2, r4
 8003670:	604a      	str	r2, [r1, #4]
  if(HAL_IS_BIT_SET(huart->AdvancedInit.AdvFeatureInit, UART_ADVFEATURE_SWAP_INIT))
 8003672:	071a      	lsls	r2, r3, #28
 8003674:	d506      	bpl.n	8003684 <UART_AdvFeatureConfig+0x4c>
    MODIFY_REG(huart->Instance->CR2, USART_CR2_SWAP, huart->AdvancedInit.Swap);
 8003676:	6801      	ldr	r1, [r0, #0]
 8003678:	4c1d      	ldr	r4, [pc, #116]	; (80036f0 <UART_AdvFeatureConfig+0xb8>)
 800367a:	684a      	ldr	r2, [r1, #4]
 800367c:	4022      	ands	r2, r4
 800367e:	6b44      	ldr	r4, [r0, #52]	; 0x34
 8003680:	4322      	orrs	r2, r4
 8003682:	604a      	str	r2, [r1, #4]
  if(HAL_IS_BIT_SET(huart->AdvancedInit.AdvFeatureInit, UART_ADVFEATURE_RXOVERRUNDISABLE_INIT))
 8003684:	06da      	lsls	r2, r3, #27
 8003686:	d506      	bpl.n	8003696 <UART_AdvFeatureConfig+0x5e>
    MODIFY_REG(huart->Instance->CR3, USART_CR3_OVRDIS, huart->AdvancedInit.OverrunDisable);
 8003688:	6801      	ldr	r1, [r0, #0]
 800368a:	4c1a      	ldr	r4, [pc, #104]	; (80036f4 <UART_AdvFeatureConfig+0xbc>)
 800368c:	688a      	ldr	r2, [r1, #8]
 800368e:	4022      	ands	r2, r4
 8003690:	6b84      	ldr	r4, [r0, #56]	; 0x38
 8003692:	4322      	orrs	r2, r4
 8003694:	608a      	str	r2, [r1, #8]
  if(HAL_IS_BIT_SET(huart->AdvancedInit.AdvFeatureInit, UART_ADVFEATURE_DMADISABLEONERROR_INIT))
 8003696:	069a      	lsls	r2, r3, #26
 8003698:	d506      	bpl.n	80036a8 <UART_AdvFeatureConfig+0x70>
    MODIFY_REG(huart->Instance->CR3, USART_CR3_DDRE, huart->AdvancedInit.DMADisableonRxError);
 800369a:	6801      	ldr	r1, [r0, #0]
 800369c:	4c16      	ldr	r4, [pc, #88]	; (80036f8 <UART_AdvFeatureConfig+0xc0>)
 800369e:	688a      	ldr	r2, [r1, #8]
 80036a0:	4022      	ands	r2, r4
 80036a2:	6bc4      	ldr	r4, [r0, #60]	; 0x3c
 80036a4:	4322      	orrs	r2, r4
 80036a6:	608a      	str	r2, [r1, #8]
  if(HAL_IS_BIT_SET(huart->AdvancedInit.AdvFeatureInit, UART_ADVFEATURE_AUTOBAUDRATE_INIT))
 80036a8:	065a      	lsls	r2, r3, #25
 80036aa:	d510      	bpl.n	80036ce <UART_AdvFeatureConfig+0x96>
    MODIFY_REG(huart->Instance->CR2, USART_CR2_ABREN, huart->AdvancedInit.AutoBaudRateEnable);
 80036ac:	6801      	ldr	r1, [r0, #0]
 80036ae:	4d13      	ldr	r5, [pc, #76]	; (80036fc <UART_AdvFeatureConfig+0xc4>)
 80036b0:	684a      	ldr	r2, [r1, #4]
 80036b2:	6c04      	ldr	r4, [r0, #64]	; 0x40
 80036b4:	402a      	ands	r2, r5
 80036b6:	4322      	orrs	r2, r4
 80036b8:	604a      	str	r2, [r1, #4]
    if(huart->AdvancedInit.AutoBaudRateEnable == UART_ADVFEATURE_AUTOBAUDRATE_ENABLE)
 80036ba:	2280      	movs	r2, #128	; 0x80
 80036bc:	0352      	lsls	r2, r2, #13
 80036be:	4294      	cmp	r4, r2
 80036c0:	d105      	bne.n	80036ce <UART_AdvFeatureConfig+0x96>
      MODIFY_REG(huart->Instance->CR2, USART_CR2_ABRMODE, huart->AdvancedInit.AutoBaudRateMode);
 80036c2:	684a      	ldr	r2, [r1, #4]
 80036c4:	4c0e      	ldr	r4, [pc, #56]	; (8003700 <UART_AdvFeatureConfig+0xc8>)
 80036c6:	4022      	ands	r2, r4
 80036c8:	6c44      	ldr	r4, [r0, #68]	; 0x44
 80036ca:	4322      	orrs	r2, r4
 80036cc:	604a      	str	r2, [r1, #4]
  if(HAL_IS_BIT_SET(huart->AdvancedInit.AdvFeatureInit, UART_ADVFEATURE_MSBFIRST_INIT))
 80036ce:	061b      	lsls	r3, r3, #24
 80036d0:	d506      	bpl.n	80036e0 <UART_AdvFeatureConfig+0xa8>
    MODIFY_REG(huart->Instance->CR2, USART_CR2_MSBFIRST, huart->AdvancedInit.MSBFirst);
 80036d2:	6802      	ldr	r2, [r0, #0]
 80036d4:	490b      	ldr	r1, [pc, #44]	; (8003704 <UART_AdvFeatureConfig+0xcc>)
 80036d6:	6853      	ldr	r3, [r2, #4]
 80036d8:	400b      	ands	r3, r1
 80036da:	6c81      	ldr	r1, [r0, #72]	; 0x48
 80036dc:	430b      	orrs	r3, r1
 80036de:	6053      	str	r3, [r2, #4]
}
 80036e0:	bd30      	pop	{r4, r5, pc}
 80036e2:	46c0      	nop			; (mov r8, r8)
 80036e4:	fffdffff 	.word	0xfffdffff
 80036e8:	fffeffff 	.word	0xfffeffff
 80036ec:	fffbffff 	.word	0xfffbffff
 80036f0:	ffff7fff 	.word	0xffff7fff
 80036f4:	ffffefff 	.word	0xffffefff
 80036f8:	ffffdfff 	.word	0xffffdfff
 80036fc:	ffefffff 	.word	0xffefffff
 8003700:	ff9fffff 	.word	0xff9fffff
 8003704:	fff7ffff 	.word	0xfff7ffff

08003708 <UART_WaitOnFlagUntilTimeout>:
{
 8003708:	b5f8      	push	{r3, r4, r5, r6, r7, lr}
 800370a:	0004      	movs	r4, r0
 800370c:	000e      	movs	r6, r1
 800370e:	0015      	movs	r5, r2
 8003710:	001f      	movs	r7, r3
  while((__HAL_UART_GET_FLAG(huart, Flag) ? SET : RESET) == Status)
 8003712:	6822      	ldr	r2, [r4, #0]
 8003714:	69d3      	ldr	r3, [r2, #28]
 8003716:	4033      	ands	r3, r6
 8003718:	1b9b      	subs	r3, r3, r6
 800371a:	4259      	negs	r1, r3
 800371c:	414b      	adcs	r3, r1
 800371e:	42ab      	cmp	r3, r5
 8003720:	d001      	beq.n	8003726 <UART_WaitOnFlagUntilTimeout+0x1e>
  return HAL_OK;
 8003722:	2000      	movs	r0, #0
 8003724:	e018      	b.n	8003758 <UART_WaitOnFlagUntilTimeout+0x50>
    if(Timeout != HAL_MAX_DELAY)
 8003726:	9b06      	ldr	r3, [sp, #24]
 8003728:	3301      	adds	r3, #1
 800372a:	d0f3      	beq.n	8003714 <UART_WaitOnFlagUntilTimeout+0xc>
      if((Timeout == 0U) || ((HAL_GetTick()-Tickstart) > Timeout))
 800372c:	9b06      	ldr	r3, [sp, #24]
 800372e:	2b00      	cmp	r3, #0
 8003730:	d113      	bne.n	800375a <UART_WaitOnFlagUntilTimeout+0x52>
        CLEAR_BIT(huart->Instance->CR1, (USART_CR1_RXNEIE | USART_CR1_PEIE | USART_CR1_TXEIE));
 8003732:	6823      	ldr	r3, [r4, #0]
 8003734:	490c      	ldr	r1, [pc, #48]	; (8003768 <UART_WaitOnFlagUntilTimeout+0x60>)
 8003736:	681a      	ldr	r2, [r3, #0]
        __HAL_UNLOCK(huart);
 8003738:	2003      	movs	r0, #3
        CLEAR_BIT(huart->Instance->CR1, (USART_CR1_RXNEIE | USART_CR1_PEIE | USART_CR1_TXEIE));
 800373a:	400a      	ands	r2, r1
 800373c:	601a      	str	r2, [r3, #0]
        CLEAR_BIT(huart->Instance->CR3, USART_CR3_EIE);
 800373e:	689a      	ldr	r2, [r3, #8]
 8003740:	31a3      	adds	r1, #163	; 0xa3
 8003742:	31ff      	adds	r1, #255	; 0xff
 8003744:	438a      	bics	r2, r1
 8003746:	609a      	str	r2, [r3, #8]
        huart->gState  = HAL_UART_STATE_READY;
 8003748:	0022      	movs	r2, r4
 800374a:	2320      	movs	r3, #32
 800374c:	3269      	adds	r2, #105	; 0x69
 800374e:	7013      	strb	r3, [r2, #0]
        huart->RxState = HAL_UART_STATE_READY;
 8003750:	7053      	strb	r3, [r2, #1]
        __HAL_UNLOCK(huart);
 8003752:	2300      	movs	r3, #0
 8003754:	3468      	adds	r4, #104	; 0x68
 8003756:	7023      	strb	r3, [r4, #0]
}
 8003758:	bdf8      	pop	{r3, r4, r5, r6, r7, pc}
      if((Timeout == 0U) || ((HAL_GetTick()-Tickstart) > Timeout))
 800375a:	f7fc fda9 	bl	80002b0 <HAL_GetTick>
 800375e:	9b06      	ldr	r3, [sp, #24]
 8003760:	1bc0      	subs	r0, r0, r7
 8003762:	4283      	cmp	r3, r0
 8003764:	d2d5      	bcs.n	8003712 <UART_WaitOnFlagUntilTimeout+0xa>
 8003766:	e7e4      	b.n	8003732 <UART_WaitOnFlagUntilTimeout+0x2a>
 8003768:	fffffe5f 	.word	0xfffffe5f

0800376c <UART_CheckIdleState>:
{
 800376c:	b573      	push	{r0, r1, r4, r5, r6, lr}
  huart->ErrorCode = HAL_UART_ERROR_NONE;
 800376e:	2600      	movs	r6, #0
{
 8003770:	0004      	movs	r4, r0
  huart->ErrorCode = HAL_UART_ERROR_NONE;
 8003772:	66c6      	str	r6, [r0, #108]	; 0x6c
  tickstart = HAL_GetTick();
 8003774:	f7fc fd9c 	bl	80002b0 <HAL_GetTick>
  if (IS_UART_WAKEUP_FROMSTOP_INSTANCE(huart->Instance))
 8003778:	4a16      	ldr	r2, [pc, #88]	; (80037d4 <UART_CheckIdleState+0x68>)
 800377a:	6823      	ldr	r3, [r4, #0]
  tickstart = HAL_GetTick();
 800377c:	0005      	movs	r5, r0
  if (IS_UART_WAKEUP_FROMSTOP_INSTANCE(huart->Instance))
 800377e:	4293      	cmp	r3, r2
 8003780:	d008      	beq.n	8003794 <UART_CheckIdleState+0x28>
  huart->gState  = HAL_UART_STATE_READY;
 8003782:	0022      	movs	r2, r4
 8003784:	2320      	movs	r3, #32
  __HAL_UNLOCK(huart);
 8003786:	2000      	movs	r0, #0
  huart->gState  = HAL_UART_STATE_READY;
 8003788:	3269      	adds	r2, #105	; 0x69
  __HAL_UNLOCK(huart);
 800378a:	3468      	adds	r4, #104	; 0x68
  huart->gState  = HAL_UART_STATE_READY;
 800378c:	7013      	strb	r3, [r2, #0]
  huart->RxState = HAL_UART_STATE_READY;
 800378e:	7053      	strb	r3, [r2, #1]
  __HAL_UNLOCK(huart);
 8003790:	7020      	strb	r0, [r4, #0]
}
 8003792:	bd76      	pop	{r1, r2, r4, r5, r6, pc}
    if((huart->Instance->CR1 & USART_CR1_TE) == USART_CR1_TE)
 8003794:	681b      	ldr	r3, [r3, #0]
 8003796:	071b      	lsls	r3, r3, #28
 8003798:	d40f      	bmi.n	80037ba <UART_CheckIdleState+0x4e>
    if((huart->Instance->CR1 & USART_CR1_RE) == USART_CR1_RE)
 800379a:	6823      	ldr	r3, [r4, #0]
 800379c:	681b      	ldr	r3, [r3, #0]
 800379e:	075b      	lsls	r3, r3, #29
 80037a0:	d5ef      	bpl.n	8003782 <UART_CheckIdleState+0x16>
      if(UART_WaitOnFlagUntilTimeout(huart, USART_ISR_REACK, RESET, tickstart, HAL_UART_TIMEOUT_VALUE) != HAL_OK)
 80037a2:	2180      	movs	r1, #128	; 0x80
 80037a4:	4b0c      	ldr	r3, [pc, #48]	; (80037d8 <UART_CheckIdleState+0x6c>)
 80037a6:	2200      	movs	r2, #0
 80037a8:	9300      	str	r3, [sp, #0]
 80037aa:	03c9      	lsls	r1, r1, #15
 80037ac:	002b      	movs	r3, r5
 80037ae:	0020      	movs	r0, r4
 80037b0:	f7ff ffaa 	bl	8003708 <UART_WaitOnFlagUntilTimeout>
 80037b4:	2800      	cmp	r0, #0
 80037b6:	d10b      	bne.n	80037d0 <UART_CheckIdleState+0x64>
 80037b8:	e7e3      	b.n	8003782 <UART_CheckIdleState+0x16>
      if(UART_WaitOnFlagUntilTimeout(huart, USART_ISR_TEACK, RESET, tickstart, HAL_UART_TIMEOUT_VALUE) != HAL_OK)
 80037ba:	2180      	movs	r1, #128	; 0x80
 80037bc:	4b06      	ldr	r3, [pc, #24]	; (80037d8 <UART_CheckIdleState+0x6c>)
 80037be:	0032      	movs	r2, r6
 80037c0:	9300      	str	r3, [sp, #0]
 80037c2:	0389      	lsls	r1, r1, #14
 80037c4:	0003      	movs	r3, r0
 80037c6:	0020      	movs	r0, r4
 80037c8:	f7ff ff9e 	bl	8003708 <UART_WaitOnFlagUntilTimeout>
 80037cc:	2800      	cmp	r0, #0
 80037ce:	d0e4      	beq.n	800379a <UART_CheckIdleState+0x2e>
        return HAL_TIMEOUT;
 80037d0:	2003      	movs	r0, #3
 80037d2:	e7de      	b.n	8003792 <UART_CheckIdleState+0x26>
 80037d4:	40013800 	.word	0x40013800
 80037d8:	01ffffff 	.word	0x01ffffff

080037dc <HAL_UART_Init>:
{
 80037dc:	b570      	push	{r4, r5, r6, lr}
 80037de:	1e04      	subs	r4, r0, #0
  if(huart == NULL)
 80037e0:	d101      	bne.n	80037e6 <HAL_UART_Init+0xa>
    return HAL_ERROR;
 80037e2:	2001      	movs	r0, #1
}
 80037e4:	bd70      	pop	{r4, r5, r6, pc}
  if(huart->gState == HAL_UART_STATE_RESET)
 80037e6:	0005      	movs	r5, r0
 80037e8:	3569      	adds	r5, #105	; 0x69
 80037ea:	782b      	ldrb	r3, [r5, #0]
 80037ec:	b2db      	uxtb	r3, r3
 80037ee:	2b00      	cmp	r3, #0
 80037f0:	d104      	bne.n	80037fc <HAL_UART_Init+0x20>
    huart->Lock = HAL_UNLOCKED;
 80037f2:	0002      	movs	r2, r0
 80037f4:	3268      	adds	r2, #104	; 0x68
 80037f6:	7013      	strb	r3, [r2, #0]
    HAL_UART_MspInit(huart);
 80037f8:	f001 ffba 	bl	8005770 <HAL_UART_MspInit>
  huart->gState = HAL_UART_STATE_BUSY;
 80037fc:	2324      	movs	r3, #36	; 0x24
  __HAL_UART_DISABLE(huart);
 80037fe:	2101      	movs	r1, #1
 8003800:	6822      	ldr	r2, [r4, #0]
  huart->gState = HAL_UART_STATE_BUSY;
 8003802:	702b      	strb	r3, [r5, #0]
  __HAL_UART_DISABLE(huart);
 8003804:	6813      	ldr	r3, [r2, #0]
  if (UART_SetConfig(huart) == HAL_ERROR)
 8003806:	0020      	movs	r0, r4
  __HAL_UART_DISABLE(huart);
 8003808:	438b      	bics	r3, r1
 800380a:	6013      	str	r3, [r2, #0]
  if (UART_SetConfig(huart) == HAL_ERROR)
 800380c:	f7ff fe7a 	bl	8003504 <UART_SetConfig>
 8003810:	2801      	cmp	r0, #1
 8003812:	d0e6      	beq.n	80037e2 <HAL_UART_Init+0x6>
  if (huart->AdvancedInit.AdvFeatureInit != UART_ADVFEATURE_NO_INIT)
 8003814:	6a63      	ldr	r3, [r4, #36]	; 0x24
 8003816:	2b00      	cmp	r3, #0
 8003818:	d002      	beq.n	8003820 <HAL_UART_Init+0x44>
    UART_AdvFeatureConfig(huart);
 800381a:	0020      	movs	r0, r4
 800381c:	f7ff ff0c 	bl	8003638 <UART_AdvFeatureConfig>
  CLEAR_BIT(huart->Instance->CR2, (USART_CR2_LINEN | USART_CR2_CLKEN));
 8003820:	6823      	ldr	r3, [r4, #0]
 8003822:	4908      	ldr	r1, [pc, #32]	; (8003844 <HAL_UART_Init+0x68>)
 8003824:	685a      	ldr	r2, [r3, #4]
  return (UART_CheckIdleState(huart));
 8003826:	0020      	movs	r0, r4
  CLEAR_BIT(huart->Instance->CR2, (USART_CR2_LINEN | USART_CR2_CLKEN));
 8003828:	400a      	ands	r2, r1
  CLEAR_BIT(huart->Instance->CR3, (USART_CR3_SCEN | USART_CR3_HDSEL | USART_CR3_IREN));
 800382a:	212a      	movs	r1, #42	; 0x2a
  CLEAR_BIT(huart->Instance->CR2, (USART_CR2_LINEN | USART_CR2_CLKEN));
 800382c:	605a      	str	r2, [r3, #4]
  CLEAR_BIT(huart->Instance->CR3, (USART_CR3_SCEN | USART_CR3_HDSEL | USART_CR3_IREN));
 800382e:	689a      	ldr	r2, [r3, #8]
 8003830:	438a      	bics	r2, r1
 8003832:	609a      	str	r2, [r3, #8]
  __HAL_UART_ENABLE(huart);
 8003834:	2201      	movs	r2, #1
 8003836:	6819      	ldr	r1, [r3, #0]
 8003838:	430a      	orrs	r2, r1
 800383a:	601a      	str	r2, [r3, #0]
  return (UART_CheckIdleState(huart));
 800383c:	f7ff ff96 	bl	800376c <UART_CheckIdleState>
 8003840:	e7d0      	b.n	80037e4 <HAL_UART_Init+0x8>
 8003842:	46c0      	nop			; (mov r8, r8)
 8003844:	ffffb7ff 	.word	0xffffb7ff

08003848 <UART_Transmit_IT>:
HAL_StatusTypeDef UART_Transmit_IT(UART_HandleTypeDef *huart)
{
  uint16_t* tmp;

  /* Check that a Tx process is ongoing */
  if (huart->gState == HAL_UART_STATE_BUSY_TX)
 8003848:	0003      	movs	r3, r0
{
 800384a:	b530      	push	{r4, r5, lr}
  if (huart->gState == HAL_UART_STATE_BUSY_TX)
 800384c:	3369      	adds	r3, #105	; 0x69
 800384e:	781b      	ldrb	r3, [r3, #0]
{
 8003850:	0002      	movs	r2, r0
      return HAL_OK;
    }
  }
  else
  {
    return HAL_BUSY;
 8003852:	2002      	movs	r0, #2
  if (huart->gState == HAL_UART_STATE_BUSY_TX)
 8003854:	2b21      	cmp	r3, #33	; 0x21
 8003856:	d10f      	bne.n	8003878 <UART_Transmit_IT+0x30>
    if(huart->TxXferCount == 0U)
 8003858:	0014      	movs	r4, r2
 800385a:	3452      	adds	r4, #82	; 0x52
 800385c:	8823      	ldrh	r3, [r4, #0]
 800385e:	6811      	ldr	r1, [r2, #0]
 8003860:	b29b      	uxth	r3, r3
 8003862:	2b00      	cmp	r3, #0
 8003864:	d109      	bne.n	800387a <UART_Transmit_IT+0x32>
      CLEAR_BIT(huart->Instance->CR1, USART_CR1_TXEIE);
 8003866:	680a      	ldr	r2, [r1, #0]
 8003868:	307e      	adds	r0, #126	; 0x7e
 800386a:	4382      	bics	r2, r0
 800386c:	600a      	str	r2, [r1, #0]
      SET_BIT(huart->Instance->CR1, USART_CR1_TCIE);
 800386e:	2240      	movs	r2, #64	; 0x40
 8003870:	6808      	ldr	r0, [r1, #0]
 8003872:	4302      	orrs	r2, r0
 8003874:	600a      	str	r2, [r1, #0]
      return HAL_OK;
 8003876:	2000      	movs	r0, #0
  }
}
 8003878:	bd30      	pop	{r4, r5, pc}
      if ((huart->Init.WordLength == UART_WORDLENGTH_9B) && (huart->Init.Parity == UART_PARITY_NONE))
 800387a:	2080      	movs	r0, #128	; 0x80
 800387c:	6895      	ldr	r5, [r2, #8]
 800387e:	0140      	lsls	r0, r0, #5
 8003880:	6cd3      	ldr	r3, [r2, #76]	; 0x4c
 8003882:	4285      	cmp	r5, r0
 8003884:	d10d      	bne.n	80038a2 <UART_Transmit_IT+0x5a>
 8003886:	6910      	ldr	r0, [r2, #16]
 8003888:	2800      	cmp	r0, #0
 800388a:	d10a      	bne.n	80038a2 <UART_Transmit_IT+0x5a>
        huart->Instance->TDR = (*tmp & (uint16_t)0x01FFU);
 800388c:	8818      	ldrh	r0, [r3, #0]
        huart->pTxBuffPtr += 2U;
 800388e:	3302      	adds	r3, #2
        huart->Instance->TDR = (*tmp & (uint16_t)0x01FFU);
 8003890:	05c0      	lsls	r0, r0, #23
 8003892:	0dc0      	lsrs	r0, r0, #23
 8003894:	8508      	strh	r0, [r1, #40]	; 0x28
        huart->pTxBuffPtr += 2U;
 8003896:	64d3      	str	r3, [r2, #76]	; 0x4c
      huart->TxXferCount--;
 8003898:	8823      	ldrh	r3, [r4, #0]
 800389a:	3b01      	subs	r3, #1
 800389c:	b29b      	uxth	r3, r3
 800389e:	8023      	strh	r3, [r4, #0]
 80038a0:	e7e9      	b.n	8003876 <UART_Transmit_IT+0x2e>
        huart->Instance->TDR = (uint8_t)(*huart->pTxBuffPtr++ & (uint8_t)0xFFU);
 80038a2:	1c58      	adds	r0, r3, #1
 80038a4:	64d0      	str	r0, [r2, #76]	; 0x4c
 80038a6:	781b      	ldrb	r3, [r3, #0]
 80038a8:	850b      	strh	r3, [r1, #40]	; 0x28
 80038aa:	e7f5      	b.n	8003898 <UART_Transmit_IT+0x50>

080038ac <UART_EndTransmit_IT>:
  * @retval HAL status
  */
HAL_StatusTypeDef UART_EndTransmit_IT(UART_HandleTypeDef *huart)
{
  /* Disable the UART Transmit Complete Interrupt */
  CLEAR_BIT(huart->Instance->CR1, USART_CR1_TCIE);
 80038ac:	2140      	movs	r1, #64	; 0x40
 80038ae:	6802      	ldr	r2, [r0, #0]
{
 80038b0:	b510      	push	{r4, lr}
  CLEAR_BIT(huart->Instance->CR1, USART_CR1_TCIE);
 80038b2:	6813      	ldr	r3, [r2, #0]
 80038b4:	438b      	bics	r3, r1
 80038b6:	6013      	str	r3, [r2, #0]

  /* Tx process is ended, restore huart->gState to Ready */
  huart->gState = HAL_UART_STATE_READY;
 80038b8:	0003      	movs	r3, r0
 80038ba:	2220      	movs	r2, #32
 80038bc:	3369      	adds	r3, #105	; 0x69
 80038be:	701a      	strb	r2, [r3, #0]

  HAL_UART_TxCpltCallback(huart);
 80038c0:	f000 ffb8 	bl	8004834 <HAL_UART_TxCpltCallback>

  return HAL_OK;
}
 80038c4:	2000      	movs	r0, #0
 80038c6:	bd10      	pop	{r4, pc}

080038c8 <UART_Receive_IT>:
  uint16_t* tmp;
  uint16_t  uhMask = huart->Mask;
  uint16_t  uhdata;

  /* Check that a Rx process is ongoing */
  if(huart->RxState == HAL_UART_STATE_BUSY_RX)
 80038c8:	0002      	movs	r2, r0
{
 80038ca:	b570      	push	{r4, r5, r6, lr}
  if(huart->RxState == HAL_UART_STATE_BUSY_RX)
 80038cc:	326a      	adds	r2, #106	; 0x6a
 80038ce:	7811      	ldrb	r1, [r2, #0]
 80038d0:	6803      	ldr	r3, [r0, #0]
 80038d2:	2922      	cmp	r1, #34	; 0x22
 80038d4:	d12d      	bne.n	8003932 <UART_Receive_IT+0x6a>
  uint16_t  uhMask = huart->Mask;
 80038d6:	0001      	movs	r1, r0
  {
    uhdata = (uint16_t) READ_REG(huart->Instance->RDR);
    if ((huart->Init.WordLength == UART_WORDLENGTH_9B) && (huart->Init.Parity == UART_PARITY_NONE))
 80038d8:	2480      	movs	r4, #128	; 0x80
  uint16_t  uhMask = huart->Mask;
 80038da:	315c      	adds	r1, #92	; 0x5c
 80038dc:	880d      	ldrh	r5, [r1, #0]
    uhdata = (uint16_t) READ_REG(huart->Instance->RDR);
 80038de:	8c99      	ldrh	r1, [r3, #36]	; 0x24
    if ((huart->Init.WordLength == UART_WORDLENGTH_9B) && (huart->Init.Parity == UART_PARITY_NONE))
 80038e0:	0164      	lsls	r4, r4, #5
 80038e2:	4029      	ands	r1, r5
 80038e4:	6885      	ldr	r5, [r0, #8]
 80038e6:	6d43      	ldr	r3, [r0, #84]	; 0x54
 80038e8:	42a5      	cmp	r5, r4
 80038ea:	d11e      	bne.n	800392a <UART_Receive_IT+0x62>
 80038ec:	6904      	ldr	r4, [r0, #16]
 80038ee:	2c00      	cmp	r4, #0
 80038f0:	d11b      	bne.n	800392a <UART_Receive_IT+0x62>
    {
      tmp = (uint16_t*) huart->pRxBuffPtr ;
      *tmp = (uint16_t)(uhdata & uhMask);
 80038f2:	8019      	strh	r1, [r3, #0]
      huart->pRxBuffPtr +=2U;
 80038f4:	3302      	adds	r3, #2
 80038f6:	6543      	str	r3, [r0, #84]	; 0x54
    else
    {
      *huart->pRxBuffPtr++ = (uint8_t)(uhdata & (uint8_t)uhMask);
    }

    if(--huart->RxXferCount == 0U)
 80038f8:	0001      	movs	r1, r0
      HAL_UART_RxCpltCallback(huart);

      return HAL_OK;
    }

    return HAL_OK;
 80038fa:	2400      	movs	r4, #0
    if(--huart->RxXferCount == 0U)
 80038fc:	315a      	adds	r1, #90	; 0x5a
 80038fe:	880b      	ldrh	r3, [r1, #0]
 8003900:	3b01      	subs	r3, #1
 8003902:	b29b      	uxth	r3, r3
 8003904:	800b      	strh	r3, [r1, #0]
 8003906:	42a3      	cmp	r3, r4
 8003908:	d10d      	bne.n	8003926 <UART_Receive_IT+0x5e>
      CLEAR_BIT(huart->Instance->CR1, (USART_CR1_RXNEIE | USART_CR1_PEIE));
 800390a:	6803      	ldr	r3, [r0, #0]
 800390c:	4d0c      	ldr	r5, [pc, #48]	; (8003940 <UART_Receive_IT+0x78>)
 800390e:	6819      	ldr	r1, [r3, #0]
 8003910:	4029      	ands	r1, r5
 8003912:	6019      	str	r1, [r3, #0]
      CLEAR_BIT(huart->Instance->CR3, USART_CR3_EIE);
 8003914:	6899      	ldr	r1, [r3, #8]
 8003916:	3523      	adds	r5, #35	; 0x23
 8003918:	35ff      	adds	r5, #255	; 0xff
 800391a:	43a9      	bics	r1, r5
 800391c:	6099      	str	r1, [r3, #8]
      huart->RxState = HAL_UART_STATE_READY;
 800391e:	2320      	movs	r3, #32
 8003920:	7013      	strb	r3, [r2, #0]
      HAL_UART_RxCpltCallback(huart);
 8003922:	f000 ff8b 	bl	800483c <HAL_UART_RxCpltCallback>
    /* Clear RXNE interrupt flag */
    __HAL_UART_SEND_REQ(huart, UART_RXDATA_FLUSH_REQUEST);

    return HAL_BUSY;
  }
}
 8003926:	0020      	movs	r0, r4
 8003928:	bd70      	pop	{r4, r5, r6, pc}
      *huart->pRxBuffPtr++ = (uint8_t)(uhdata & (uint8_t)uhMask);
 800392a:	1c5c      	adds	r4, r3, #1
 800392c:	6544      	str	r4, [r0, #84]	; 0x54
 800392e:	7019      	strb	r1, [r3, #0]
 8003930:	e7e2      	b.n	80038f8 <UART_Receive_IT+0x30>
    __HAL_UART_SEND_REQ(huart, UART_RXDATA_FLUSH_REQUEST);
 8003932:	2208      	movs	r2, #8
 8003934:	6999      	ldr	r1, [r3, #24]
    return HAL_BUSY;
 8003936:	2402      	movs	r4, #2
    __HAL_UART_SEND_REQ(huart, UART_RXDATA_FLUSH_REQUEST);
 8003938:	430a      	orrs	r2, r1
 800393a:	619a      	str	r2, [r3, #24]
    return HAL_BUSY;
 800393c:	e7f3      	b.n	8003926 <UART_Receive_IT+0x5e>
 800393e:	46c0      	nop			; (mov r8, r8)
 8003940:	fffffedf 	.word	0xfffffedf

08003944 <HAL_UART_IRQHandler>:
  errorflags = (isrflags & (uint32_t)(USART_ISR_PE | USART_ISR_FE | USART_ISR_ORE | USART_ISR_NE));
 8003944:	210f      	movs	r1, #15
  uint32_t isrflags   = READ_REG(huart->Instance->ISR);
 8003946:	6802      	ldr	r2, [r0, #0]
{
 8003948:	b5f8      	push	{r3, r4, r5, r6, r7, lr}
  uint32_t isrflags   = READ_REG(huart->Instance->ISR);
 800394a:	69d3      	ldr	r3, [r2, #28]
{
 800394c:	0004      	movs	r4, r0
  errorflags = (isrflags & (uint32_t)(USART_ISR_PE | USART_ISR_FE | USART_ISR_ORE | USART_ISR_NE));
 800394e:	4019      	ands	r1, r3
  uint32_t cr1its     = READ_REG(huart->Instance->CR1);
 8003950:	6810      	ldr	r0, [r2, #0]
  if (errorflags == RESET)
 8003952:	d108      	bne.n	8003966 <HAL_UART_IRQHandler+0x22>
    if(((isrflags & USART_ISR_RXNE) != RESET) && ((cr1its & USART_CR1_RXNEIE) != RESET))
 8003954:	2520      	movs	r5, #32
 8003956:	422b      	tst	r3, r5
 8003958:	d005      	beq.n	8003966 <HAL_UART_IRQHandler+0x22>
 800395a:	4228      	tst	r0, r5
 800395c:	d003      	beq.n	8003966 <HAL_UART_IRQHandler+0x22>
      UART_Receive_IT(huart);
 800395e:	0020      	movs	r0, r4
 8003960:	f7ff ffb2 	bl	80038c8 <UART_Receive_IT>
}
 8003964:	bdf8      	pop	{r3, r4, r5, r6, r7, pc}
  cr3its = READ_REG(huart->Instance->CR3);
 8003966:	6896      	ldr	r6, [r2, #8]
  if(   (errorflags != RESET)
 8003968:	2900      	cmp	r1, #0
 800396a:	d061      	beq.n	8003a30 <HAL_UART_IRQHandler+0xec>
     && (   ((cr3its & USART_CR3_EIE) != RESET)
 800396c:	2101      	movs	r1, #1
 800396e:	0035      	movs	r5, r6
 8003970:	400d      	ands	r5, r1
 8003972:	d103      	bne.n	800397c <HAL_UART_IRQHandler+0x38>
         || ((cr1its & (USART_CR1_RXNEIE | USART_CR1_PEIE)) != RESET)) )
 8003974:	2790      	movs	r7, #144	; 0x90
 8003976:	007f      	lsls	r7, r7, #1
 8003978:	4238      	tst	r0, r7
 800397a:	d059      	beq.n	8003a30 <HAL_UART_IRQHandler+0xec>
    if(((isrflags & USART_ISR_PE) != RESET) && ((cr1its & USART_CR1_PEIE) != RESET))
 800397c:	420b      	tst	r3, r1
 800397e:	d005      	beq.n	800398c <HAL_UART_IRQHandler+0x48>
 8003980:	05c6      	lsls	r6, r0, #23
 8003982:	d503      	bpl.n	800398c <HAL_UART_IRQHandler+0x48>
      __HAL_UART_CLEAR_IT(huart, UART_CLEAR_PEF);
 8003984:	6211      	str	r1, [r2, #32]
      huart->ErrorCode |= HAL_UART_ERROR_PE;
 8003986:	6ee6      	ldr	r6, [r4, #108]	; 0x6c
 8003988:	4331      	orrs	r1, r6
 800398a:	66e1      	str	r1, [r4, #108]	; 0x6c
    if(((isrflags & USART_ISR_FE) != RESET) && ((cr3its & USART_CR3_EIE) != RESET))
 800398c:	2102      	movs	r1, #2
 800398e:	420b      	tst	r3, r1
 8003990:	d006      	beq.n	80039a0 <HAL_UART_IRQHandler+0x5c>
 8003992:	2d00      	cmp	r5, #0
 8003994:	d004      	beq.n	80039a0 <HAL_UART_IRQHandler+0x5c>
      __HAL_UART_CLEAR_IT(huart, UART_CLEAR_FEF);
 8003996:	6211      	str	r1, [r2, #32]
      huart->ErrorCode |= HAL_UART_ERROR_FE;
 8003998:	6ee6      	ldr	r6, [r4, #108]	; 0x6c
 800399a:	1849      	adds	r1, r1, r1
 800399c:	4331      	orrs	r1, r6
 800399e:	66e1      	str	r1, [r4, #108]	; 0x6c
    if(((isrflags & USART_ISR_NE) != RESET) && ((cr3its & USART_CR3_EIE) != RESET))
 80039a0:	2104      	movs	r1, #4
 80039a2:	420b      	tst	r3, r1
 80039a4:	d006      	beq.n	80039b4 <HAL_UART_IRQHandler+0x70>
 80039a6:	2d00      	cmp	r5, #0
 80039a8:	d004      	beq.n	80039b4 <HAL_UART_IRQHandler+0x70>
      __HAL_UART_CLEAR_IT(huart, UART_CLEAR_NEF);
 80039aa:	6211      	str	r1, [r2, #32]
      huart->ErrorCode |= HAL_UART_ERROR_NE;
 80039ac:	6ee6      	ldr	r6, [r4, #108]	; 0x6c
 80039ae:	3902      	subs	r1, #2
 80039b0:	4331      	orrs	r1, r6
 80039b2:	66e1      	str	r1, [r4, #108]	; 0x6c
    if(((isrflags & USART_ISR_ORE) != RESET) &&
 80039b4:	0719      	lsls	r1, r3, #28
 80039b6:	d508      	bpl.n	80039ca <HAL_UART_IRQHandler+0x86>
 80039b8:	0681      	lsls	r1, r0, #26
 80039ba:	d401      	bmi.n	80039c0 <HAL_UART_IRQHandler+0x7c>
       (((cr1its & USART_CR1_RXNEIE) != RESET) || ((cr3its & USART_CR3_EIE) != RESET)))
 80039bc:	2d00      	cmp	r5, #0
 80039be:	d004      	beq.n	80039ca <HAL_UART_IRQHandler+0x86>
      __HAL_UART_CLEAR_IT(huart, UART_CLEAR_OREF);
 80039c0:	2108      	movs	r1, #8
 80039c2:	6211      	str	r1, [r2, #32]
      huart->ErrorCode |= HAL_UART_ERROR_ORE;
 80039c4:	6ee2      	ldr	r2, [r4, #108]	; 0x6c
 80039c6:	4311      	orrs	r1, r2
 80039c8:	66e1      	str	r1, [r4, #108]	; 0x6c
    if(huart->ErrorCode != HAL_UART_ERROR_NONE)
 80039ca:	6ee2      	ldr	r2, [r4, #108]	; 0x6c
 80039cc:	2a00      	cmp	r2, #0
 80039ce:	d0c9      	beq.n	8003964 <HAL_UART_IRQHandler+0x20>
      if(((isrflags & USART_ISR_RXNE) != RESET) && ((cr1its & USART_CR1_RXNEIE) != RESET))
 80039d0:	2220      	movs	r2, #32
 80039d2:	4213      	tst	r3, r2
 80039d4:	d004      	beq.n	80039e0 <HAL_UART_IRQHandler+0x9c>
 80039d6:	4210      	tst	r0, r2
 80039d8:	d002      	beq.n	80039e0 <HAL_UART_IRQHandler+0x9c>
        UART_Receive_IT(huart);
 80039da:	0020      	movs	r0, r4
 80039dc:	f7ff ff74 	bl	80038c8 <UART_Receive_IT>
      if (((huart->ErrorCode & HAL_UART_ERROR_ORE) != RESET) ||
 80039e0:	6ee3      	ldr	r3, [r4, #108]	; 0x6c
        UART_EndRxTransfer(huart);
 80039e2:	0020      	movs	r0, r4
      if (((huart->ErrorCode & HAL_UART_ERROR_ORE) != RESET) ||
 80039e4:	071b      	lsls	r3, r3, #28
 80039e6:	d404      	bmi.n	80039f2 <HAL_UART_IRQHandler+0xae>
          (HAL_IS_BIT_SET(huart->Instance->CR3, USART_CR3_DMAR)))
 80039e8:	6823      	ldr	r3, [r4, #0]
 80039ea:	689d      	ldr	r5, [r3, #8]
 80039ec:	2340      	movs	r3, #64	; 0x40
 80039ee:	401d      	ands	r5, r3
      if (((huart->ErrorCode & HAL_UART_ERROR_ORE) != RESET) ||
 80039f0:	d01a      	beq.n	8003a28 <HAL_UART_IRQHandler+0xe4>
        UART_EndRxTransfer(huart);
 80039f2:	f7ff fc65 	bl	80032c0 <UART_EndRxTransfer>
        if (HAL_IS_BIT_SET(huart->Instance->CR3, USART_CR3_DMAR))
 80039f6:	2140      	movs	r1, #64	; 0x40
 80039f8:	6823      	ldr	r3, [r4, #0]
 80039fa:	689a      	ldr	r2, [r3, #8]
 80039fc:	420a      	tst	r2, r1
 80039fe:	d00f      	beq.n	8003a20 <HAL_UART_IRQHandler+0xdc>
          CLEAR_BIT(huart->Instance->CR3, USART_CR3_DMAR);
 8003a00:	689a      	ldr	r2, [r3, #8]
          if(huart->hdmarx != NULL)
 8003a02:	6e60      	ldr	r0, [r4, #100]	; 0x64
          CLEAR_BIT(huart->Instance->CR3, USART_CR3_DMAR);
 8003a04:	438a      	bics	r2, r1
 8003a06:	609a      	str	r2, [r3, #8]
          if(huart->hdmarx != NULL)
 8003a08:	2800      	cmp	r0, #0
 8003a0a:	d009      	beq.n	8003a20 <HAL_UART_IRQHandler+0xdc>
            huart->hdmarx->XferAbortCallback = UART_DMAAbortOnError;
 8003a0c:	4b1a      	ldr	r3, [pc, #104]	; (8003a78 <HAL_UART_IRQHandler+0x134>)
 8003a0e:	6343      	str	r3, [r0, #52]	; 0x34
            if(HAL_DMA_Abort_IT(huart->hdmarx) != HAL_OK)
 8003a10:	f7fd fab9 	bl	8000f86 <HAL_DMA_Abort_IT>
 8003a14:	2800      	cmp	r0, #0
 8003a16:	d0a5      	beq.n	8003964 <HAL_UART_IRQHandler+0x20>
              huart->hdmarx->XferAbortCallback(huart->hdmarx);
 8003a18:	6e60      	ldr	r0, [r4, #100]	; 0x64
 8003a1a:	6b43      	ldr	r3, [r0, #52]	; 0x34
 8003a1c:	4798      	blx	r3
 8003a1e:	e7a1      	b.n	8003964 <HAL_UART_IRQHandler+0x20>
            HAL_UART_ErrorCallback(huart);
 8003a20:	0020      	movs	r0, r4
 8003a22:	f000 ff09 	bl	8004838 <HAL_UART_ErrorCallback>
 8003a26:	e79d      	b.n	8003964 <HAL_UART_IRQHandler+0x20>
        HAL_UART_ErrorCallback(huart);
 8003a28:	f000 ff06 	bl	8004838 <HAL_UART_ErrorCallback>
        huart->ErrorCode = HAL_UART_ERROR_NONE;
 8003a2c:	66e5      	str	r5, [r4, #108]	; 0x6c
 8003a2e:	e799      	b.n	8003964 <HAL_UART_IRQHandler+0x20>
  if(((isrflags & USART_ISR_WUF) != RESET) && ((cr3its & USART_CR3_WUFIE) != RESET))
 8003a30:	2180      	movs	r1, #128	; 0x80
 8003a32:	0349      	lsls	r1, r1, #13
 8003a34:	420b      	tst	r3, r1
 8003a36:	d00b      	beq.n	8003a50 <HAL_UART_IRQHandler+0x10c>
 8003a38:	0275      	lsls	r5, r6, #9
 8003a3a:	d509      	bpl.n	8003a50 <HAL_UART_IRQHandler+0x10c>
    __HAL_UART_CLEAR_IT(huart, UART_CLEAR_WUF);
 8003a3c:	6211      	str	r1, [r2, #32]
    huart->gState  = HAL_UART_STATE_READY;
 8003a3e:	0022      	movs	r2, r4
 8003a40:	2320      	movs	r3, #32
 8003a42:	3269      	adds	r2, #105	; 0x69
 8003a44:	7013      	strb	r3, [r2, #0]
    HAL_UARTEx_WakeupCallback(huart);
 8003a46:	0020      	movs	r0, r4
    huart->RxState = HAL_UART_STATE_READY;
 8003a48:	7053      	strb	r3, [r2, #1]
    HAL_UARTEx_WakeupCallback(huart);
 8003a4a:	f000 f817 	bl	8003a7c <HAL_UARTEx_WakeupCallback>
    return;
 8003a4e:	e789      	b.n	8003964 <HAL_UART_IRQHandler+0x20>
  if(((isrflags & USART_ISR_TXE) != RESET) && ((cr1its & USART_CR1_TXEIE) != RESET))
 8003a50:	2280      	movs	r2, #128	; 0x80
 8003a52:	4213      	tst	r3, r2
 8003a54:	d005      	beq.n	8003a62 <HAL_UART_IRQHandler+0x11e>
 8003a56:	4210      	tst	r0, r2
 8003a58:	d003      	beq.n	8003a62 <HAL_UART_IRQHandler+0x11e>
    UART_Transmit_IT(huart);
 8003a5a:	0020      	movs	r0, r4
 8003a5c:	f7ff fef4 	bl	8003848 <UART_Transmit_IT>
    return;
 8003a60:	e780      	b.n	8003964 <HAL_UART_IRQHandler+0x20>
  if(((isrflags & USART_ISR_TC) != RESET) && ((cr1its & USART_CR1_TCIE) != RESET))
 8003a62:	2240      	movs	r2, #64	; 0x40
 8003a64:	4213      	tst	r3, r2
 8003a66:	d100      	bne.n	8003a6a <HAL_UART_IRQHandler+0x126>
 8003a68:	e77c      	b.n	8003964 <HAL_UART_IRQHandler+0x20>
 8003a6a:	4210      	tst	r0, r2
 8003a6c:	d100      	bne.n	8003a70 <HAL_UART_IRQHandler+0x12c>
 8003a6e:	e779      	b.n	8003964 <HAL_UART_IRQHandler+0x20>
    UART_EndTransmit_IT(huart);
 8003a70:	0020      	movs	r0, r4
 8003a72:	f7ff ff1b 	bl	80038ac <UART_EndTransmit_IT>
    return;
 8003a76:	e775      	b.n	8003964 <HAL_UART_IRQHandler+0x20>
 8003a78:	080034ef 	.word	0x080034ef

08003a7c <HAL_UARTEx_WakeupCallback>:
  UNUSED(huart);

  /* NOTE : This function should not be modified, when the callback is needed,
            the HAL_UARTEx_WakeupCallback can be implemented in the user file.
   */
}
 8003a7c:	4770      	bx	lr

08003a7e <USBD_CDC_DataIn>:
  * @param  epnum: endpoint number
  * @retval status
  */
static uint8_t  USBD_CDC_DataIn (USBD_HandleTypeDef *pdev, uint8_t epnum)
{
  USBD_CDC_HandleTypeDef   *hcdc = (USBD_CDC_HandleTypeDef*) pdev->pClassData;
 8003a7e:	2386      	movs	r3, #134	; 0x86
 8003a80:	009b      	lsls	r3, r3, #2
 8003a82:	58c3      	ldr	r3, [r0, r3]
  
  if(pdev->pClassData != NULL)
 8003a84:	2b00      	cmp	r3, #0
 8003a86:	d005      	beq.n	8003a94 <USBD_CDC_DataIn+0x16>
  {
    
    hcdc->TxState = 0;
 8003a88:	2100      	movs	r1, #0
 8003a8a:	2285      	movs	r2, #133	; 0x85
 8003a8c:	0092      	lsls	r2, r2, #2
 8003a8e:	5099      	str	r1, [r3, r2]

    return USBD_OK;
 8003a90:	2000      	movs	r0, #0
  }
  else
  {
    return USBD_FAIL;
  }
}
 8003a92:	4770      	bx	lr
    return USBD_FAIL;
 8003a94:	2002      	movs	r0, #2
 8003a96:	e7fc      	b.n	8003a92 <USBD_CDC_DataIn+0x14>

08003a98 <USBD_CDC_EP0_RxReady>:
  * @param  pdev: device instance
  * @param  epnum: endpoint number
  * @retval status
  */
static uint8_t  USBD_CDC_EP0_RxReady (USBD_HandleTypeDef *pdev)
{ 
 8003a98:	b510      	push	{r4, lr}
  USBD_CDC_HandleTypeDef   *hcdc = (USBD_CDC_HandleTypeDef*) pdev->pClassData;
 8003a9a:	2386      	movs	r3, #134	; 0x86
 8003a9c:	009b      	lsls	r3, r3, #2
 8003a9e:	58c4      	ldr	r4, [r0, r3]
  
  if((pdev->pUserData != NULL) && (hcdc->CmdOpCode != 0xFF))
 8003aa0:	3304      	adds	r3, #4
 8003aa2:	58c3      	ldr	r3, [r0, r3]
 8003aa4:	2b00      	cmp	r3, #0
 8003aa6:	d00d      	beq.n	8003ac4 <USBD_CDC_EP0_RxReady+0x2c>
 8003aa8:	2280      	movs	r2, #128	; 0x80
 8003aaa:	0092      	lsls	r2, r2, #2
 8003aac:	5ca0      	ldrb	r0, [r4, r2]
 8003aae:	28ff      	cmp	r0, #255	; 0xff
 8003ab0:	d008      	beq.n	8003ac4 <USBD_CDC_EP0_RxReady+0x2c>
  {
    ((USBD_CDC_ItfTypeDef *)pdev->pUserData)->Control(hcdc->CmdOpCode,
 8003ab2:	689b      	ldr	r3, [r3, #8]
 8003ab4:	4a04      	ldr	r2, [pc, #16]	; (8003ac8 <USBD_CDC_EP0_RxReady+0x30>)
 8003ab6:	5ca2      	ldrb	r2, [r4, r2]
 8003ab8:	0021      	movs	r1, r4
 8003aba:	4798      	blx	r3
                                                      (uint8_t *)hcdc->data,
                                                      hcdc->CmdLength);
      hcdc->CmdOpCode = 0xFF; 
 8003abc:	22ff      	movs	r2, #255	; 0xff
 8003abe:	2380      	movs	r3, #128	; 0x80
 8003ac0:	009b      	lsls	r3, r3, #2
 8003ac2:	54e2      	strb	r2, [r4, r3]
      
  }
  return USBD_OK;
}
 8003ac4:	2000      	movs	r0, #0
 8003ac6:	bd10      	pop	{r4, pc}
 8003ac8:	00000201 	.word	0x00000201

08003acc <USBD_CDC_GetFSCfgDesc>:
  * @param  length : pointer data length
  * @retval pointer to descriptor buffer
  */
static uint8_t  *USBD_CDC_GetFSCfgDesc (uint16_t *length)
{
  *length = sizeof (USBD_CDC_CfgFSDesc);
 8003acc:	2343      	movs	r3, #67	; 0x43
 8003ace:	8003      	strh	r3, [r0, #0]
  return USBD_CDC_CfgFSDesc;
}
 8003ad0:	4800      	ldr	r0, [pc, #0]	; (8003ad4 <USBD_CDC_GetFSCfgDesc+0x8>)
 8003ad2:	4770      	bx	lr
 8003ad4:	20000038 	.word	0x20000038

08003ad8 <USBD_CDC_GetHSCfgDesc>:
  * @param  length : pointer data length
  * @retval pointer to descriptor buffer
  */
static uint8_t  *USBD_CDC_GetHSCfgDesc (uint16_t *length)
{
  *length = sizeof (USBD_CDC_CfgHSDesc);
 8003ad8:	2343      	movs	r3, #67	; 0x43
 8003ada:	8003      	strh	r3, [r0, #0]
  return USBD_CDC_CfgHSDesc;
}
 8003adc:	4800      	ldr	r0, [pc, #0]	; (8003ae0 <USBD_CDC_GetHSCfgDesc+0x8>)
 8003ade:	4770      	bx	lr
 8003ae0:	2000007c 	.word	0x2000007c

08003ae4 <USBD_CDC_GetOtherSpeedCfgDesc>:
  * @param  length : pointer data length
  * @retval pointer to descriptor buffer
  */
static uint8_t  *USBD_CDC_GetOtherSpeedCfgDesc (uint16_t *length)
{
  *length = sizeof (USBD_CDC_OtherSpeedCfgDesc);
 8003ae4:	2343      	movs	r3, #67	; 0x43
 8003ae6:	8003      	strh	r3, [r0, #0]
  return USBD_CDC_OtherSpeedCfgDesc;
}
 8003ae8:	4800      	ldr	r0, [pc, #0]	; (8003aec <USBD_CDC_GetOtherSpeedCfgDesc+0x8>)
 8003aea:	4770      	bx	lr
 8003aec:	200000cc 	.word	0x200000cc

08003af0 <USBD_CDC_GetDeviceQualifierDescriptor>:
* @param  length : pointer data length
* @retval pointer to descriptor buffer
*/
uint8_t  *USBD_CDC_GetDeviceQualifierDescriptor (uint16_t *length)
{
  *length = sizeof (USBD_CDC_DeviceQualifierDesc);
 8003af0:	230a      	movs	r3, #10
 8003af2:	8003      	strh	r3, [r0, #0]
  return USBD_CDC_DeviceQualifierDesc;
}
 8003af4:	4800      	ldr	r0, [pc, #0]	; (8003af8 <USBD_CDC_GetDeviceQualifierDescriptor+0x8>)
 8003af6:	4770      	bx	lr
 8003af8:	200000c0 	.word	0x200000c0

08003afc <USBD_CDC_DataOut>:
{      
 8003afc:	b570      	push	{r4, r5, r6, lr}
 8003afe:	0004      	movs	r4, r0
  USBD_CDC_HandleTypeDef   *hcdc = (USBD_CDC_HandleTypeDef*) pdev->pClassData;
 8003b00:	2686      	movs	r6, #134	; 0x86
 8003b02:	00b6      	lsls	r6, r6, #2
 8003b04:	5985      	ldr	r5, [r0, r6]
  hcdc->RxLength = USBD_LL_GetRxDataSize (pdev, epnum);
 8003b06:	f002 f93e 	bl	8005d86 <USBD_LL_GetRxDataSize>
 8003b0a:	2383      	movs	r3, #131	; 0x83
 8003b0c:	009b      	lsls	r3, r3, #2
 8003b0e:	50e8      	str	r0, [r5, r3]
  if(pdev->pClassData != NULL)
 8003b10:	59a3      	ldr	r3, [r4, r6]
 8003b12:	2b00      	cmp	r3, #0
 8003b14:	d00b      	beq.n	8003b2e <USBD_CDC_DataOut+0x32>
    ((USBD_CDC_ItfTypeDef *)pdev->pUserData)->Receive(hcdc->RxBuffer, &hcdc->RxLength);
 8003b16:	2387      	movs	r3, #135	; 0x87
 8003b18:	009b      	lsls	r3, r3, #2
 8003b1a:	58e3      	ldr	r3, [r4, r3]
 8003b1c:	68db      	ldr	r3, [r3, #12]
 8003b1e:	2283      	movs	r2, #131	; 0x83
 8003b20:	0092      	lsls	r2, r2, #2
 8003b22:	18a9      	adds	r1, r5, r2
 8003b24:	3a08      	subs	r2, #8
 8003b26:	58a8      	ldr	r0, [r5, r2]
 8003b28:	4798      	blx	r3
    return USBD_OK;
 8003b2a:	2000      	movs	r0, #0
}
 8003b2c:	bd70      	pop	{r4, r5, r6, pc}
    return USBD_FAIL;
 8003b2e:	2002      	movs	r0, #2
 8003b30:	e7fc      	b.n	8003b2c <USBD_CDC_DataOut+0x30>
	...

08003b34 <USBD_CDC_Setup>:
{
 8003b34:	b570      	push	{r4, r5, r6, lr}
 8003b36:	0005      	movs	r5, r0
 8003b38:	000c      	movs	r4, r1
  USBD_CDC_HandleTypeDef   *hcdc = (USBD_CDC_HandleTypeDef*) pdev->pClassData;
 8003b3a:	2386      	movs	r3, #134	; 0x86
 8003b3c:	009b      	lsls	r3, r3, #2
 8003b3e:	58c6      	ldr	r6, [r0, r3]
  switch (req->bmRequest & USB_REQ_TYPE_MASK)
 8003b40:	7809      	ldrb	r1, [r1, #0]
 8003b42:	3bb9      	subs	r3, #185	; 0xb9
 8003b44:	3bff      	subs	r3, #255	; 0xff
 8003b46:	400b      	ands	r3, r1
 8003b48:	d029      	beq.n	8003b9e <USBD_CDC_Setup+0x6a>
 8003b4a:	2b20      	cmp	r3, #32
 8003b4c:	d12a      	bne.n	8003ba4 <USBD_CDC_Setup+0x70>
    if (req->wLength)
 8003b4e:	88e2      	ldrh	r2, [r4, #6]
 8003b50:	2a00      	cmp	r2, #0
 8003b52:	d01b      	beq.n	8003b8c <USBD_CDC_Setup+0x58>
      if (req->bmRequest & 0x80)
 8003b54:	b249      	sxtb	r1, r1
 8003b56:	2900      	cmp	r1, #0
 8003b58:	db0b      	blt.n	8003b72 <USBD_CDC_Setup+0x3e>
        hcdc->CmdOpCode = req->bRequest;
 8003b5a:	7862      	ldrb	r2, [r4, #1]
 8003b5c:	2380      	movs	r3, #128	; 0x80
 8003b5e:	009b      	lsls	r3, r3, #2
 8003b60:	54f2      	strb	r2, [r6, r3]
        hcdc->CmdLength = req->wLength;
 8003b62:	88e2      	ldrh	r2, [r4, #6]
 8003b64:	4b13      	ldr	r3, [pc, #76]	; (8003bb4 <USBD_CDC_Setup+0x80>)
 8003b66:	54f2      	strb	r2, [r6, r3]
        USBD_CtlPrepareRx (pdev, 
 8003b68:	88e2      	ldrh	r2, [r4, #6]
 8003b6a:	0031      	movs	r1, r6
 8003b6c:	f000 fd1e 	bl	80045ac <USBD_CtlPrepareRx>
 8003b70:	e018      	b.n	8003ba4 <USBD_CDC_Setup+0x70>
        ((USBD_CDC_ItfTypeDef *)pdev->pUserData)->Control(req->bRequest,
 8003b72:	33fd      	adds	r3, #253	; 0xfd
 8003b74:	33ff      	adds	r3, #255	; 0xff
 8003b76:	58c3      	ldr	r3, [r0, r3]
 8003b78:	689b      	ldr	r3, [r3, #8]
 8003b7a:	7860      	ldrb	r0, [r4, #1]
 8003b7c:	0031      	movs	r1, r6
 8003b7e:	4798      	blx	r3
          USBD_CtlSendData (pdev, 
 8003b80:	88e2      	ldrh	r2, [r4, #6]
 8003b82:	0031      	movs	r1, r6
 8003b84:	0028      	movs	r0, r5
 8003b86:	f000 fcfb 	bl	8004580 <USBD_CtlSendData>
 8003b8a:	e00b      	b.n	8003ba4 <USBD_CDC_Setup+0x70>
      ((USBD_CDC_ItfTypeDef *)pdev->pUserData)->Control(req->bRequest,
 8003b8c:	2387      	movs	r3, #135	; 0x87
 8003b8e:	009b      	lsls	r3, r3, #2
 8003b90:	58c3      	ldr	r3, [r0, r3]
 8003b92:	689b      	ldr	r3, [r3, #8]
 8003b94:	7860      	ldrb	r0, [r4, #1]
 8003b96:	2200      	movs	r2, #0
 8003b98:	0021      	movs	r1, r4
 8003b9a:	4798      	blx	r3
 8003b9c:	e002      	b.n	8003ba4 <USBD_CDC_Setup+0x70>
    switch (req->bRequest)
 8003b9e:	7863      	ldrb	r3, [r4, #1]
 8003ba0:	2b0a      	cmp	r3, #10
 8003ba2:	d001      	beq.n	8003ba8 <USBD_CDC_Setup+0x74>
}
 8003ba4:	2000      	movs	r0, #0
 8003ba6:	bd70      	pop	{r4, r5, r6, pc}
      USBD_CtlSendData (pdev,
 8003ba8:	2201      	movs	r2, #1
 8003baa:	4903      	ldr	r1, [pc, #12]	; (8003bb8 <USBD_CDC_Setup+0x84>)
 8003bac:	f000 fce8 	bl	8004580 <USBD_CtlSendData>
      break;
 8003bb0:	e7f8      	b.n	8003ba4 <USBD_CDC_Setup+0x70>
 8003bb2:	46c0      	nop			; (mov r8, r8)
 8003bb4:	00000201 	.word	0x00000201
 8003bb8:	2000017c 	.word	0x2000017c

08003bbc <USBD_CDC_DeInit>:
{
 8003bbc:	b570      	push	{r4, r5, r6, lr}
 8003bbe:	0004      	movs	r4, r0
  USBD_LL_CloseEP(pdev,
 8003bc0:	2181      	movs	r1, #129	; 0x81
 8003bc2:	f002 f866 	bl	8005c92 <USBD_LL_CloseEP>
  USBD_LL_CloseEP(pdev,
 8003bc6:	2101      	movs	r1, #1
 8003bc8:	0020      	movs	r0, r4
 8003bca:	f002 f862 	bl	8005c92 <USBD_LL_CloseEP>
  USBD_LL_CloseEP(pdev,
 8003bce:	2182      	movs	r1, #130	; 0x82
 8003bd0:	0020      	movs	r0, r4
 8003bd2:	f002 f85e 	bl	8005c92 <USBD_LL_CloseEP>
  if(pdev->pClassData != NULL)
 8003bd6:	2386      	movs	r3, #134	; 0x86
 8003bd8:	009b      	lsls	r3, r3, #2
 8003bda:	58e3      	ldr	r3, [r4, r3]
 8003bdc:	2b00      	cmp	r3, #0
 8003bde:	d00b      	beq.n	8003bf8 <USBD_CDC_DeInit+0x3c>
    ((USBD_CDC_ItfTypeDef *)pdev->pUserData)->DeInit();
 8003be0:	2387      	movs	r3, #135	; 0x87
 8003be2:	009b      	lsls	r3, r3, #2
 8003be4:	58e3      	ldr	r3, [r4, r3]
 8003be6:	685b      	ldr	r3, [r3, #4]
 8003be8:	4798      	blx	r3
    USBD_free(pdev->pClassData);
 8003bea:	2586      	movs	r5, #134	; 0x86
 8003bec:	00ad      	lsls	r5, r5, #2
 8003bee:	5960      	ldr	r0, [r4, r5]
 8003bf0:	f002 f8d4 	bl	8005d9c <USBD_static_free>
    pdev->pClassData = NULL;
 8003bf4:	2300      	movs	r3, #0
 8003bf6:	5163      	str	r3, [r4, r5]
}
 8003bf8:	2000      	movs	r0, #0
 8003bfa:	bd70      	pop	{r4, r5, r6, pc}

08003bfc <USBD_CDC_Init>:
{
 8003bfc:	b570      	push	{r4, r5, r6, lr}
 8003bfe:	0004      	movs	r4, r0
  if(pdev->dev_speed == USBD_SPEED_HIGH  ) 
 8003c00:	7c03      	ldrb	r3, [r0, #16]
 8003c02:	2b00      	cmp	r3, #0
 8003c04:	d134      	bne.n	8003c70 <USBD_CDC_Init+0x74>
    USBD_LL_OpenEP(pdev,
 8003c06:	2580      	movs	r5, #128	; 0x80
 8003c08:	00ad      	lsls	r5, r5, #2
 8003c0a:	002b      	movs	r3, r5
 8003c0c:	2202      	movs	r2, #2
 8003c0e:	2181      	movs	r1, #129	; 0x81
 8003c10:	f002 f82c 	bl	8005c6c <USBD_LL_OpenEP>
    USBD_LL_OpenEP(pdev,
 8003c14:	002b      	movs	r3, r5
 8003c16:	2202      	movs	r2, #2
 8003c18:	2101      	movs	r1, #1
 8003c1a:	0020      	movs	r0, r4
 8003c1c:	f002 f826 	bl	8005c6c <USBD_LL_OpenEP>
  USBD_LL_OpenEP(pdev,
 8003c20:	2308      	movs	r3, #8
 8003c22:	2203      	movs	r2, #3
 8003c24:	2182      	movs	r1, #130	; 0x82
 8003c26:	0020      	movs	r0, r4
 8003c28:	f002 f820 	bl	8005c6c <USBD_LL_OpenEP>
  pdev->pClassData = USBD_malloc(sizeof (USBD_CDC_HandleTypeDef));
 8003c2c:	2087      	movs	r0, #135	; 0x87
 8003c2e:	0080      	lsls	r0, r0, #2
 8003c30:	f002 f8b0 	bl	8005d94 <USBD_static_malloc>
 8003c34:	0005      	movs	r5, r0
 8003c36:	2386      	movs	r3, #134	; 0x86
 8003c38:	009b      	lsls	r3, r3, #2
 8003c3a:	50e0      	str	r0, [r4, r3]
  if(pdev->pClassData == NULL)
 8003c3c:	2800      	cmp	r0, #0
 8003c3e:	d02d      	beq.n	8003c9c <USBD_CDC_Init+0xa0>
    ((USBD_CDC_ItfTypeDef *)pdev->pUserData)->Init();
 8003c40:	3304      	adds	r3, #4
 8003c42:	58e3      	ldr	r3, [r4, r3]
 8003c44:	681b      	ldr	r3, [r3, #0]
 8003c46:	4798      	blx	r3
    hcdc->TxState =0;
 8003c48:	2300      	movs	r3, #0
 8003c4a:	2285      	movs	r2, #133	; 0x85
 8003c4c:	0092      	lsls	r2, r2, #2
 8003c4e:	50ab      	str	r3, [r5, r2]
    hcdc->RxState =0;
 8003c50:	3204      	adds	r2, #4
 8003c52:	50ab      	str	r3, [r5, r2]
    if(pdev->dev_speed == USBD_SPEED_HIGH  ) 
 8003c54:	7c23      	ldrb	r3, [r4, #16]
 8003c56:	2b00      	cmp	r3, #0
 8003c58:	d016      	beq.n	8003c88 <USBD_CDC_Init+0x8c>
      USBD_LL_PrepareReceive(pdev,
 8003c5a:	2381      	movs	r3, #129	; 0x81
 8003c5c:	009b      	lsls	r3, r3, #2
 8003c5e:	58ea      	ldr	r2, [r5, r3]
 8003c60:	3bc5      	subs	r3, #197	; 0xc5
 8003c62:	3bff      	subs	r3, #255	; 0xff
 8003c64:	2101      	movs	r1, #1
 8003c66:	0020      	movs	r0, r4
 8003c68:	f002 f87d 	bl	8005d66 <USBD_LL_PrepareReceive>
  uint8_t ret = 0;
 8003c6c:	2000      	movs	r0, #0
}
 8003c6e:	bd70      	pop	{r4, r5, r6, pc}
    USBD_LL_OpenEP(pdev,
 8003c70:	2340      	movs	r3, #64	; 0x40
 8003c72:	2202      	movs	r2, #2
 8003c74:	2181      	movs	r1, #129	; 0x81
 8003c76:	f001 fff9 	bl	8005c6c <USBD_LL_OpenEP>
    USBD_LL_OpenEP(pdev,
 8003c7a:	2340      	movs	r3, #64	; 0x40
 8003c7c:	2202      	movs	r2, #2
 8003c7e:	2101      	movs	r1, #1
 8003c80:	0020      	movs	r0, r4
 8003c82:	f001 fff3 	bl	8005c6c <USBD_LL_OpenEP>
 8003c86:	e7cb      	b.n	8003c20 <USBD_CDC_Init+0x24>
      USBD_LL_PrepareReceive(pdev,
 8003c88:	2381      	movs	r3, #129	; 0x81
 8003c8a:	009b      	lsls	r3, r3, #2
 8003c8c:	58ea      	ldr	r2, [r5, r3]
 8003c8e:	3b04      	subs	r3, #4
 8003c90:	2101      	movs	r1, #1
 8003c92:	0020      	movs	r0, r4
 8003c94:	f002 f867 	bl	8005d66 <USBD_LL_PrepareReceive>
  uint8_t ret = 0;
 8003c98:	2000      	movs	r0, #0
 8003c9a:	e7e8      	b.n	8003c6e <USBD_CDC_Init+0x72>
    ret = 1; 
 8003c9c:	2001      	movs	r0, #1
 8003c9e:	e7e6      	b.n	8003c6e <USBD_CDC_Init+0x72>

08003ca0 <USBD_CDC_RegisterInterface>:
uint8_t  USBD_CDC_RegisterInterface  (USBD_HandleTypeDef   *pdev, 
                                      USBD_CDC_ItfTypeDef *fops)
{
  uint8_t  ret = USBD_FAIL;
  
  if(fops != NULL)
 8003ca0:	2900      	cmp	r1, #0
 8003ca2:	d004      	beq.n	8003cae <USBD_CDC_RegisterInterface+0xe>
  {
    pdev->pUserData= fops;
 8003ca4:	2387      	movs	r3, #135	; 0x87
 8003ca6:	009b      	lsls	r3, r3, #2
 8003ca8:	50c1      	str	r1, [r0, r3]
    ret = USBD_OK;    
 8003caa:	2000      	movs	r0, #0
  }
  
  return ret;
}
 8003cac:	4770      	bx	lr
  uint8_t  ret = USBD_FAIL;
 8003cae:	2002      	movs	r0, #2
 8003cb0:	e7fc      	b.n	8003cac <USBD_CDC_RegisterInterface+0xc>

08003cb2 <USBD_CDC_SetTxBuffer>:
  */
uint8_t  USBD_CDC_SetTxBuffer  (USBD_HandleTypeDef   *pdev,
                                uint8_t  *pbuff,
                                uint16_t length)
{
  USBD_CDC_HandleTypeDef   *hcdc = (USBD_CDC_HandleTypeDef*) pdev->pClassData;
 8003cb2:	2386      	movs	r3, #134	; 0x86
 8003cb4:	009b      	lsls	r3, r3, #2
 8003cb6:	58c3      	ldr	r3, [r0, r3]
  
  hcdc->TxBuffer = pbuff;
 8003cb8:	2082      	movs	r0, #130	; 0x82
 8003cba:	0080      	lsls	r0, r0, #2
 8003cbc:	5019      	str	r1, [r3, r0]
  hcdc->TxLength = length;  
 8003cbe:	2184      	movs	r1, #132	; 0x84
 8003cc0:	0089      	lsls	r1, r1, #2
 8003cc2:	505a      	str	r2, [r3, r1]
  
  return USBD_OK;  
}
 8003cc4:	2000      	movs	r0, #0
 8003cc6:	4770      	bx	lr

08003cc8 <USBD_CDC_SetRxBuffer>:
  * @retval status
  */
uint8_t  USBD_CDC_SetRxBuffer  (USBD_HandleTypeDef   *pdev,
                                   uint8_t  *pbuff)
{
  USBD_CDC_HandleTypeDef   *hcdc = (USBD_CDC_HandleTypeDef*) pdev->pClassData;
 8003cc8:	2386      	movs	r3, #134	; 0x86
 8003cca:	009b      	lsls	r3, r3, #2
 8003ccc:	58c2      	ldr	r2, [r0, r3]
  
  hcdc->RxBuffer = pbuff;
 8003cce:	3b14      	subs	r3, #20
 8003cd0:	50d1      	str	r1, [r2, r3]
  
  return USBD_OK;
}
 8003cd2:	2000      	movs	r0, #0
 8003cd4:	4770      	bx	lr

08003cd6 <USBD_CDC_TransmitPacket>:
  * @param  pdev: device instance
  * @param  epnum: endpoint number
  * @retval status
  */
uint8_t  USBD_CDC_TransmitPacket(USBD_HandleTypeDef *pdev)
{      
 8003cd6:	b510      	push	{r4, lr}
  USBD_CDC_HandleTypeDef   *hcdc = (USBD_CDC_HandleTypeDef*) pdev->pClassData;
 8003cd8:	2386      	movs	r3, #134	; 0x86
 8003cda:	009b      	lsls	r3, r3, #2
 8003cdc:	58c2      	ldr	r2, [r0, r3]
  
  if(pdev->pClassData != NULL)
 8003cde:	2a00      	cmp	r2, #0
 8003ce0:	d014      	beq.n	8003d0c <USBD_CDC_TransmitPacket+0x36>
  {
    if(hcdc->TxState == 0)
 8003ce2:	3b04      	subs	r3, #4
 8003ce4:	58d3      	ldr	r3, [r2, r3]
 8003ce6:	2b00      	cmp	r3, #0
 8003ce8:	d001      	beq.n	8003cee <USBD_CDC_TransmitPacket+0x18>
      
      return USBD_OK;
    }
    else
    {
      return USBD_BUSY;
 8003cea:	2001      	movs	r0, #1
  }
  else
  {
    return USBD_FAIL;
  }
}
 8003cec:	bd10      	pop	{r4, pc}
      hcdc->TxState = 1;
 8003cee:	2101      	movs	r1, #1
 8003cf0:	2385      	movs	r3, #133	; 0x85
 8003cf2:	009b      	lsls	r3, r3, #2
 8003cf4:	50d1      	str	r1, [r2, r3]
      USBD_LL_Transmit(pdev,
 8003cf6:	3b04      	subs	r3, #4
 8003cf8:	5ad3      	ldrh	r3, [r2, r3]
 8003cfa:	2182      	movs	r1, #130	; 0x82
 8003cfc:	0089      	lsls	r1, r1, #2
 8003cfe:	5852      	ldr	r2, [r2, r1]
 8003d00:	3988      	subs	r1, #136	; 0x88
 8003d02:	39ff      	subs	r1, #255	; 0xff
 8003d04:	f002 f81f 	bl	8005d46 <USBD_LL_Transmit>
      return USBD_OK;
 8003d08:	2000      	movs	r0, #0
 8003d0a:	e7ef      	b.n	8003cec <USBD_CDC_TransmitPacket+0x16>
    return USBD_FAIL;
 8003d0c:	2002      	movs	r0, #2
 8003d0e:	e7ed      	b.n	8003cec <USBD_CDC_TransmitPacket+0x16>

08003d10 <USBD_CDC_ReceivePacket>:
  *         prepare OUT Endpoint for reception
  * @param  pdev: device instance
  * @retval status
  */
uint8_t  USBD_CDC_ReceivePacket(USBD_HandleTypeDef *pdev)
{      
 8003d10:	b510      	push	{r4, lr}
  USBD_CDC_HandleTypeDef   *hcdc = (USBD_CDC_HandleTypeDef*) pdev->pClassData;
 8003d12:	2386      	movs	r3, #134	; 0x86
 8003d14:	009b      	lsls	r3, r3, #2
 8003d16:	58c3      	ldr	r3, [r0, r3]
  
  /* Suspend or Resume USB Out process */
  if(pdev->pClassData != NULL)
 8003d18:	2b00      	cmp	r3, #0
 8003d1a:	d015      	beq.n	8003d48 <USBD_CDC_ReceivePacket+0x38>
  {
    if(pdev->dev_speed == USBD_SPEED_HIGH  ) 
 8003d1c:	7c02      	ldrb	r2, [r0, #16]
 8003d1e:	2a00      	cmp	r2, #0
 8003d20:	d008      	beq.n	8003d34 <USBD_CDC_ReceivePacket+0x24>
                             CDC_DATA_HS_OUT_PACKET_SIZE);
    }
    else
    {
      /* Prepare Out endpoint to receive next packet */
      USBD_LL_PrepareReceive(pdev,
 8003d22:	2281      	movs	r2, #129	; 0x81
 8003d24:	0092      	lsls	r2, r2, #2
 8003d26:	589a      	ldr	r2, [r3, r2]
 8003d28:	2340      	movs	r3, #64	; 0x40
 8003d2a:	2101      	movs	r1, #1
 8003d2c:	f002 f81b 	bl	8005d66 <USBD_LL_PrepareReceive>
                             CDC_OUT_EP,
                             hcdc->RxBuffer,
                             CDC_DATA_FS_OUT_PACKET_SIZE);
    }
    return USBD_OK;
 8003d30:	2000      	movs	r0, #0
  }
  else
  {
    return USBD_FAIL;
  }
}
 8003d32:	bd10      	pop	{r4, pc}
      USBD_LL_PrepareReceive(pdev,
 8003d34:	2281      	movs	r2, #129	; 0x81
 8003d36:	0092      	lsls	r2, r2, #2
 8003d38:	589a      	ldr	r2, [r3, r2]
 8003d3a:	2380      	movs	r3, #128	; 0x80
 8003d3c:	009b      	lsls	r3, r3, #2
 8003d3e:	2101      	movs	r1, #1
 8003d40:	f002 f811 	bl	8005d66 <USBD_LL_PrepareReceive>
    return USBD_OK;
 8003d44:	2000      	movs	r0, #0
 8003d46:	e7f4      	b.n	8003d32 <USBD_CDC_ReceivePacket+0x22>
    return USBD_FAIL;
 8003d48:	2002      	movs	r0, #2
 8003d4a:	e7f2      	b.n	8003d32 <USBD_CDC_ReceivePacket+0x22>

08003d4c <USBD_Init>:
* @param  pdesc: Descriptor structure address
* @param  id: Low level core index
* @retval None
*/
USBD_StatusTypeDef USBD_Init(USBD_HandleTypeDef *pdev, USBD_DescriptorsTypeDef *pdesc, uint8_t id)
{
 8003d4c:	b510      	push	{r4, lr}
  /* Check whether the USB Host handle is valid */
  if(pdev == NULL)
 8003d4e:	2800      	cmp	r0, #0
 8003d50:	d016      	beq.n	8003d80 <USBD_Init+0x34>
    USBD_ErrLog("Invalid Device handle");
    return USBD_FAIL; 
  }
  
  /* Unlink previous class*/
  if(pdev->pClass != NULL)
 8003d52:	2385      	movs	r3, #133	; 0x85
 8003d54:	009b      	lsls	r3, r3, #2
 8003d56:	58c3      	ldr	r3, [r0, r3]
 8003d58:	2b00      	cmp	r3, #0
 8003d5a:	d003      	beq.n	8003d64 <USBD_Init+0x18>
  {
    pdev->pClass = NULL;
 8003d5c:	2400      	movs	r4, #0
 8003d5e:	2385      	movs	r3, #133	; 0x85
 8003d60:	009b      	lsls	r3, r3, #2
 8003d62:	50c4      	str	r4, [r0, r3]
  }
  
  /* Assign USBD Descriptors */
  if(pdesc != NULL)
 8003d64:	2900      	cmp	r1, #0
 8003d66:	d002      	beq.n	8003d6e <USBD_Init+0x22>
  {
    pdev->pDesc = pdesc;
 8003d68:	2384      	movs	r3, #132	; 0x84
 8003d6a:	009b      	lsls	r3, r3, #2
 8003d6c:	50c1      	str	r1, [r0, r3]
  }
  
  /* Set Device initial State */
  pdev->dev_state  = USBD_STATE_DEFAULT;
 8003d6e:	2101      	movs	r1, #1
 8003d70:	23fe      	movs	r3, #254	; 0xfe
 8003d72:	005b      	lsls	r3, r3, #1
 8003d74:	54c1      	strb	r1, [r0, r3]
  pdev->id = id;
 8003d76:	7002      	strb	r2, [r0, #0]
  /* Initialize low level driver */
  USBD_LL_Init(pdev);
 8003d78:	f001 ff20 	bl	8005bbc <USBD_LL_Init>
  
  return USBD_OK; 
 8003d7c:	2000      	movs	r0, #0
}
 8003d7e:	bd10      	pop	{r4, pc}
    return USBD_FAIL; 
 8003d80:	2002      	movs	r0, #2
 8003d82:	e7fc      	b.n	8003d7e <USBD_Init+0x32>

08003d84 <USBD_RegisterClass>:
  * @retval USBD Status
  */
USBD_StatusTypeDef  USBD_RegisterClass(USBD_HandleTypeDef *pdev, USBD_ClassTypeDef *pclass)
{
  USBD_StatusTypeDef   status = USBD_OK;
  if(pclass != 0)
 8003d84:	2900      	cmp	r1, #0
 8003d86:	d004      	beq.n	8003d92 <USBD_RegisterClass+0xe>
  {
    /* link the class to the USB Device handle */
    pdev->pClass = pclass;
 8003d88:	2385      	movs	r3, #133	; 0x85
 8003d8a:	009b      	lsls	r3, r3, #2
 8003d8c:	50c1      	str	r1, [r0, r3]
    status = USBD_OK;
 8003d8e:	2000      	movs	r0, #0
    USBD_ErrLog("Invalid Class handle");
    status = USBD_FAIL; 
  }
  
  return status;
}
 8003d90:	4770      	bx	lr
    status = USBD_FAIL; 
 8003d92:	2002      	movs	r0, #2
 8003d94:	e7fc      	b.n	8003d90 <USBD_RegisterClass+0xc>

08003d96 <USBD_Start>:
  *         Start the USB Device Core.
  * @param  pdev: Device Handle
  * @retval USBD Status
  */
USBD_StatusTypeDef  USBD_Start  (USBD_HandleTypeDef *pdev)
{
 8003d96:	b510      	push	{r4, lr}
  
  /* Start the low level driver  */
  USBD_LL_Start(pdev); 
 8003d98:	f001 ff58 	bl	8005c4c <USBD_LL_Start>
  
  return USBD_OK;  
}
 8003d9c:	2000      	movs	r0, #0
 8003d9e:	bd10      	pop	{r4, pc}

08003da0 <USBD_SetClassConfig>:
* @param  cfgidx: configuration index
* @retval status
*/

USBD_StatusTypeDef USBD_SetClassConfig(USBD_HandleTypeDef  *pdev, uint8_t cfgidx)
{
 8003da0:	b510      	push	{r4, lr}
  USBD_StatusTypeDef   ret = USBD_FAIL;
  
  if(pdev->pClass != NULL)
 8003da2:	2385      	movs	r3, #133	; 0x85
 8003da4:	009b      	lsls	r3, r3, #2
 8003da6:	58c3      	ldr	r3, [r0, r3]
 8003da8:	2b00      	cmp	r3, #0
 8003daa:	d005      	beq.n	8003db8 <USBD_SetClassConfig+0x18>
  {
    /* Set configuration  and Start the Class*/
    if(pdev->pClass->Init(pdev, cfgidx) == 0)
 8003dac:	681b      	ldr	r3, [r3, #0]
 8003dae:	4798      	blx	r3
 8003db0:	2800      	cmp	r0, #0
 8003db2:	d003      	beq.n	8003dbc <USBD_SetClassConfig+0x1c>
  USBD_StatusTypeDef   ret = USBD_FAIL;
 8003db4:	2002      	movs	r0, #2
 8003db6:	e000      	b.n	8003dba <USBD_SetClassConfig+0x1a>
 8003db8:	2002      	movs	r0, #2
    {
      ret = USBD_OK;
    }
  }
  return ret; 
}
 8003dba:	bd10      	pop	{r4, pc}
      ret = USBD_OK;
 8003dbc:	2000      	movs	r0, #0
 8003dbe:	e7fc      	b.n	8003dba <USBD_SetClassConfig+0x1a>

08003dc0 <USBD_ClrClassConfig>:
* @param  pdev: device instance
* @param  cfgidx: configuration index
* @retval status: USBD_StatusTypeDef
*/
USBD_StatusTypeDef USBD_ClrClassConfig(USBD_HandleTypeDef  *pdev, uint8_t cfgidx)
{
 8003dc0:	b510      	push	{r4, lr}
  /* Clear configuration  and De-initialize the Class process*/
  pdev->pClass->DeInit(pdev, cfgidx);  
 8003dc2:	2385      	movs	r3, #133	; 0x85
 8003dc4:	009b      	lsls	r3, r3, #2
 8003dc6:	58c3      	ldr	r3, [r0, r3]
 8003dc8:	685b      	ldr	r3, [r3, #4]
 8003dca:	4798      	blx	r3
  return USBD_OK;
}
 8003dcc:	2000      	movs	r0, #0
 8003dce:	bd10      	pop	{r4, pc}

08003dd0 <USBD_LL_SetupStage>:
*         Handle the setup stage
* @param  pdev: device instance
* @retval status
*/
USBD_StatusTypeDef USBD_LL_SetupStage(USBD_HandleTypeDef *pdev, uint8_t *psetup)
{
 8003dd0:	b570      	push	{r4, r5, r6, lr}
 8003dd2:	0004      	movs	r4, r0

  USBD_ParseSetupRequest(&pdev->request, psetup);
 8003dd4:	2382      	movs	r3, #130	; 0x82
 8003dd6:	009b      	lsls	r3, r3, #2
 8003dd8:	18c5      	adds	r5, r0, r3
 8003dda:	0028      	movs	r0, r5
 8003ddc:	f000 f92f 	bl	800403e <USBD_ParseSetupRequest>
  
  pdev->ep0_state = USBD_EP0_SETUP;
 8003de0:	2201      	movs	r2, #1
 8003de2:	23fa      	movs	r3, #250	; 0xfa
 8003de4:	005b      	lsls	r3, r3, #1
 8003de6:	50e2      	str	r2, [r4, r3]
  pdev->ep0_data_len = pdev->request.wLength;
 8003de8:	4b12      	ldr	r3, [pc, #72]	; (8003e34 <USBD_LL_SetupStage+0x64>)
 8003dea:	5ae2      	ldrh	r2, [r4, r3]
 8003dec:	3b16      	subs	r3, #22
 8003dee:	50e2      	str	r2, [r4, r3]
  
  switch (pdev->request.bmRequest & 0x1F) 
 8003df0:	3310      	adds	r3, #16
 8003df2:	5ce1      	ldrb	r1, [r4, r3]
 8003df4:	3bea      	subs	r3, #234	; 0xea
 8003df6:	3bff      	subs	r3, #255	; 0xff
 8003df8:	400b      	ands	r3, r1
 8003dfa:	2b01      	cmp	r3, #1
 8003dfc:	d00f      	beq.n	8003e1e <USBD_LL_SetupStage+0x4e>
 8003dfe:	2b00      	cmp	r3, #0
 8003e00:	d007      	beq.n	8003e12 <USBD_LL_SetupStage+0x42>
 8003e02:	2b02      	cmp	r3, #2
 8003e04:	d010      	beq.n	8003e28 <USBD_LL_SetupStage+0x58>
  case USB_REQ_RECIPIENT_ENDPOINT:        
    USBD_StdEPReq(pdev, &pdev->request);   
    break;
    
  default:           
    USBD_LL_StallEP(pdev , pdev->request.bmRequest & 0x80);
 8003e06:	237f      	movs	r3, #127	; 0x7f
 8003e08:	4399      	bics	r1, r3
 8003e0a:	0020      	movs	r0, r4
 8003e0c:	f001 ff51 	bl	8005cb2 <USBD_LL_StallEP>
    break;
 8003e10:	e003      	b.n	8003e1a <USBD_LL_SetupStage+0x4a>
    USBD_StdDevReq (pdev, &pdev->request);
 8003e12:	0029      	movs	r1, r5
 8003e14:	0020      	movs	r0, r4
 8003e16:	f000 fab7 	bl	8004388 <USBD_StdDevReq>
  }  
  return USBD_OK;  
}
 8003e1a:	2000      	movs	r0, #0
 8003e1c:	bd70      	pop	{r4, r5, r6, pc}
    USBD_StdItfReq(pdev, &pdev->request);
 8003e1e:	0029      	movs	r1, r5
 8003e20:	0020      	movs	r0, r4
 8003e22:	f000 fad5 	bl	80043d0 <USBD_StdItfReq>
    break;
 8003e26:	e7f8      	b.n	8003e1a <USBD_LL_SetupStage+0x4a>
    USBD_StdEPReq(pdev, &pdev->request);   
 8003e28:	0029      	movs	r1, r5
 8003e2a:	0020      	movs	r0, r4
 8003e2c:	f000 faee 	bl	800440c <USBD_StdEPReq>
    break;
 8003e30:	e7f3      	b.n	8003e1a <USBD_LL_SetupStage+0x4a>
 8003e32:	46c0      	nop			; (mov r8, r8)
 8003e34:	0000020e 	.word	0x0000020e

08003e38 <USBD_LL_DataOutStage>:
* @param  pdev: device instance
* @param  epnum: endpoint index
* @retval status
*/
USBD_StatusTypeDef USBD_LL_DataOutStage(USBD_HandleTypeDef *pdev , uint8_t epnum, uint8_t *pdata)
{
 8003e38:	b510      	push	{r4, lr}
 8003e3a:	0004      	movs	r4, r0
 8003e3c:	0013      	movs	r3, r2
  USBD_EndpointTypeDef    *pep;
  
  if(epnum == 0) 
 8003e3e:	2900      	cmp	r1, #0
 8003e40:	d128      	bne.n	8003e94 <USBD_LL_DataOutStage+0x5c>
  {
    pep = &pdev->ep_out[0];
    
    if ( pdev->ep0_state == USBD_EP0_DATA_OUT)
 8003e42:	22fa      	movs	r2, #250	; 0xfa
 8003e44:	0052      	lsls	r2, r2, #1
 8003e46:	5882      	ldr	r2, [r0, r2]
 8003e48:	2a03      	cmp	r2, #3
 8003e4a:	d12e      	bne.n	8003eaa <USBD_LL_DataOutStage+0x72>
    {
      if(pep->rem_length > pep->maxpacket)
 8003e4c:	1d42      	adds	r2, r0, #5
 8003e4e:	32ff      	adds	r2, #255	; 0xff
 8003e50:	6891      	ldr	r1, [r2, #8]
 8003e52:	68d2      	ldr	r2, [r2, #12]
 8003e54:	4291      	cmp	r1, r2
 8003e56:	d80e      	bhi.n	8003e76 <USBD_LL_DataOutStage+0x3e>
                            pdata,
                            MIN(pep->rem_length ,pep->maxpacket));
      }
      else
      {
        if((pdev->pClass->EP0_RxReady != NULL)&&
 8003e58:	2385      	movs	r3, #133	; 0x85
 8003e5a:	009b      	lsls	r3, r3, #2
 8003e5c:	58c3      	ldr	r3, [r0, r3]
 8003e5e:	691b      	ldr	r3, [r3, #16]
 8003e60:	2b00      	cmp	r3, #0
 8003e62:	d004      	beq.n	8003e6e <USBD_LL_DataOutStage+0x36>
           (pdev->dev_state == USBD_STATE_CONFIGURED))
 8003e64:	22fe      	movs	r2, #254	; 0xfe
 8003e66:	0052      	lsls	r2, r2, #1
 8003e68:	5c82      	ldrb	r2, [r0, r2]
        if((pdev->pClass->EP0_RxReady != NULL)&&
 8003e6a:	2a03      	cmp	r2, #3
 8003e6c:	d010      	beq.n	8003e90 <USBD_LL_DataOutStage+0x58>
        {
          pdev->pClass->EP0_RxReady(pdev); 
        }
        USBD_CtlSendStatus(pdev);
 8003e6e:	0020      	movs	r0, r4
 8003e70:	f000 fbb4 	bl	80045dc <USBD_CtlSendStatus>
 8003e74:	e019      	b.n	8003eaa <USBD_LL_DataOutStage+0x72>
        pep->rem_length -=  pep->maxpacket;
 8003e76:	1a89      	subs	r1, r1, r2
 8003e78:	3005      	adds	r0, #5
 8003e7a:	30ff      	adds	r0, #255	; 0xff
 8003e7c:	6081      	str	r1, [r0, #8]
                            MIN(pep->rem_length ,pep->maxpacket));
 8003e7e:	428a      	cmp	r2, r1
 8003e80:	d900      	bls.n	8003e84 <USBD_LL_DataOutStage+0x4c>
 8003e82:	000a      	movs	r2, r1
        USBD_CtlContinueRx (pdev, 
 8003e84:	b292      	uxth	r2, r2
 8003e86:	0019      	movs	r1, r3
 8003e88:	0020      	movs	r0, r4
 8003e8a:	f000 fb9f 	bl	80045cc <USBD_CtlContinueRx>
 8003e8e:	e00c      	b.n	8003eaa <USBD_LL_DataOutStage+0x72>
          pdev->pClass->EP0_RxReady(pdev); 
 8003e90:	4798      	blx	r3
 8003e92:	e7ec      	b.n	8003e6e <USBD_LL_DataOutStage+0x36>
      }
    }
  }
  else if((pdev->pClass->DataOut != NULL)&&
 8003e94:	2385      	movs	r3, #133	; 0x85
 8003e96:	009b      	lsls	r3, r3, #2
 8003e98:	58c3      	ldr	r3, [r0, r3]
 8003e9a:	699b      	ldr	r3, [r3, #24]
 8003e9c:	2b00      	cmp	r3, #0
 8003e9e:	d004      	beq.n	8003eaa <USBD_LL_DataOutStage+0x72>
          (pdev->dev_state == USBD_STATE_CONFIGURED))
 8003ea0:	22fe      	movs	r2, #254	; 0xfe
 8003ea2:	0052      	lsls	r2, r2, #1
 8003ea4:	5c82      	ldrb	r2, [r0, r2]
  else if((pdev->pClass->DataOut != NULL)&&
 8003ea6:	2a03      	cmp	r2, #3
 8003ea8:	d001      	beq.n	8003eae <USBD_LL_DataOutStage+0x76>
  {
    pdev->pClass->DataOut(pdev, epnum); 
  }  
  return USBD_OK;
}
 8003eaa:	2000      	movs	r0, #0
 8003eac:	bd10      	pop	{r4, pc}
    pdev->pClass->DataOut(pdev, epnum); 
 8003eae:	4798      	blx	r3
 8003eb0:	e7fb      	b.n	8003eaa <USBD_LL_DataOutStage+0x72>

08003eb2 <USBD_LL_DataInStage>:
* @param  pdev: device instance
* @param  epnum: endpoint index
* @retval status
*/
USBD_StatusTypeDef USBD_LL_DataInStage(USBD_HandleTypeDef *pdev ,uint8_t epnum, uint8_t *pdata)
{
 8003eb2:	b570      	push	{r4, r5, r6, lr}
 8003eb4:	0004      	movs	r4, r0
 8003eb6:	0013      	movs	r3, r2
  USBD_EndpointTypeDef    *pep;
    
  if(epnum == 0) 
 8003eb8:	2900      	cmp	r1, #0
 8003eba:	d14f      	bne.n	8003f5c <USBD_LL_DataInStage+0xaa>
  {
    pep = &pdev->ep_in[0];
    
    if ( pdev->ep0_state == USBD_EP0_DATA_IN)
 8003ebc:	22fa      	movs	r2, #250	; 0xfa
 8003ebe:	0052      	lsls	r2, r2, #1
 8003ec0:	5882      	ldr	r2, [r0, r2]
 8003ec2:	2a02      	cmp	r2, #2
 8003ec4:	d006      	beq.n	8003ed4 <USBD_LL_DataInStage+0x22>
          }          
          USBD_CtlReceiveStatus(pdev);
        }
      }
    }
    if (pdev->dev_test_mode == 1)
 8003ec6:	2380      	movs	r3, #128	; 0x80
 8003ec8:	009b      	lsls	r3, r3, #2
 8003eca:	5ce3      	ldrb	r3, [r4, r3]
 8003ecc:	2b01      	cmp	r3, #1
 8003ece:	d040      	beq.n	8003f52 <USBD_LL_DataInStage+0xa0>
          (pdev->dev_state == USBD_STATE_CONFIGURED))
  {
    pdev->pClass->DataIn(pdev, epnum); 
  }  
  return USBD_OK;
}
 8003ed0:	2000      	movs	r0, #0
 8003ed2:	bd70      	pop	{r4, r5, r6, pc}
      if(pep->rem_length > pep->maxpacket)
 8003ed4:	69c2      	ldr	r2, [r0, #28]
 8003ed6:	6a05      	ldr	r5, [r0, #32]
 8003ed8:	42aa      	cmp	r2, r5
 8003eda:	d81c      	bhi.n	8003f16 <USBD_LL_DataInStage+0x64>
        if((pep->total_length % pep->maxpacket == 0) &&
 8003edc:	6986      	ldr	r6, [r0, #24]
 8003ede:	0029      	movs	r1, r5
 8003ee0:	0030      	movs	r0, r6
 8003ee2:	f7fc f9b5 	bl	8000250 <__aeabi_uidivmod>
 8003ee6:	2900      	cmp	r1, #0
 8003ee8:	d106      	bne.n	8003ef8 <USBD_LL_DataInStage+0x46>
 8003eea:	42b5      	cmp	r5, r6
 8003eec:	d804      	bhi.n	8003ef8 <USBD_LL_DataInStage+0x46>
             (pep->total_length < pdev->ep0_data_len ))
 8003eee:	23fc      	movs	r3, #252	; 0xfc
 8003ef0:	005b      	lsls	r3, r3, #1
 8003ef2:	58e3      	ldr	r3, [r4, r3]
           (pep->total_length >= pep->maxpacket) &&
 8003ef4:	429e      	cmp	r6, r3
 8003ef6:	d31b      	bcc.n	8003f30 <USBD_LL_DataInStage+0x7e>
          if((pdev->pClass->EP0_TxSent != NULL)&&
 8003ef8:	2385      	movs	r3, #133	; 0x85
 8003efa:	009b      	lsls	r3, r3, #2
 8003efc:	58e3      	ldr	r3, [r4, r3]
 8003efe:	68db      	ldr	r3, [r3, #12]
 8003f00:	2b00      	cmp	r3, #0
 8003f02:	d004      	beq.n	8003f0e <USBD_LL_DataInStage+0x5c>
             (pdev->dev_state == USBD_STATE_CONFIGURED))
 8003f04:	22fe      	movs	r2, #254	; 0xfe
 8003f06:	0052      	lsls	r2, r2, #1
 8003f08:	5ca2      	ldrb	r2, [r4, r2]
          if((pdev->pClass->EP0_TxSent != NULL)&&
 8003f0a:	2a03      	cmp	r2, #3
 8003f0c:	d01e      	beq.n	8003f4c <USBD_LL_DataInStage+0x9a>
          USBD_CtlReceiveStatus(pdev);
 8003f0e:	0020      	movs	r0, r4
 8003f10:	f000 fb70 	bl	80045f4 <USBD_CtlReceiveStatus>
 8003f14:	e7d7      	b.n	8003ec6 <USBD_LL_DataInStage+0x14>
        pep->rem_length -=  pep->maxpacket;
 8003f16:	1b52      	subs	r2, r2, r5
 8003f18:	61c2      	str	r2, [r0, #28]
        USBD_CtlContinueSendData (pdev, 
 8003f1a:	b292      	uxth	r2, r2
 8003f1c:	0019      	movs	r1, r3
 8003f1e:	f000 fb3d 	bl	800459c <USBD_CtlContinueSendData>
        USBD_LL_PrepareReceive (pdev,
 8003f22:	2300      	movs	r3, #0
 8003f24:	2200      	movs	r2, #0
 8003f26:	2100      	movs	r1, #0
 8003f28:	0020      	movs	r0, r4
 8003f2a:	f001 ff1c 	bl	8005d66 <USBD_LL_PrepareReceive>
 8003f2e:	e7ca      	b.n	8003ec6 <USBD_LL_DataInStage+0x14>
          USBD_CtlContinueSendData(pdev , NULL, 0);
 8003f30:	2200      	movs	r2, #0
 8003f32:	0020      	movs	r0, r4
 8003f34:	f000 fb32 	bl	800459c <USBD_CtlContinueSendData>
          pdev->ep0_data_len = 0;
 8003f38:	2200      	movs	r2, #0
 8003f3a:	23fc      	movs	r3, #252	; 0xfc
 8003f3c:	005b      	lsls	r3, r3, #1
 8003f3e:	50e2      	str	r2, [r4, r3]
        USBD_LL_PrepareReceive (pdev,
 8003f40:	2300      	movs	r3, #0
 8003f42:	2100      	movs	r1, #0
 8003f44:	0020      	movs	r0, r4
 8003f46:	f001 ff0e 	bl	8005d66 <USBD_LL_PrepareReceive>
 8003f4a:	e7bc      	b.n	8003ec6 <USBD_LL_DataInStage+0x14>
            pdev->pClass->EP0_TxSent(pdev); 
 8003f4c:	0020      	movs	r0, r4
 8003f4e:	4798      	blx	r3
 8003f50:	e7dd      	b.n	8003f0e <USBD_LL_DataInStage+0x5c>
      pdev->dev_test_mode = 0;
 8003f52:	2200      	movs	r2, #0
 8003f54:	2380      	movs	r3, #128	; 0x80
 8003f56:	009b      	lsls	r3, r3, #2
 8003f58:	54e2      	strb	r2, [r4, r3]
 8003f5a:	e7b9      	b.n	8003ed0 <USBD_LL_DataInStage+0x1e>
  else if((pdev->pClass->DataIn != NULL)&& 
 8003f5c:	2385      	movs	r3, #133	; 0x85
 8003f5e:	009b      	lsls	r3, r3, #2
 8003f60:	58c3      	ldr	r3, [r0, r3]
 8003f62:	695b      	ldr	r3, [r3, #20]
 8003f64:	2b00      	cmp	r3, #0
 8003f66:	d0b3      	beq.n	8003ed0 <USBD_LL_DataInStage+0x1e>
          (pdev->dev_state == USBD_STATE_CONFIGURED))
 8003f68:	22fe      	movs	r2, #254	; 0xfe
 8003f6a:	0052      	lsls	r2, r2, #1
 8003f6c:	5c82      	ldrb	r2, [r0, r2]
  else if((pdev->pClass->DataIn != NULL)&& 
 8003f6e:	2a03      	cmp	r2, #3
 8003f70:	d1ae      	bne.n	8003ed0 <USBD_LL_DataInStage+0x1e>
    pdev->pClass->DataIn(pdev, epnum); 
 8003f72:	4798      	blx	r3
 8003f74:	e7ac      	b.n	8003ed0 <USBD_LL_DataInStage+0x1e>

08003f76 <USBD_LL_Reset>:
* @param  pdev: device instance
* @retval status
*/

USBD_StatusTypeDef USBD_LL_Reset(USBD_HandleTypeDef  *pdev)
{
 8003f76:	b570      	push	{r4, r5, r6, lr}
 8003f78:	0004      	movs	r4, r0
  /* Open EP0 OUT */
  USBD_LL_OpenEP(pdev,
 8003f7a:	2340      	movs	r3, #64	; 0x40
 8003f7c:	2200      	movs	r2, #0
 8003f7e:	2100      	movs	r1, #0
 8003f80:	f001 fe74 	bl	8005c6c <USBD_LL_OpenEP>
              0x00,
              USBD_EP_TYPE_CTRL,
              USB_MAX_EP0_SIZE);
  
  pdev->ep_out[0].maxpacket = USB_MAX_EP0_SIZE;
 8003f84:	2540      	movs	r5, #64	; 0x40
 8003f86:	2388      	movs	r3, #136	; 0x88
 8003f88:	005b      	lsls	r3, r3, #1
 8003f8a:	50e5      	str	r5, [r4, r3]
  
  /* Open EP0 IN */
  USBD_LL_OpenEP(pdev,
 8003f8c:	3bd0      	subs	r3, #208	; 0xd0
 8003f8e:	2200      	movs	r2, #0
 8003f90:	2180      	movs	r1, #128	; 0x80
 8003f92:	0020      	movs	r0, r4
 8003f94:	f001 fe6a 	bl	8005c6c <USBD_LL_OpenEP>
              0x80,
              USBD_EP_TYPE_CTRL,
              USB_MAX_EP0_SIZE);
  
  pdev->ep_in[0].maxpacket = USB_MAX_EP0_SIZE;
 8003f98:	6225      	str	r5, [r4, #32]
  /* Upon Reset call user call back */
  pdev->dev_state = USBD_STATE_DEFAULT;
 8003f9a:	2201      	movs	r2, #1
 8003f9c:	23fe      	movs	r3, #254	; 0xfe
 8003f9e:	005b      	lsls	r3, r3, #1
 8003fa0:	54e2      	strb	r2, [r4, r3]
  
  if (pdev->pClassData) 
 8003fa2:	331c      	adds	r3, #28
 8003fa4:	58e3      	ldr	r3, [r4, r3]
 8003fa6:	2b00      	cmp	r3, #0
 8003fa8:	d006      	beq.n	8003fb8 <USBD_LL_Reset+0x42>
    pdev->pClass->DeInit(pdev, pdev->dev_config);  
 8003faa:	2385      	movs	r3, #133	; 0x85
 8003fac:	009b      	lsls	r3, r3, #2
 8003fae:	58e3      	ldr	r3, [r4, r3]
 8003fb0:	685b      	ldr	r3, [r3, #4]
 8003fb2:	7921      	ldrb	r1, [r4, #4]
 8003fb4:	0020      	movs	r0, r4
 8003fb6:	4798      	blx	r3
 
  
  return USBD_OK;
}
 8003fb8:	2000      	movs	r0, #0
 8003fba:	bd70      	pop	{r4, r5, r6, pc}

08003fbc <USBD_LL_SetSpeed>:
* @param  pdev: device instance
* @retval status
*/
USBD_StatusTypeDef USBD_LL_SetSpeed(USBD_HandleTypeDef  *pdev, USBD_SpeedTypeDef speed)
{
  pdev->dev_speed = speed;
 8003fbc:	7401      	strb	r1, [r0, #16]
  return USBD_OK;
}
 8003fbe:	2000      	movs	r0, #0
 8003fc0:	4770      	bx	lr

08003fc2 <USBD_LL_Suspend>:
* @retval status
*/

USBD_StatusTypeDef USBD_LL_Suspend(USBD_HandleTypeDef  *pdev)
{
  pdev->dev_old_state =  pdev->dev_state;
 8003fc2:	23fe      	movs	r3, #254	; 0xfe
 8003fc4:	005b      	lsls	r3, r3, #1
 8003fc6:	5cc1      	ldrb	r1, [r0, r3]
 8003fc8:	22fe      	movs	r2, #254	; 0xfe
 8003fca:	32ff      	adds	r2, #255	; 0xff
 8003fcc:	5481      	strb	r1, [r0, r2]
  pdev->dev_state  = USBD_STATE_SUSPENDED;
 8003fce:	3afa      	subs	r2, #250	; 0xfa
 8003fd0:	3aff      	subs	r2, #255	; 0xff
 8003fd2:	54c2      	strb	r2, [r0, r3]
  return USBD_OK;
}
 8003fd4:	2000      	movs	r0, #0
 8003fd6:	4770      	bx	lr

08003fd8 <USBD_LL_Resume>:
* @retval status
*/

USBD_StatusTypeDef USBD_LL_Resume(USBD_HandleTypeDef  *pdev)
{
  pdev->dev_state = pdev->dev_old_state;  
 8003fd8:	23fe      	movs	r3, #254	; 0xfe
 8003fda:	33ff      	adds	r3, #255	; 0xff
 8003fdc:	5cc2      	ldrb	r2, [r0, r3]
 8003fde:	3b01      	subs	r3, #1
 8003fe0:	54c2      	strb	r2, [r0, r3]
  return USBD_OK;
}
 8003fe2:	2000      	movs	r0, #0
 8003fe4:	4770      	bx	lr

08003fe6 <USBD_LL_SOF>:
* @param  pdev: device instance
* @retval status
*/

USBD_StatusTypeDef USBD_LL_SOF(USBD_HandleTypeDef  *pdev)
{
 8003fe6:	b510      	push	{r4, lr}
  if(pdev->dev_state == USBD_STATE_CONFIGURED)
 8003fe8:	23fe      	movs	r3, #254	; 0xfe
 8003fea:	005b      	lsls	r3, r3, #1
 8003fec:	5cc3      	ldrb	r3, [r0, r3]
 8003fee:	2b03      	cmp	r3, #3
 8003ff0:	d001      	beq.n	8003ff6 <USBD_LL_SOF+0x10>
    {
      pdev->pClass->SOF(pdev);
    }
  }
  return USBD_OK;
}
 8003ff2:	2000      	movs	r0, #0
 8003ff4:	bd10      	pop	{r4, pc}
    if(pdev->pClass->SOF != NULL)
 8003ff6:	2385      	movs	r3, #133	; 0x85
 8003ff8:	009b      	lsls	r3, r3, #2
 8003ffa:	58c3      	ldr	r3, [r0, r3]
 8003ffc:	69db      	ldr	r3, [r3, #28]
 8003ffe:	2b00      	cmp	r3, #0
 8004000:	d0f7      	beq.n	8003ff2 <USBD_LL_SOF+0xc>
      pdev->pClass->SOF(pdev);
 8004002:	4798      	blx	r3
 8004004:	e7f5      	b.n	8003ff2 <USBD_LL_SOF+0xc>

08004006 <USBD_GetLen>:
  *         return the string length
   * @param  buf : pointer to the ascii string buffer
  * @retval string length
  */
static uint8_t USBD_GetLen(uint8_t *buf)
{
 8004006:	0003      	movs	r3, r0
    uint8_t  len = 0;
 8004008:	2000      	movs	r0, #0

    while (*buf != '\0') 
 800400a:	e002      	b.n	8004012 <USBD_GetLen+0xc>
    {
        len++;
 800400c:	3001      	adds	r0, #1
 800400e:	b2c0      	uxtb	r0, r0
        buf++;
 8004010:	3301      	adds	r3, #1
    while (*buf != '\0') 
 8004012:	781a      	ldrb	r2, [r3, #0]
 8004014:	2a00      	cmp	r2, #0
 8004016:	d1f9      	bne.n	800400c <USBD_GetLen+0x6>
    }

    return len;
}
 8004018:	4770      	bx	lr

0800401a <USBD_SetFeature>:
{
 800401a:	b510      	push	{r4, lr}
 800401c:	0004      	movs	r4, r0
  if (req->wValue == USB_FEATURE_REMOTE_WAKEUP)
 800401e:	884b      	ldrh	r3, [r1, #2]
 8004020:	2b01      	cmp	r3, #1
 8004022:	d000      	beq.n	8004026 <USBD_SetFeature+0xc>
}
 8004024:	bd10      	pop	{r4, pc}
    pdev->dev_remote_wakeup = 1;  
 8004026:	2201      	movs	r2, #1
 8004028:	2381      	movs	r3, #129	; 0x81
 800402a:	009b      	lsls	r3, r3, #2
 800402c:	50c2      	str	r2, [r0, r3]
    pdev->pClass->Setup (pdev, req);   
 800402e:	3310      	adds	r3, #16
 8004030:	58c3      	ldr	r3, [r0, r3]
 8004032:	689b      	ldr	r3, [r3, #8]
 8004034:	4798      	blx	r3
    USBD_CtlSendStatus(pdev);
 8004036:	0020      	movs	r0, r4
 8004038:	f000 fad0 	bl	80045dc <USBD_CtlSendStatus>
}
 800403c:	e7f2      	b.n	8004024 <USBD_SetFeature+0xa>

0800403e <USBD_ParseSetupRequest>:
  req->bmRequest     = *(uint8_t *)  (pdata);
 800403e:	780b      	ldrb	r3, [r1, #0]
 8004040:	7003      	strb	r3, [r0, #0]
  req->bRequest      = *(uint8_t *)  (pdata +  1);
 8004042:	784b      	ldrb	r3, [r1, #1]
 8004044:	7043      	strb	r3, [r0, #1]
  req->wValue        = SWAPBYTE      (pdata +  2);
 8004046:	788b      	ldrb	r3, [r1, #2]
 8004048:	78ca      	ldrb	r2, [r1, #3]
 800404a:	0212      	lsls	r2, r2, #8
 800404c:	189b      	adds	r3, r3, r2
 800404e:	8043      	strh	r3, [r0, #2]
  req->wIndex        = SWAPBYTE      (pdata +  4);
 8004050:	790b      	ldrb	r3, [r1, #4]
 8004052:	794a      	ldrb	r2, [r1, #5]
 8004054:	0212      	lsls	r2, r2, #8
 8004056:	189b      	adds	r3, r3, r2
 8004058:	8083      	strh	r3, [r0, #4]
  req->wLength       = SWAPBYTE      (pdata +  6);
 800405a:	798b      	ldrb	r3, [r1, #6]
 800405c:	79ca      	ldrb	r2, [r1, #7]
 800405e:	0212      	lsls	r2, r2, #8
 8004060:	189b      	adds	r3, r3, r2
 8004062:	80c3      	strh	r3, [r0, #6]
}
 8004064:	4770      	bx	lr

08004066 <USBD_CtlError>:
{
 8004066:	b510      	push	{r4, lr}
 8004068:	0004      	movs	r4, r0
  USBD_LL_StallEP(pdev , 0x80);
 800406a:	2180      	movs	r1, #128	; 0x80
 800406c:	f001 fe21 	bl	8005cb2 <USBD_LL_StallEP>
  USBD_LL_StallEP(pdev , 0);
 8004070:	2100      	movs	r1, #0
 8004072:	0020      	movs	r0, r4
 8004074:	f001 fe1d 	bl	8005cb2 <USBD_LL_StallEP>
}
 8004078:	bd10      	pop	{r4, pc}
	...

0800407c <USBD_GetDescriptor>:
{
 800407c:	b530      	push	{r4, r5, lr}
 800407e:	b083      	sub	sp, #12
 8004080:	0004      	movs	r4, r0
 8004082:	000d      	movs	r5, r1
  switch (req->wValue >> 8)
 8004084:	884a      	ldrh	r2, [r1, #2]
 8004086:	0a13      	lsrs	r3, r2, #8
 8004088:	2b07      	cmp	r3, #7
 800408a:	d900      	bls.n	800408e <USBD_GetDescriptor+0x12>
 800408c:	e08e      	b.n	80041ac <USBD_GetDescriptor+0x130>
 800408e:	009b      	lsls	r3, r3, #2
 8004090:	494f      	ldr	r1, [pc, #316]	; (80041d0 <USBD_GetDescriptor+0x154>)
 8004092:	58cb      	ldr	r3, [r1, r3]
 8004094:	469f      	mov	pc, r3
    pbuf = pdev->pDesc->GetDeviceDescriptor(pdev->dev_speed, &len);
 8004096:	2384      	movs	r3, #132	; 0x84
 8004098:	009b      	lsls	r3, r3, #2
 800409a:	58c3      	ldr	r3, [r0, r3]
 800409c:	681b      	ldr	r3, [r3, #0]
 800409e:	7c00      	ldrb	r0, [r0, #16]
 80040a0:	466a      	mov	r2, sp
 80040a2:	1d91      	adds	r1, r2, #6
 80040a4:	4798      	blx	r3
  if((len != 0)&& (req->wLength != 0))
 80040a6:	466b      	mov	r3, sp
 80040a8:	3306      	adds	r3, #6
 80040aa:	881b      	ldrh	r3, [r3, #0]
 80040ac:	2b00      	cmp	r3, #0
 80040ae:	d003      	beq.n	80040b8 <USBD_GetDescriptor+0x3c>
 80040b0:	88ea      	ldrh	r2, [r5, #6]
 80040b2:	2a00      	cmp	r2, #0
 80040b4:	d000      	beq.n	80040b8 <USBD_GetDescriptor+0x3c>
 80040b6:	e07e      	b.n	80041b6 <USBD_GetDescriptor+0x13a>
}
 80040b8:	b003      	add	sp, #12
 80040ba:	bd30      	pop	{r4, r5, pc}
    if(pdev->dev_speed == USBD_SPEED_HIGH )   
 80040bc:	7c03      	ldrb	r3, [r0, #16]
 80040be:	2b00      	cmp	r3, #0
 80040c0:	d109      	bne.n	80040d6 <USBD_GetDescriptor+0x5a>
      pbuf   = (uint8_t *)pdev->pClass->GetHSConfigDescriptor(&len);
 80040c2:	2385      	movs	r3, #133	; 0x85
 80040c4:	009b      	lsls	r3, r3, #2
 80040c6:	58c3      	ldr	r3, [r0, r3]
 80040c8:	6a9b      	ldr	r3, [r3, #40]	; 0x28
 80040ca:	466a      	mov	r2, sp
 80040cc:	1d90      	adds	r0, r2, #6
 80040ce:	4798      	blx	r3
      pbuf[1] = USB_DESC_TYPE_CONFIGURATION;
 80040d0:	2302      	movs	r3, #2
 80040d2:	7043      	strb	r3, [r0, #1]
 80040d4:	e7e7      	b.n	80040a6 <USBD_GetDescriptor+0x2a>
      pbuf   = (uint8_t *)pdev->pClass->GetFSConfigDescriptor(&len);
 80040d6:	2385      	movs	r3, #133	; 0x85
 80040d8:	009b      	lsls	r3, r3, #2
 80040da:	58c3      	ldr	r3, [r0, r3]
 80040dc:	6adb      	ldr	r3, [r3, #44]	; 0x2c
 80040de:	466a      	mov	r2, sp
 80040e0:	1d90      	adds	r0, r2, #6
 80040e2:	4798      	blx	r3
      pbuf[1] = USB_DESC_TYPE_CONFIGURATION;
 80040e4:	2302      	movs	r3, #2
 80040e6:	7043      	strb	r3, [r0, #1]
 80040e8:	e7dd      	b.n	80040a6 <USBD_GetDescriptor+0x2a>
    switch ((uint8_t)(req->wValue))
 80040ea:	b2d2      	uxtb	r2, r2
 80040ec:	2a05      	cmp	r2, #5
 80040ee:	d839      	bhi.n	8004164 <USBD_GetDescriptor+0xe8>
 80040f0:	0092      	lsls	r2, r2, #2
 80040f2:	4b38      	ldr	r3, [pc, #224]	; (80041d4 <USBD_GetDescriptor+0x158>)
 80040f4:	589b      	ldr	r3, [r3, r2]
 80040f6:	469f      	mov	pc, r3
     pbuf = pdev->pDesc->GetLangIDStrDescriptor(pdev->dev_speed, &len);        
 80040f8:	2384      	movs	r3, #132	; 0x84
 80040fa:	009b      	lsls	r3, r3, #2
 80040fc:	58c3      	ldr	r3, [r0, r3]
 80040fe:	685b      	ldr	r3, [r3, #4]
 8004100:	7c00      	ldrb	r0, [r0, #16]
 8004102:	466a      	mov	r2, sp
 8004104:	1d91      	adds	r1, r2, #6
 8004106:	4798      	blx	r3
      break;
 8004108:	e7cd      	b.n	80040a6 <USBD_GetDescriptor+0x2a>
      pbuf = pdev->pDesc->GetManufacturerStrDescriptor(pdev->dev_speed, &len);
 800410a:	2384      	movs	r3, #132	; 0x84
 800410c:	009b      	lsls	r3, r3, #2
 800410e:	58c3      	ldr	r3, [r0, r3]
 8004110:	689b      	ldr	r3, [r3, #8]
 8004112:	7c00      	ldrb	r0, [r0, #16]
 8004114:	466a      	mov	r2, sp
 8004116:	1d91      	adds	r1, r2, #6
 8004118:	4798      	blx	r3
      break;
 800411a:	e7c4      	b.n	80040a6 <USBD_GetDescriptor+0x2a>
      pbuf = pdev->pDesc->GetProductStrDescriptor(pdev->dev_speed, &len);
 800411c:	2384      	movs	r3, #132	; 0x84
 800411e:	009b      	lsls	r3, r3, #2
 8004120:	58c3      	ldr	r3, [r0, r3]
 8004122:	68db      	ldr	r3, [r3, #12]
 8004124:	7c00      	ldrb	r0, [r0, #16]
 8004126:	466a      	mov	r2, sp
 8004128:	1d91      	adds	r1, r2, #6
 800412a:	4798      	blx	r3
      break;
 800412c:	e7bb      	b.n	80040a6 <USBD_GetDescriptor+0x2a>
      pbuf = pdev->pDesc->GetSerialStrDescriptor(pdev->dev_speed, &len);
 800412e:	2384      	movs	r3, #132	; 0x84
 8004130:	009b      	lsls	r3, r3, #2
 8004132:	58c3      	ldr	r3, [r0, r3]
 8004134:	691b      	ldr	r3, [r3, #16]
 8004136:	7c00      	ldrb	r0, [r0, #16]
 8004138:	466a      	mov	r2, sp
 800413a:	1d91      	adds	r1, r2, #6
 800413c:	4798      	blx	r3
      break;
 800413e:	e7b2      	b.n	80040a6 <USBD_GetDescriptor+0x2a>
      pbuf = pdev->pDesc->GetConfigurationStrDescriptor(pdev->dev_speed, &len);
 8004140:	2384      	movs	r3, #132	; 0x84
 8004142:	009b      	lsls	r3, r3, #2
 8004144:	58c3      	ldr	r3, [r0, r3]
 8004146:	695b      	ldr	r3, [r3, #20]
 8004148:	7c00      	ldrb	r0, [r0, #16]
 800414a:	466a      	mov	r2, sp
 800414c:	1d91      	adds	r1, r2, #6
 800414e:	4798      	blx	r3
      break;
 8004150:	e7a9      	b.n	80040a6 <USBD_GetDescriptor+0x2a>
      pbuf = pdev->pDesc->GetInterfaceStrDescriptor(pdev->dev_speed, &len);
 8004152:	2384      	movs	r3, #132	; 0x84
 8004154:	009b      	lsls	r3, r3, #2
 8004156:	58c3      	ldr	r3, [r0, r3]
 8004158:	699b      	ldr	r3, [r3, #24]
 800415a:	7c00      	ldrb	r0, [r0, #16]
 800415c:	466a      	mov	r2, sp
 800415e:	1d91      	adds	r1, r2, #6
 8004160:	4798      	blx	r3
      break;
 8004162:	e7a0      	b.n	80040a6 <USBD_GetDescriptor+0x2a>
       USBD_CtlError(pdev , req);
 8004164:	0029      	movs	r1, r5
 8004166:	f7ff ff7e 	bl	8004066 <USBD_CtlError>
      return;
 800416a:	e7a5      	b.n	80040b8 <USBD_GetDescriptor+0x3c>
    if(pdev->dev_speed == USBD_SPEED_HIGH  )   
 800416c:	7c03      	ldrb	r3, [r0, #16]
 800416e:	2b00      	cmp	r3, #0
 8004170:	d107      	bne.n	8004182 <USBD_GetDescriptor+0x106>
      pbuf   = (uint8_t *)pdev->pClass->GetDeviceQualifierDescriptor(&len);
 8004172:	2385      	movs	r3, #133	; 0x85
 8004174:	009b      	lsls	r3, r3, #2
 8004176:	58c3      	ldr	r3, [r0, r3]
 8004178:	6b5b      	ldr	r3, [r3, #52]	; 0x34
 800417a:	466a      	mov	r2, sp
 800417c:	1d90      	adds	r0, r2, #6
 800417e:	4798      	blx	r3
      break;
 8004180:	e791      	b.n	80040a6 <USBD_GetDescriptor+0x2a>
      USBD_CtlError(pdev , req);
 8004182:	0029      	movs	r1, r5
 8004184:	f7ff ff6f 	bl	8004066 <USBD_CtlError>
      return;
 8004188:	e796      	b.n	80040b8 <USBD_GetDescriptor+0x3c>
    if(pdev->dev_speed == USBD_SPEED_HIGH  )   
 800418a:	7c03      	ldrb	r3, [r0, #16]
 800418c:	2b00      	cmp	r3, #0
 800418e:	d109      	bne.n	80041a4 <USBD_GetDescriptor+0x128>
      pbuf   = (uint8_t *)pdev->pClass->GetOtherSpeedConfigDescriptor(&len);
 8004190:	2385      	movs	r3, #133	; 0x85
 8004192:	009b      	lsls	r3, r3, #2
 8004194:	58c3      	ldr	r3, [r0, r3]
 8004196:	6b1b      	ldr	r3, [r3, #48]	; 0x30
 8004198:	466a      	mov	r2, sp
 800419a:	1d90      	adds	r0, r2, #6
 800419c:	4798      	blx	r3
      pbuf[1] = USB_DESC_TYPE_OTHER_SPEED_CONFIGURATION;
 800419e:	2307      	movs	r3, #7
 80041a0:	7043      	strb	r3, [r0, #1]
      break; 
 80041a2:	e780      	b.n	80040a6 <USBD_GetDescriptor+0x2a>
      USBD_CtlError(pdev , req);
 80041a4:	0029      	movs	r1, r5
 80041a6:	f7ff ff5e 	bl	8004066 <USBD_CtlError>
      return;
 80041aa:	e785      	b.n	80040b8 <USBD_GetDescriptor+0x3c>
     USBD_CtlError(pdev , req);
 80041ac:	0029      	movs	r1, r5
 80041ae:	0020      	movs	r0, r4
 80041b0:	f7ff ff59 	bl	8004066 <USBD_CtlError>
    return;
 80041b4:	e780      	b.n	80040b8 <USBD_GetDescriptor+0x3c>
    len = MIN(len , req->wLength);
 80041b6:	1c19      	adds	r1, r3, #0
 80041b8:	4293      	cmp	r3, r2
 80041ba:	d900      	bls.n	80041be <USBD_GetDescriptor+0x142>
 80041bc:	1c11      	adds	r1, r2, #0
 80041be:	b28a      	uxth	r2, r1
 80041c0:	466b      	mov	r3, sp
 80041c2:	80d9      	strh	r1, [r3, #6]
    USBD_CtlSendData (pdev, 
 80041c4:	0001      	movs	r1, r0
 80041c6:	0020      	movs	r0, r4
 80041c8:	f000 f9da 	bl	8004580 <USBD_CtlSendData>
 80041cc:	e774      	b.n	80040b8 <USBD_GetDescriptor+0x3c>
 80041ce:	46c0      	nop			; (mov r8, r8)
 80041d0:	08005f90 	.word	0x08005f90
 80041d4:	08005fb0 	.word	0x08005fb0

080041d8 <USBD_SetAddress>:
{
 80041d8:	b570      	push	{r4, r5, r6, lr}
 80041da:	0004      	movs	r4, r0
  if ((req->wIndex == 0) && (req->wLength == 0)) 
 80041dc:	888b      	ldrh	r3, [r1, #4]
 80041de:	2b00      	cmp	r3, #0
 80041e0:	d122      	bne.n	8004228 <USBD_SetAddress+0x50>
 80041e2:	88cb      	ldrh	r3, [r1, #6]
 80041e4:	2b00      	cmp	r3, #0
 80041e6:	d11f      	bne.n	8004228 <USBD_SetAddress+0x50>
    dev_addr = (uint8_t)(req->wValue) & 0x7F;     
 80041e8:	788b      	ldrb	r3, [r1, #2]
 80041ea:	257f      	movs	r5, #127	; 0x7f
 80041ec:	401d      	ands	r5, r3
    if (pdev->dev_state == USBD_STATE_CONFIGURED) 
 80041ee:	23fe      	movs	r3, #254	; 0xfe
 80041f0:	005b      	lsls	r3, r3, #1
 80041f2:	5cc3      	ldrb	r3, [r0, r3]
 80041f4:	2b03      	cmp	r3, #3
 80041f6:	d00f      	beq.n	8004218 <USBD_SetAddress+0x40>
      pdev->dev_address = dev_addr;
 80041f8:	23ff      	movs	r3, #255	; 0xff
 80041fa:	005b      	lsls	r3, r3, #1
 80041fc:	54c5      	strb	r5, [r0, r3]
      USBD_LL_SetUSBAddress(pdev, dev_addr);               
 80041fe:	0029      	movs	r1, r5
 8004200:	f001 fd91 	bl	8005d26 <USBD_LL_SetUSBAddress>
      USBD_CtlSendStatus(pdev);                         
 8004204:	0020      	movs	r0, r4
 8004206:	f000 f9e9 	bl	80045dc <USBD_CtlSendStatus>
      if (dev_addr != 0) 
 800420a:	2d00      	cmp	r5, #0
 800420c:	d007      	beq.n	800421e <USBD_SetAddress+0x46>
        pdev->dev_state  = USBD_STATE_ADDRESSED;
 800420e:	2202      	movs	r2, #2
 8004210:	23fe      	movs	r3, #254	; 0xfe
 8004212:	005b      	lsls	r3, r3, #1
 8004214:	54e2      	strb	r2, [r4, r3]
 8004216:	e00a      	b.n	800422e <USBD_SetAddress+0x56>
      USBD_CtlError(pdev , req);
 8004218:	f7ff ff25 	bl	8004066 <USBD_CtlError>
 800421c:	e007      	b.n	800422e <USBD_SetAddress+0x56>
        pdev->dev_state  = USBD_STATE_DEFAULT; 
 800421e:	2201      	movs	r2, #1
 8004220:	23fe      	movs	r3, #254	; 0xfe
 8004222:	005b      	lsls	r3, r3, #1
 8004224:	54e2      	strb	r2, [r4, r3]
 8004226:	e002      	b.n	800422e <USBD_SetAddress+0x56>
     USBD_CtlError(pdev , req);                        
 8004228:	0020      	movs	r0, r4
 800422a:	f7ff ff1c 	bl	8004066 <USBD_CtlError>
}
 800422e:	bd70      	pop	{r4, r5, r6, pc}

08004230 <USBD_SetConfig>:
{
 8004230:	b570      	push	{r4, r5, r6, lr}
 8004232:	0004      	movs	r4, r0
 8004234:	000d      	movs	r5, r1
  cfgidx = (uint8_t)(req->wValue);                 
 8004236:	7889      	ldrb	r1, [r1, #2]
 8004238:	4b28      	ldr	r3, [pc, #160]	; (80042dc <USBD_SetConfig+0xac>)
 800423a:	7019      	strb	r1, [r3, #0]
  if (cfgidx > USBD_MAX_NUM_CONFIGURATION ) 
 800423c:	2901      	cmp	r1, #1
 800423e:	d80a      	bhi.n	8004256 <USBD_SetConfig+0x26>
    switch (pdev->dev_state) 
 8004240:	23fe      	movs	r3, #254	; 0xfe
 8004242:	005b      	lsls	r3, r3, #1
 8004244:	5cc3      	ldrb	r3, [r0, r3]
 8004246:	2b02      	cmp	r3, #2
 8004248:	d009      	beq.n	800425e <USBD_SetConfig+0x2e>
 800424a:	2b03      	cmp	r3, #3
 800424c:	d01e      	beq.n	800428c <USBD_SetConfig+0x5c>
       USBD_CtlError(pdev , req);                     
 800424e:	0029      	movs	r1, r5
 8004250:	f7ff ff09 	bl	8004066 <USBD_CtlError>
      break;
 8004254:	e002      	b.n	800425c <USBD_SetConfig+0x2c>
     USBD_CtlError(pdev , req);                              
 8004256:	0029      	movs	r1, r5
 8004258:	f7ff ff05 	bl	8004066 <USBD_CtlError>
}
 800425c:	bd70      	pop	{r4, r5, r6, pc}
      if (cfgidx) 
 800425e:	2900      	cmp	r1, #0
 8004260:	d011      	beq.n	8004286 <USBD_SetConfig+0x56>
        pdev->dev_config = cfgidx;
 8004262:	6041      	str	r1, [r0, #4]
        pdev->dev_state = USBD_STATE_CONFIGURED;
 8004264:	2203      	movs	r2, #3
 8004266:	23fe      	movs	r3, #254	; 0xfe
 8004268:	005b      	lsls	r3, r3, #1
 800426a:	54c2      	strb	r2, [r0, r3]
        if(USBD_SetClassConfig(pdev , cfgidx) == USBD_FAIL)
 800426c:	f7ff fd98 	bl	8003da0 <USBD_SetClassConfig>
 8004270:	2802      	cmp	r0, #2
 8004272:	d003      	beq.n	800427c <USBD_SetConfig+0x4c>
        USBD_CtlSendStatus(pdev);
 8004274:	0020      	movs	r0, r4
 8004276:	f000 f9b1 	bl	80045dc <USBD_CtlSendStatus>
 800427a:	e7ef      	b.n	800425c <USBD_SetConfig+0x2c>
          USBD_CtlError(pdev , req);  
 800427c:	0029      	movs	r1, r5
 800427e:	0020      	movs	r0, r4
 8004280:	f7ff fef1 	bl	8004066 <USBD_CtlError>
          return;
 8004284:	e7ea      	b.n	800425c <USBD_SetConfig+0x2c>
         USBD_CtlSendStatus(pdev);
 8004286:	f000 f9a9 	bl	80045dc <USBD_CtlSendStatus>
 800428a:	e7e7      	b.n	800425c <USBD_SetConfig+0x2c>
      if (cfgidx == 0) 
 800428c:	2900      	cmp	r1, #0
 800428e:	d011      	beq.n	80042b4 <USBD_SetConfig+0x84>
      else  if (cfgidx != pdev->dev_config) 
 8004290:	6843      	ldr	r3, [r0, #4]
 8004292:	4299      	cmp	r1, r3
 8004294:	d01e      	beq.n	80042d4 <USBD_SetConfig+0xa4>
        USBD_ClrClassConfig(pdev , pdev->dev_config);
 8004296:	b2d9      	uxtb	r1, r3
 8004298:	f7ff fd92 	bl	8003dc0 <USBD_ClrClassConfig>
        pdev->dev_config = cfgidx;
 800429c:	4b0f      	ldr	r3, [pc, #60]	; (80042dc <USBD_SetConfig+0xac>)
 800429e:	7819      	ldrb	r1, [r3, #0]
 80042a0:	6061      	str	r1, [r4, #4]
        if(USBD_SetClassConfig(pdev , cfgidx) == USBD_FAIL)
 80042a2:	0020      	movs	r0, r4
 80042a4:	f7ff fd7c 	bl	8003da0 <USBD_SetClassConfig>
 80042a8:	2802      	cmp	r0, #2
 80042aa:	d00e      	beq.n	80042ca <USBD_SetConfig+0x9a>
        USBD_CtlSendStatus(pdev);
 80042ac:	0020      	movs	r0, r4
 80042ae:	f000 f995 	bl	80045dc <USBD_CtlSendStatus>
 80042b2:	e7d3      	b.n	800425c <USBD_SetConfig+0x2c>
        pdev->dev_state = USBD_STATE_ADDRESSED;
 80042b4:	2202      	movs	r2, #2
 80042b6:	23fe      	movs	r3, #254	; 0xfe
 80042b8:	005b      	lsls	r3, r3, #1
 80042ba:	54c2      	strb	r2, [r0, r3]
        pdev->dev_config = cfgidx;          
 80042bc:	6041      	str	r1, [r0, #4]
        USBD_ClrClassConfig(pdev , cfgidx);
 80042be:	f7ff fd7f 	bl	8003dc0 <USBD_ClrClassConfig>
        USBD_CtlSendStatus(pdev);
 80042c2:	0020      	movs	r0, r4
 80042c4:	f000 f98a 	bl	80045dc <USBD_CtlSendStatus>
 80042c8:	e7c8      	b.n	800425c <USBD_SetConfig+0x2c>
          USBD_CtlError(pdev , req);  
 80042ca:	0029      	movs	r1, r5
 80042cc:	0020      	movs	r0, r4
 80042ce:	f7ff feca 	bl	8004066 <USBD_CtlError>
          return;
 80042d2:	e7c3      	b.n	800425c <USBD_SetConfig+0x2c>
        USBD_CtlSendStatus(pdev);
 80042d4:	f000 f982 	bl	80045dc <USBD_CtlSendStatus>
 80042d8:	e7c0      	b.n	800425c <USBD_SetConfig+0x2c>
 80042da:	46c0      	nop			; (mov r8, r8)
 80042dc:	2000017d 	.word	0x2000017d

080042e0 <USBD_GetConfig>:
{
 80042e0:	b510      	push	{r4, lr}
  if (req->wLength != 1) 
 80042e2:	88cb      	ldrh	r3, [r1, #6]
 80042e4:	2b01      	cmp	r3, #1
 80042e6:	d109      	bne.n	80042fc <USBD_GetConfig+0x1c>
    switch (pdev->dev_state )  
 80042e8:	23fe      	movs	r3, #254	; 0xfe
 80042ea:	005b      	lsls	r3, r3, #1
 80042ec:	5cc3      	ldrb	r3, [r0, r3]
 80042ee:	2b02      	cmp	r3, #2
 80042f0:	d007      	beq.n	8004302 <USBD_GetConfig+0x22>
 80042f2:	2b03      	cmp	r3, #3
 80042f4:	d00d      	beq.n	8004312 <USBD_GetConfig+0x32>
       USBD_CtlError(pdev , req);
 80042f6:	f7ff feb6 	bl	8004066 <USBD_CtlError>
}
 80042fa:	e001      	b.n	8004300 <USBD_GetConfig+0x20>
     USBD_CtlError(pdev , req);
 80042fc:	f7ff feb3 	bl	8004066 <USBD_CtlError>
}
 8004300:	bd10      	pop	{r4, pc}
      pdev->dev_default_config = 0;
 8004302:	2300      	movs	r3, #0
 8004304:	6083      	str	r3, [r0, #8]
                        (uint8_t *)&pdev->dev_default_config,
 8004306:	0001      	movs	r1, r0
 8004308:	3108      	adds	r1, #8
      USBD_CtlSendData (pdev, 
 800430a:	2201      	movs	r2, #1
 800430c:	f000 f938 	bl	8004580 <USBD_CtlSendData>
      break;
 8004310:	e7f6      	b.n	8004300 <USBD_GetConfig+0x20>
                        (uint8_t *)&pdev->dev_config,
 8004312:	1d01      	adds	r1, r0, #4
      USBD_CtlSendData (pdev, 
 8004314:	2201      	movs	r2, #1
 8004316:	f000 f933 	bl	8004580 <USBD_CtlSendData>
      break;
 800431a:	e7f1      	b.n	8004300 <USBD_GetConfig+0x20>

0800431c <USBD_GetStatus>:
{
 800431c:	b510      	push	{r4, lr}
  switch (pdev->dev_state) 
 800431e:	23fe      	movs	r3, #254	; 0xfe
 8004320:	005b      	lsls	r3, r3, #1
 8004322:	5cc3      	ldrb	r3, [r0, r3]
 8004324:	3b02      	subs	r3, #2
 8004326:	b2db      	uxtb	r3, r3
 8004328:	2b01      	cmp	r3, #1
 800432a:	d80e      	bhi.n	800434a <USBD_GetStatus+0x2e>
    pdev->dev_config_status = USB_CONFIG_SELF_POWERED;                                  
 800432c:	2301      	movs	r3, #1
 800432e:	60c3      	str	r3, [r0, #12]
    if (pdev->dev_remote_wakeup) 
 8004330:	2381      	movs	r3, #129	; 0x81
 8004332:	009b      	lsls	r3, r3, #2
 8004334:	58c3      	ldr	r3, [r0, r3]
 8004336:	2b00      	cmp	r3, #0
 8004338:	d001      	beq.n	800433e <USBD_GetStatus+0x22>
       pdev->dev_config_status |= USB_CONFIG_REMOTE_WAKEUP;                                
 800433a:	2303      	movs	r3, #3
 800433c:	60c3      	str	r3, [r0, #12]
                      (uint8_t *)& pdev->dev_config_status,
 800433e:	0001      	movs	r1, r0
 8004340:	310c      	adds	r1, #12
    USBD_CtlSendData (pdev, 
 8004342:	2202      	movs	r2, #2
 8004344:	f000 f91c 	bl	8004580 <USBD_CtlSendData>
}
 8004348:	bd10      	pop	{r4, pc}
    USBD_CtlError(pdev , req);                        
 800434a:	f7ff fe8c 	bl	8004066 <USBD_CtlError>
}
 800434e:	e7fb      	b.n	8004348 <USBD_GetStatus+0x2c>

08004350 <USBD_ClrFeature>:
{
 8004350:	b510      	push	{r4, lr}
 8004352:	0004      	movs	r4, r0
  switch (pdev->dev_state)
 8004354:	23fe      	movs	r3, #254	; 0xfe
 8004356:	005b      	lsls	r3, r3, #1
 8004358:	5cc3      	ldrb	r3, [r0, r3]
 800435a:	3b02      	subs	r3, #2
 800435c:	b2db      	uxtb	r3, r3
 800435e:	2b01      	cmp	r3, #1
 8004360:	d80f      	bhi.n	8004382 <USBD_ClrFeature+0x32>
    if (req->wValue == USB_FEATURE_REMOTE_WAKEUP) 
 8004362:	884b      	ldrh	r3, [r1, #2]
 8004364:	2b01      	cmp	r3, #1
 8004366:	d000      	beq.n	800436a <USBD_ClrFeature+0x1a>
}
 8004368:	bd10      	pop	{r4, pc}
      pdev->dev_remote_wakeup = 0; 
 800436a:	2200      	movs	r2, #0
 800436c:	2381      	movs	r3, #129	; 0x81
 800436e:	009b      	lsls	r3, r3, #2
 8004370:	50c2      	str	r2, [r0, r3]
      pdev->pClass->Setup (pdev, req);   
 8004372:	3310      	adds	r3, #16
 8004374:	58c3      	ldr	r3, [r0, r3]
 8004376:	689b      	ldr	r3, [r3, #8]
 8004378:	4798      	blx	r3
      USBD_CtlSendStatus(pdev);
 800437a:	0020      	movs	r0, r4
 800437c:	f000 f92e 	bl	80045dc <USBD_CtlSendStatus>
 8004380:	e7f2      	b.n	8004368 <USBD_ClrFeature+0x18>
     USBD_CtlError(pdev , req);
 8004382:	f7ff fe70 	bl	8004066 <USBD_CtlError>
}
 8004386:	e7ef      	b.n	8004368 <USBD_ClrFeature+0x18>

08004388 <USBD_StdDevReq>:
{
 8004388:	b510      	push	{r4, lr}
  switch (req->bRequest) 
 800438a:	784b      	ldrb	r3, [r1, #1]
 800438c:	2b09      	cmp	r3, #9
 800438e:	d819      	bhi.n	80043c4 <USBD_StdDevReq+0x3c>
 8004390:	009b      	lsls	r3, r3, #2
 8004392:	4a0e      	ldr	r2, [pc, #56]	; (80043cc <USBD_StdDevReq+0x44>)
 8004394:	58d3      	ldr	r3, [r2, r3]
 8004396:	469f      	mov	pc, r3
    USBD_GetDescriptor (pdev, req) ;
 8004398:	f7ff fe70 	bl	800407c <USBD_GetDescriptor>
}
 800439c:	2000      	movs	r0, #0
 800439e:	bd10      	pop	{r4, pc}
    USBD_SetAddress(pdev, req);
 80043a0:	f7ff ff1a 	bl	80041d8 <USBD_SetAddress>
    break;
 80043a4:	e7fa      	b.n	800439c <USBD_StdDevReq+0x14>
    USBD_SetConfig (pdev , req);
 80043a6:	f7ff ff43 	bl	8004230 <USBD_SetConfig>
    break;
 80043aa:	e7f7      	b.n	800439c <USBD_StdDevReq+0x14>
    USBD_GetConfig (pdev , req);
 80043ac:	f7ff ff98 	bl	80042e0 <USBD_GetConfig>
    break;
 80043b0:	e7f4      	b.n	800439c <USBD_StdDevReq+0x14>
    USBD_GetStatus (pdev , req);
 80043b2:	f7ff ffb3 	bl	800431c <USBD_GetStatus>
    break;
 80043b6:	e7f1      	b.n	800439c <USBD_StdDevReq+0x14>
    USBD_SetFeature (pdev , req);    
 80043b8:	f7ff fe2f 	bl	800401a <USBD_SetFeature>
    break;
 80043bc:	e7ee      	b.n	800439c <USBD_StdDevReq+0x14>
    USBD_ClrFeature (pdev , req);
 80043be:	f7ff ffc7 	bl	8004350 <USBD_ClrFeature>
    break;
 80043c2:	e7eb      	b.n	800439c <USBD_StdDevReq+0x14>
    USBD_CtlError(pdev , req);
 80043c4:	f7ff fe4f 	bl	8004066 <USBD_CtlError>
    break;
 80043c8:	e7e8      	b.n	800439c <USBD_StdDevReq+0x14>
 80043ca:	46c0      	nop			; (mov r8, r8)
 80043cc:	08005fc8 	.word	0x08005fc8

080043d0 <USBD_StdItfReq>:
{
 80043d0:	b570      	push	{r4, r5, r6, lr}
 80043d2:	0004      	movs	r4, r0
 80043d4:	000d      	movs	r5, r1
  switch (pdev->dev_state) 
 80043d6:	23fe      	movs	r3, #254	; 0xfe
 80043d8:	005b      	lsls	r3, r3, #1
 80043da:	5cc3      	ldrb	r3, [r0, r3]
 80043dc:	2b03      	cmp	r3, #3
 80043de:	d112      	bne.n	8004406 <USBD_StdItfReq+0x36>
    if (LOBYTE(req->wIndex) <= USBD_MAX_NUM_INTERFACES) 
 80043e0:	790b      	ldrb	r3, [r1, #4]
 80043e2:	2b01      	cmp	r3, #1
 80043e4:	d903      	bls.n	80043ee <USBD_StdItfReq+0x1e>
       USBD_CtlError(pdev , req);
 80043e6:	f7ff fe3e 	bl	8004066 <USBD_CtlError>
}
 80043ea:	2000      	movs	r0, #0
 80043ec:	bd70      	pop	{r4, r5, r6, pc}
      pdev->pClass->Setup (pdev, req); 
 80043ee:	2385      	movs	r3, #133	; 0x85
 80043f0:	009b      	lsls	r3, r3, #2
 80043f2:	58c3      	ldr	r3, [r0, r3]
 80043f4:	689b      	ldr	r3, [r3, #8]
 80043f6:	4798      	blx	r3
      if((req->wLength == 0)&& (ret == USBD_OK))
 80043f8:	88eb      	ldrh	r3, [r5, #6]
 80043fa:	2b00      	cmp	r3, #0
 80043fc:	d1f5      	bne.n	80043ea <USBD_StdItfReq+0x1a>
         USBD_CtlSendStatus(pdev);
 80043fe:	0020      	movs	r0, r4
 8004400:	f000 f8ec 	bl	80045dc <USBD_CtlSendStatus>
 8004404:	e7f1      	b.n	80043ea <USBD_StdItfReq+0x1a>
     USBD_CtlError(pdev , req);
 8004406:	f7ff fe2e 	bl	8004066 <USBD_CtlError>
    break;
 800440a:	e7ee      	b.n	80043ea <USBD_StdItfReq+0x1a>

0800440c <USBD_StdEPReq>:
{
 800440c:	b570      	push	{r4, r5, r6, lr}
 800440e:	0005      	movs	r5, r0
 8004410:	000c      	movs	r4, r1
  ep_addr  = LOBYTE(req->wIndex);   
 8004412:	888a      	ldrh	r2, [r1, #4]
 8004414:	b2d1      	uxtb	r1, r2
  if ((req->bmRequest & 0x60) == 0x20)
 8004416:	7820      	ldrb	r0, [r4, #0]
 8004418:	2360      	movs	r3, #96	; 0x60
 800441a:	4003      	ands	r3, r0
 800441c:	2b20      	cmp	r3, #32
 800441e:	d012      	beq.n	8004446 <USBD_StdEPReq+0x3a>
  switch (req->bRequest) 
 8004420:	7863      	ldrb	r3, [r4, #1]
 8004422:	2b01      	cmp	r3, #1
 8004424:	d035      	beq.n	8004492 <USBD_StdEPReq+0x86>
 8004426:	2b00      	cmp	r3, #0
 8004428:	d05b      	beq.n	80044e2 <USBD_StdEPReq+0xd6>
 800442a:	2b03      	cmp	r3, #3
 800442c:	d112      	bne.n	8004454 <USBD_StdEPReq+0x48>
    switch (pdev->dev_state) 
 800442e:	33fa      	adds	r3, #250	; 0xfa
 8004430:	33ff      	adds	r3, #255	; 0xff
 8004432:	5ceb      	ldrb	r3, [r5, r3]
 8004434:	2b02      	cmp	r3, #2
 8004436:	d00f      	beq.n	8004458 <USBD_StdEPReq+0x4c>
 8004438:	2b03      	cmp	r3, #3
 800443a:	d015      	beq.n	8004468 <USBD_StdEPReq+0x5c>
      USBD_CtlError(pdev , req);
 800443c:	0021      	movs	r1, r4
 800443e:	0028      	movs	r0, r5
 8004440:	f7ff fe11 	bl	8004066 <USBD_CtlError>
      break;    
 8004444:	e006      	b.n	8004454 <USBD_StdEPReq+0x48>
    pdev->pClass->Setup (pdev, req);
 8004446:	33f5      	adds	r3, #245	; 0xf5
 8004448:	33ff      	adds	r3, #255	; 0xff
 800444a:	58eb      	ldr	r3, [r5, r3]
 800444c:	689b      	ldr	r3, [r3, #8]
 800444e:	0021      	movs	r1, r4
 8004450:	0028      	movs	r0, r5
 8004452:	4798      	blx	r3
}
 8004454:	2000      	movs	r0, #0
 8004456:	bd70      	pop	{r4, r5, r6, pc}
      if ((ep_addr != 0x00) && (ep_addr != 0x80)) 
 8004458:	2900      	cmp	r1, #0
 800445a:	d0fb      	beq.n	8004454 <USBD_StdEPReq+0x48>
 800445c:	2980      	cmp	r1, #128	; 0x80
 800445e:	d0f9      	beq.n	8004454 <USBD_StdEPReq+0x48>
        USBD_LL_StallEP(pdev , ep_addr);
 8004460:	0028      	movs	r0, r5
 8004462:	f001 fc26 	bl	8005cb2 <USBD_LL_StallEP>
 8004466:	e7f5      	b.n	8004454 <USBD_StdEPReq+0x48>
      if (req->wValue == USB_FEATURE_EP_HALT)
 8004468:	8863      	ldrh	r3, [r4, #2]
 800446a:	2b00      	cmp	r3, #0
 800446c:	d106      	bne.n	800447c <USBD_StdEPReq+0x70>
        if ((ep_addr != 0x00) && (ep_addr != 0x80)) 
 800446e:	2900      	cmp	r1, #0
 8004470:	d004      	beq.n	800447c <USBD_StdEPReq+0x70>
 8004472:	2980      	cmp	r1, #128	; 0x80
 8004474:	d002      	beq.n	800447c <USBD_StdEPReq+0x70>
          USBD_LL_StallEP(pdev , ep_addr);
 8004476:	0028      	movs	r0, r5
 8004478:	f001 fc1b 	bl	8005cb2 <USBD_LL_StallEP>
      pdev->pClass->Setup (pdev, req);   
 800447c:	2385      	movs	r3, #133	; 0x85
 800447e:	009b      	lsls	r3, r3, #2
 8004480:	58eb      	ldr	r3, [r5, r3]
 8004482:	689b      	ldr	r3, [r3, #8]
 8004484:	0021      	movs	r1, r4
 8004486:	0028      	movs	r0, r5
 8004488:	4798      	blx	r3
      USBD_CtlSendStatus(pdev);
 800448a:	0028      	movs	r0, r5
 800448c:	f000 f8a6 	bl	80045dc <USBD_CtlSendStatus>
      break;
 8004490:	e7e0      	b.n	8004454 <USBD_StdEPReq+0x48>
    switch (pdev->dev_state) 
 8004492:	23fe      	movs	r3, #254	; 0xfe
 8004494:	005b      	lsls	r3, r3, #1
 8004496:	5ceb      	ldrb	r3, [r5, r3]
 8004498:	2b02      	cmp	r3, #2
 800449a:	d006      	beq.n	80044aa <USBD_StdEPReq+0x9e>
 800449c:	2b03      	cmp	r3, #3
 800449e:	d00c      	beq.n	80044ba <USBD_StdEPReq+0xae>
      USBD_CtlError(pdev , req);
 80044a0:	0021      	movs	r1, r4
 80044a2:	0028      	movs	r0, r5
 80044a4:	f7ff fddf 	bl	8004066 <USBD_CtlError>
      break;    
 80044a8:	e7d4      	b.n	8004454 <USBD_StdEPReq+0x48>
      if ((ep_addr != 0x00) && (ep_addr != 0x80)) 
 80044aa:	2900      	cmp	r1, #0
 80044ac:	d0d2      	beq.n	8004454 <USBD_StdEPReq+0x48>
 80044ae:	2980      	cmp	r1, #128	; 0x80
 80044b0:	d0d0      	beq.n	8004454 <USBD_StdEPReq+0x48>
        USBD_LL_StallEP(pdev , ep_addr);
 80044b2:	0028      	movs	r0, r5
 80044b4:	f001 fbfd 	bl	8005cb2 <USBD_LL_StallEP>
 80044b8:	e7cc      	b.n	8004454 <USBD_StdEPReq+0x48>
      if (req->wValue == USB_FEATURE_EP_HALT)
 80044ba:	8863      	ldrh	r3, [r4, #2]
 80044bc:	2b00      	cmp	r3, #0
 80044be:	d1c9      	bne.n	8004454 <USBD_StdEPReq+0x48>
        if ((ep_addr & 0x7F) != 0x00) 
 80044c0:	064b      	lsls	r3, r1, #25
 80044c2:	d103      	bne.n	80044cc <USBD_StdEPReq+0xc0>
        USBD_CtlSendStatus(pdev);
 80044c4:	0028      	movs	r0, r5
 80044c6:	f000 f889 	bl	80045dc <USBD_CtlSendStatus>
 80044ca:	e7c3      	b.n	8004454 <USBD_StdEPReq+0x48>
          USBD_LL_ClearStallEP(pdev , ep_addr);
 80044cc:	0028      	movs	r0, r5
 80044ce:	f001 fc00 	bl	8005cd2 <USBD_LL_ClearStallEP>
          pdev->pClass->Setup (pdev, req);
 80044d2:	2385      	movs	r3, #133	; 0x85
 80044d4:	009b      	lsls	r3, r3, #2
 80044d6:	58eb      	ldr	r3, [r5, r3]
 80044d8:	689b      	ldr	r3, [r3, #8]
 80044da:	0021      	movs	r1, r4
 80044dc:	0028      	movs	r0, r5
 80044de:	4798      	blx	r3
 80044e0:	e7f0      	b.n	80044c4 <USBD_StdEPReq+0xb8>
    switch (pdev->dev_state) 
 80044e2:	23fe      	movs	r3, #254	; 0xfe
 80044e4:	005b      	lsls	r3, r3, #1
 80044e6:	5ceb      	ldrb	r3, [r5, r3]
 80044e8:	2b02      	cmp	r3, #2
 80044ea:	d006      	beq.n	80044fa <USBD_StdEPReq+0xee>
 80044ec:	2b03      	cmp	r3, #3
 80044ee:	d00a      	beq.n	8004506 <USBD_StdEPReq+0xfa>
      USBD_CtlError(pdev , req);
 80044f0:	0021      	movs	r1, r4
 80044f2:	0028      	movs	r0, r5
 80044f4:	f7ff fdb7 	bl	8004066 <USBD_CtlError>
      break;
 80044f8:	e7ac      	b.n	8004454 <USBD_StdEPReq+0x48>
      if ((ep_addr & 0x7F) != 0x00) 
 80044fa:	064b      	lsls	r3, r1, #25
 80044fc:	d0aa      	beq.n	8004454 <USBD_StdEPReq+0x48>
        USBD_LL_StallEP(pdev , ep_addr);
 80044fe:	0028      	movs	r0, r5
 8004500:	f001 fbd7 	bl	8005cb2 <USBD_LL_StallEP>
 8004504:	e7a6      	b.n	8004454 <USBD_StdEPReq+0x48>
      pep = ((ep_addr & 0x80) == 0x80) ? &pdev->ep_in[ep_addr & 0x7F]:\
 8004506:	0613      	lsls	r3, r2, #24
 8004508:	d412      	bmi.n	8004530 <USBD_StdEPReq+0x124>
                                         &pdev->ep_out[ep_addr & 0x7F];
 800450a:	247f      	movs	r4, #127	; 0x7f
 800450c:	400c      	ands	r4, r1
      pep = ((ep_addr & 0x80) == 0x80) ? &pdev->ep_in[ep_addr & 0x7F]:\
 800450e:	3410      	adds	r4, #16
 8004510:	0124      	lsls	r4, r4, #4
 8004512:	192c      	adds	r4, r5, r4
 8004514:	3404      	adds	r4, #4
      if(USBD_LL_IsStallEP(pdev, ep_addr))
 8004516:	0028      	movs	r0, r5
 8004518:	f001 fbeb 	bl	8005cf2 <USBD_LL_IsStallEP>
 800451c:	2800      	cmp	r0, #0
 800451e:	d00e      	beq.n	800453e <USBD_StdEPReq+0x132>
        pep->status = 0x0001;     
 8004520:	2301      	movs	r3, #1
 8004522:	6023      	str	r3, [r4, #0]
      USBD_CtlSendData (pdev,
 8004524:	2202      	movs	r2, #2
 8004526:	0021      	movs	r1, r4
 8004528:	0028      	movs	r0, r5
 800452a:	f000 f829 	bl	8004580 <USBD_CtlSendData>
      break;
 800452e:	e791      	b.n	8004454 <USBD_StdEPReq+0x48>
      pep = ((ep_addr & 0x80) == 0x80) ? &pdev->ep_in[ep_addr & 0x7F]:\
 8004530:	247f      	movs	r4, #127	; 0x7f
 8004532:	400c      	ands	r4, r1
 8004534:	3401      	adds	r4, #1
 8004536:	0124      	lsls	r4, r4, #4
 8004538:	192c      	adds	r4, r5, r4
 800453a:	3404      	adds	r4, #4
 800453c:	e7eb      	b.n	8004516 <USBD_StdEPReq+0x10a>
        pep->status = 0x0000;  
 800453e:	2300      	movs	r3, #0
 8004540:	6023      	str	r3, [r4, #0]
 8004542:	e7ef      	b.n	8004524 <USBD_StdEPReq+0x118>

08004544 <USBD_GetString>:
{
 8004544:	b570      	push	{r4, r5, r6, lr}
 8004546:	0004      	movs	r4, r0
 8004548:	000d      	movs	r5, r1
 800454a:	0016      	movs	r6, r2
  if (desc != NULL) 
 800454c:	2800      	cmp	r0, #0
 800454e:	d016      	beq.n	800457e <USBD_GetString+0x3a>
    *len =  USBD_GetLen(desc) * 2 + 2;    
 8004550:	f7ff fd59 	bl	8004006 <USBD_GetLen>
 8004554:	1c43      	adds	r3, r0, #1
 8004556:	005b      	lsls	r3, r3, #1
 8004558:	b29b      	uxth	r3, r3
 800455a:	8033      	strh	r3, [r6, #0]
    unicode[idx++] = *len;
 800455c:	702b      	strb	r3, [r5, #0]
    unicode[idx++] =  USB_DESC_TYPE_STRING;
 800455e:	2303      	movs	r3, #3
 8004560:	706b      	strb	r3, [r5, #1]
 8004562:	3b01      	subs	r3, #1
    while (*desc != '\0') 
 8004564:	e008      	b.n	8004578 <USBD_GetString+0x34>
      unicode[idx++] = *desc++;
 8004566:	1c5a      	adds	r2, r3, #1
 8004568:	b2d2      	uxtb	r2, r2
 800456a:	3401      	adds	r4, #1
 800456c:	54e9      	strb	r1, [r5, r3]
      unicode[idx++] =  0x00;
 800456e:	3302      	adds	r3, #2
 8004570:	b2db      	uxtb	r3, r3
 8004572:	18aa      	adds	r2, r5, r2
 8004574:	2100      	movs	r1, #0
 8004576:	7011      	strb	r1, [r2, #0]
    while (*desc != '\0') 
 8004578:	7821      	ldrb	r1, [r4, #0]
 800457a:	2900      	cmp	r1, #0
 800457c:	d1f3      	bne.n	8004566 <USBD_GetString+0x22>
}
 800457e:	bd70      	pop	{r4, r5, r6, pc}

08004580 <USBD_CtlSendData>:
* @retval status
*/
USBD_StatusTypeDef  USBD_CtlSendData (USBD_HandleTypeDef  *pdev, 
                               uint8_t *pbuf,
                               uint16_t len)
{
 8004580:	b510      	push	{r4, lr}
 8004582:	0013      	movs	r3, r2
  /* Set EP0 State */
  pdev->ep0_state          = USBD_EP0_DATA_IN;                                      
 8004584:	2402      	movs	r4, #2
 8004586:	22fa      	movs	r2, #250	; 0xfa
 8004588:	0052      	lsls	r2, r2, #1
 800458a:	5084      	str	r4, [r0, r2]
  pdev->ep_in[0].total_length = len;
 800458c:	6183      	str	r3, [r0, #24]
  pdev->ep_in[0].rem_length   = len;
 800458e:	61c3      	str	r3, [r0, #28]
 /* Start the transfer */
  USBD_LL_Transmit (pdev, 0x00, pbuf, len);  
 8004590:	000a      	movs	r2, r1
 8004592:	2100      	movs	r1, #0
 8004594:	f001 fbd7 	bl	8005d46 <USBD_LL_Transmit>
  
  return USBD_OK;
}
 8004598:	2000      	movs	r0, #0
 800459a:	bd10      	pop	{r4, pc}

0800459c <USBD_CtlContinueSendData>:
* @retval status
*/
USBD_StatusTypeDef  USBD_CtlContinueSendData (USBD_HandleTypeDef  *pdev, 
                                       uint8_t *pbuf,
                                       uint16_t len)
{
 800459c:	b510      	push	{r4, lr}
 800459e:	0013      	movs	r3, r2
 /* Start the next transfer */
  USBD_LL_Transmit (pdev, 0x00, pbuf, len);   
 80045a0:	000a      	movs	r2, r1
 80045a2:	2100      	movs	r1, #0
 80045a4:	f001 fbcf 	bl	8005d46 <USBD_LL_Transmit>
  
  return USBD_OK;
}
 80045a8:	2000      	movs	r0, #0
 80045aa:	bd10      	pop	{r4, pc}

080045ac <USBD_CtlPrepareRx>:
* @retval status
*/
USBD_StatusTypeDef  USBD_CtlPrepareRx (USBD_HandleTypeDef  *pdev,
                                  uint8_t *pbuf,                                  
                                  uint16_t len)
{
 80045ac:	b510      	push	{r4, lr}
 80045ae:	0013      	movs	r3, r2
  /* Set EP0 State */
  pdev->ep0_state = USBD_EP0_DATA_OUT; 
 80045b0:	2403      	movs	r4, #3
 80045b2:	22fa      	movs	r2, #250	; 0xfa
 80045b4:	0052      	lsls	r2, r2, #1
 80045b6:	5084      	str	r4, [r0, r2]
  pdev->ep_out[0].total_length = len;
 80045b8:	3aec      	subs	r2, #236	; 0xec
 80045ba:	5083      	str	r3, [r0, r2]
  pdev->ep_out[0].rem_length   = len;
 80045bc:	3204      	adds	r2, #4
 80045be:	5083      	str	r3, [r0, r2]
  /* Start the transfer */
  USBD_LL_PrepareReceive (pdev,
 80045c0:	000a      	movs	r2, r1
 80045c2:	2100      	movs	r1, #0
 80045c4:	f001 fbcf 	bl	8005d66 <USBD_LL_PrepareReceive>
                          0,
                          pbuf,
                         len);
  
  return USBD_OK;
}
 80045c8:	2000      	movs	r0, #0
 80045ca:	bd10      	pop	{r4, pc}

080045cc <USBD_CtlContinueRx>:
* @retval status
*/
USBD_StatusTypeDef  USBD_CtlContinueRx (USBD_HandleTypeDef  *pdev, 
                                          uint8_t *pbuf,                                          
                                          uint16_t len)
{
 80045cc:	b510      	push	{r4, lr}
 80045ce:	0013      	movs	r3, r2

  USBD_LL_PrepareReceive (pdev,
 80045d0:	000a      	movs	r2, r1
 80045d2:	2100      	movs	r1, #0
 80045d4:	f001 fbc7 	bl	8005d66 <USBD_LL_PrepareReceive>
                          0,                     
                          pbuf,                         
                          len);
  return USBD_OK;
}
 80045d8:	2000      	movs	r0, #0
 80045da:	bd10      	pop	{r4, pc}

080045dc <USBD_CtlSendStatus>:
*         send zero lzngth packet on the ctl pipe
* @param  pdev: device instance
* @retval status
*/
USBD_StatusTypeDef  USBD_CtlSendStatus (USBD_HandleTypeDef  *pdev)
{
 80045dc:	b510      	push	{r4, lr}

  /* Set EP0 State */
  pdev->ep0_state = USBD_EP0_STATUS_IN;
 80045de:	2204      	movs	r2, #4
 80045e0:	23fa      	movs	r3, #250	; 0xfa
 80045e2:	005b      	lsls	r3, r3, #1
 80045e4:	50c2      	str	r2, [r0, r3]
  
 /* Start the transfer */
  USBD_LL_Transmit (pdev, 0x00, NULL, 0);   
 80045e6:	2300      	movs	r3, #0
 80045e8:	2200      	movs	r2, #0
 80045ea:	2100      	movs	r1, #0
 80045ec:	f001 fbab 	bl	8005d46 <USBD_LL_Transmit>
  
  return USBD_OK;
}
 80045f0:	2000      	movs	r0, #0
 80045f2:	bd10      	pop	{r4, pc}

080045f4 <USBD_CtlReceiveStatus>:
*         receive zero lzngth packet on the ctl pipe
* @param  pdev: device instance
* @retval status
*/
USBD_StatusTypeDef  USBD_CtlReceiveStatus (USBD_HandleTypeDef  *pdev)
{
 80045f4:	b510      	push	{r4, lr}
  /* Set EP0 State */
  pdev->ep0_state = USBD_EP0_STATUS_OUT; 
 80045f6:	2205      	movs	r2, #5
 80045f8:	23fa      	movs	r3, #250	; 0xfa
 80045fa:	005b      	lsls	r3, r3, #1
 80045fc:	50c2      	str	r2, [r0, r3]
  
 /* Start the transfer */  
  USBD_LL_PrepareReceive ( pdev,
 80045fe:	2300      	movs	r3, #0
 8004600:	2200      	movs	r2, #0
 8004602:	2100      	movs	r1, #0
 8004604:	f001 fbaf 	bl	8005d66 <USBD_LL_PrepareReceive>
                    0,
                    NULL,
                    0);  

  return USBD_OK;
}
 8004608:	2000      	movs	r0, #0
 800460a:	bd10      	pop	{r4, pc}

0800460c <RebootToBootloader>:

#include "stm32f0xx_hal.h"
#include "usb_device.h"

//call this at any time to initiate a reboot into bootloader
void RebootToBootloader(){
 800460c:	b500      	push	{lr}
 800460e:	b087      	sub	sp, #28


    FLASH_OBProgramInitTypeDef OBParam;

    HAL_FLASHEx_OBGetConfig(&OBParam);
 8004610:	4668      	mov	r0, sp
 8004612:	f7fc feb1 	bl	8001378 <HAL_FLASHEx_OBGetConfig>

    OBParam.OptionType = OPTIONBYTE_USER;
 8004616:	2304      	movs	r3, #4
 8004618:	9300      	str	r3, [sp, #0]
    /*Reset NBOOT0 and BOOT_SEL,  see: RM 2.5 Boot configuration*/
    OBParam.USERConfig = 0x77; //Sorry for magic number :)
 800461a:	3373      	adds	r3, #115	; 0x73
 800461c:	466a      	mov	r2, sp
 800461e:	7353      	strb	r3, [r2, #13]

    HAL_FLASH_Unlock();
 8004620:	f7fc fd40 	bl	80010a4 <HAL_FLASH_Unlock>
    HAL_FLASH_OB_Unlock();
 8004624:	f7fc fd5a 	bl	80010dc <HAL_FLASH_OB_Unlock>

    HAL_FLASHEx_OBErase();
 8004628:	f7fc fde2 	bl	80011f0 <HAL_FLASHEx_OBErase>

    HAL_FLASHEx_OBProgram(&OBParam);
 800462c:	4668      	mov	r0, sp
 800462e:	f7fc fe0d 	bl	800124c <HAL_FLASHEx_OBProgram>

    HAL_FLASH_OB_Lock();
 8004632:	f7fc fd67 	bl	8001104 <HAL_FLASH_OB_Lock>
    HAL_FLASH_Lock();
 8004636:	f7fc fd47 	bl	80010c8 <HAL_FLASH_Lock>

    HAL_FLASH_OB_Launch();
 800463a:	f7fc fd99 	bl	8001170 <HAL_FLASH_OB_Launch>
}
 800463e:	b007      	add	sp, #28
 8004640:	bd00      	pop	{pc}
	...

08004644 <Husbus_Init>:
static uint8_t cursor = 0;
static uint32_t rxTimestamp = 0;
static HusBus_Frame_t rxFrame = {0}, txFrame = {0};
void Husbus_Init(uint8_t* output)
{
	outBuffer = output;
 8004644:	4b01      	ldr	r3, [pc, #4]	; (800464c <Husbus_Init+0x8>)
 8004646:	6018      	str	r0, [r3, #0]
}
 8004648:	4770      	bx	lr
 800464a:	46c0      	nop			; (mov r8, r8)
 800464c:	20000180 	.word	0x20000180

08004650 <Husbus_ParseCanFrame>:
		memset(&rxFrame, 0, sizeof(rxFrame));
	}
}

void Husbus_ParseCanFrame(CanRxMsgTypeDef *pRxMsg)
{
 8004650:	b570      	push	{r4, r5, r6, lr}
 8004652:	0004      	movs	r4, r0
	uint8_t i;
	HusBus_Header_t header = {0};
	hcrc.Instance->CR |= CRC_CR_RESET;
 8004654:	4b2b      	ldr	r3, [pc, #172]	; (8004704 <Husbus_ParseCanFrame+0xb4>)
 8004656:	681a      	ldr	r2, [r3, #0]
 8004658:	6893      	ldr	r3, [r2, #8]
 800465a:	2101      	movs	r1, #1
 800465c:	430b      	orrs	r3, r1
 800465e:	6093      	str	r3, [r2, #8]
	if(outBuffer == NULL)return;
 8004660:	4b29      	ldr	r3, [pc, #164]	; (8004708 <Husbus_ParseCanFrame+0xb8>)
 8004662:	6818      	ldr	r0, [r3, #0]
 8004664:	2800      	cmp	r0, #0
 8004666:	d02f      	beq.n	80046c8 <Husbus_ParseCanFrame+0x78>
	memset(outBuffer, 0, HUSBUS_BUF_SIZE );
 8004668:	2214      	movs	r2, #20
 800466a:	2100      	movs	r1, #0
 800466c:	f001 fc69 	bl	8005f42 <memset>
	memset(txFrame.bytes, 0, 14);
 8004670:	220e      	movs	r2, #14
 8004672:	2100      	movs	r1, #0
 8004674:	4825      	ldr	r0, [pc, #148]	; (800470c <Husbus_ParseCanFrame+0xbc>)
 8004676:	f001 fc64 	bl	8005f42 <memset>
	header.fields.DLC = (uint8_t)pRxMsg->DLC;
 800467a:	230f      	movs	r3, #15
 800467c:	6922      	ldr	r2, [r4, #16]
 800467e:	4013      	ands	r3, r2
 8004680:	009b      	lsls	r3, r3, #2
	if (pRxMsg->RTR == 1)
 8004682:	68e2      	ldr	r2, [r4, #12]
 8004684:	2a01      	cmp	r2, #1
 8004686:	d020      	beq.n	80046ca <Husbus_ParseCanFrame+0x7a>
	{
		header.fields.RTR = 1;
	}
	else
	{
		header.fields.RTR = 0;
 8004688:	1c1d      	adds	r5, r3, #0
	}
	if (pRxMsg->IDE == CAN_ID_EXT)
 800468a:	68a3      	ldr	r3, [r4, #8]
 800468c:	2b04      	cmp	r3, #4
 800468e:	d01f      	beq.n	80046d0 <Husbus_ParseCanFrame+0x80>
			txFrame.fields.id[4-i] = ((uint8_t*)&pRxMsg->ExtId)[i - 1];
		}
	}
	else
	{
		header.fields.IDEXT = 0;
 8004690:	2301      	movs	r3, #1
 8004692:	439d      	bics	r5, r3
		//id
		txFrame.fields.id[0] = ((uint8_t*)&pRxMsg->StdId)[0];
 8004694:	7822      	ldrb	r2, [r4, #0]
 8004696:	4b1d      	ldr	r3, [pc, #116]	; (800470c <Husbus_ParseCanFrame+0xbc>)
 8004698:	705a      	strb	r2, [r3, #1]
		txFrame.fields.id[1] = ((uint8_t*)&pRxMsg->StdId)[1];
 800469a:	7862      	ldrb	r2, [r4, #1]
 800469c:	709a      	strb	r2, [r3, #2]
	}

	//data
	if ((pRxMsg->DLC > 0) && (pRxMsg->RTR == CAN_RTR_DATA))
 800469e:	6922      	ldr	r2, [r4, #16]
 80046a0:	2a00      	cmp	r2, #0
 80046a2:	d002      	beq.n	80046aa <Husbus_ParseCanFrame+0x5a>
 80046a4:	68e3      	ldr	r3, [r4, #12]
 80046a6:	2b00      	cmp	r3, #0
 80046a8:	d024      	beq.n	80046f4 <Husbus_ParseCanFrame+0xa4>
	{
		memcpy(txFrame.fields.data, pRxMsg->Data, pRxMsg->DLC);
	}
	txFrame.fields.header = header.byte;
 80046aa:	4c18      	ldr	r4, [pc, #96]	; (800470c <Husbus_ParseCanFrame+0xbc>)
 80046ac:	7025      	strb	r5, [r4, #0]
	uint32_t crc = HAL_CRC_Calculate(&hcrc, (uint32_t*)txFrame.bytes, 13);
 80046ae:	220d      	movs	r2, #13
 80046b0:	0021      	movs	r1, r4
 80046b2:	4814      	ldr	r0, [pc, #80]	; (8004704 <Husbus_ParseCanFrame+0xb4>)
 80046b4:	f7fc fb94 	bl	8000de0 <HAL_CRC_Calculate>
	crc = ~crc;
 80046b8:	43c0      	mvns	r0, r0
	txFrame.fields.crc = crc;
 80046ba:	7360      	strb	r0, [r4, #13]
	memcpy(outBuffer, txFrame.bytes, 14);
 80046bc:	4b12      	ldr	r3, [pc, #72]	; (8004708 <Husbus_ParseCanFrame+0xb8>)
 80046be:	6818      	ldr	r0, [r3, #0]
 80046c0:	220e      	movs	r2, #14
 80046c2:	0021      	movs	r1, r4
 80046c4:	f001 fc34 	bl	8005f30 <memcpy>
}
 80046c8:	bd70      	pop	{r4, r5, r6, pc}
		header.fields.RTR = 1;
 80046ca:	2502      	movs	r5, #2
 80046cc:	431d      	orrs	r5, r3
 80046ce:	e7dc      	b.n	800468a <Husbus_ParseCanFrame+0x3a>
		header.fields.IDEXT = 1;
 80046d0:	2301      	movs	r3, #1
 80046d2:	431d      	orrs	r5, r3
		for (i = 4; i != 0; i--)
 80046d4:	2304      	movs	r3, #4
 80046d6:	e00a      	b.n	80046ee <Husbus_ParseCanFrame+0x9e>
			txFrame.fields.id[4-i] = ((uint8_t*)&pRxMsg->ExtId)[i - 1];
 80046d8:	2104      	movs	r1, #4
 80046da:	1ac9      	subs	r1, r1, r3
 80046dc:	1d22      	adds	r2, r4, #4
 80046de:	18d2      	adds	r2, r2, r3
 80046e0:	3a01      	subs	r2, #1
 80046e2:	7810      	ldrb	r0, [r2, #0]
 80046e4:	4a09      	ldr	r2, [pc, #36]	; (800470c <Husbus_ParseCanFrame+0xbc>)
 80046e6:	1852      	adds	r2, r2, r1
 80046e8:	7050      	strb	r0, [r2, #1]
		for (i = 4; i != 0; i--)
 80046ea:	3b01      	subs	r3, #1
 80046ec:	b2db      	uxtb	r3, r3
 80046ee:	2b00      	cmp	r3, #0
 80046f0:	d1f2      	bne.n	80046d8 <Husbus_ParseCanFrame+0x88>
 80046f2:	e7d4      	b.n	800469e <Husbus_ParseCanFrame+0x4e>
		memcpy(txFrame.fields.data, pRxMsg->Data, pRxMsg->DLC);
 80046f4:	0021      	movs	r1, r4
 80046f6:	3114      	adds	r1, #20
 80046f8:	4804      	ldr	r0, [pc, #16]	; (800470c <Husbus_ParseCanFrame+0xbc>)
 80046fa:	3005      	adds	r0, #5
 80046fc:	f001 fc18 	bl	8005f30 <memcpy>
 8004700:	e7d3      	b.n	80046aa <Husbus_ParseCanFrame+0x5a>
 8004702:	46c0      	nop			; (mov r8, r8)
 8004704:	20000570 	.word	0x20000570
 8004708:	20000180 	.word	0x20000180
 800470c:	20000194 	.word	0x20000194

08004710 <Husbus_ParseUART>:

void Husbus_ParseUART(const HusBus_Frame_t* frame)
{
 8004710:	b510      	push	{r4, lr}
 8004712:	1e04      	subs	r4, r0, #0
//	if(strlen((const char*)input) == 0)return;
	if(frame == NULL)return;
 8004714:	d031      	beq.n	800477a <Husbus_ParseUART+0x6a>
	uint32_t crc = 0;
	hcrc.Instance->CR |= CRC_CR_RESET;
 8004716:	4b2a      	ldr	r3, [pc, #168]	; (80047c0 <Husbus_ParseUART+0xb0>)
 8004718:	681a      	ldr	r2, [r3, #0]
 800471a:	6893      	ldr	r3, [r2, #8]
 800471c:	2101      	movs	r1, #1
 800471e:	430b      	orrs	r3, r1
 8004720:	6093      	str	r3, [r2, #8]
	HusBus_Header_t header;
	header.byte = frame->fields.header;
 8004722:	7803      	ldrb	r3, [r0, #0]
	if(header.fields.RTR)
 8004724:	079a      	lsls	r2, r3, #30
 8004726:	d529      	bpl.n	800477c <Husbus_ParseUART+0x6c>
	{
		hcan.pTxMsg->RTR = CAN_RTR_REMOTE;
 8004728:	4a26      	ldr	r2, [pc, #152]	; (80047c4 <Husbus_ParseUART+0xb4>)
 800472a:	6b12      	ldr	r2, [r2, #48]	; 0x30
 800472c:	3101      	adds	r1, #1
 800472e:	60d1      	str	r1, [r2, #12]
	}
	else
	{
		hcan.pTxMsg->RTR = CAN_RTR_DATA;
	}
	if (header.fields.IDEXT) {
 8004730:	07da      	lsls	r2, r3, #31
 8004732:	d528      	bpl.n	8004786 <Husbus_ParseUART+0x76>
		hcan.pTxMsg->IDE = CAN_ID_EXT;
 8004734:	4a23      	ldr	r2, [pc, #140]	; (80047c4 <Husbus_ParseUART+0xb4>)
 8004736:	6b11      	ldr	r1, [r2, #48]	; 0x30
 8004738:	2004      	movs	r0, #4
 800473a:	6088      	str	r0, [r1, #8]
		hcan.pTxMsg->ExtId = (frame->fields.id[3]<<24) | (frame->fields.id[2]<<16) | (frame->fields.id[1])<<8 | frame->fields.id[0];
 800473c:	6b10      	ldr	r0, [r2, #48]	; 0x30
 800473e:	7922      	ldrb	r2, [r4, #4]
 8004740:	0612      	lsls	r2, r2, #24
 8004742:	78e1      	ldrb	r1, [r4, #3]
 8004744:	0409      	lsls	r1, r1, #16
 8004746:	430a      	orrs	r2, r1
 8004748:	78a1      	ldrb	r1, [r4, #2]
 800474a:	0209      	lsls	r1, r1, #8
 800474c:	430a      	orrs	r2, r1
 800474e:	7861      	ldrb	r1, [r4, #1]
 8004750:	430a      	orrs	r2, r1
 8004752:	6042      	str	r2, [r0, #4]
	} else {
		hcan.pTxMsg->IDE = CAN_ID_STD;
		hcan.pTxMsg->StdId = (frame->fields.id[1]<<8) | frame->fields.id[0];
	}
	hcan.pTxMsg->DLC = header.fields.DLC;
 8004754:	4a1b      	ldr	r2, [pc, #108]	; (80047c4 <Husbus_ParseUART+0xb4>)
 8004756:	6b11      	ldr	r1, [r2, #48]	; 0x30
 8004758:	069b      	lsls	r3, r3, #26
 800475a:	0f1b      	lsrs	r3, r3, #28
 800475c:	610b      	str	r3, [r1, #16]
	if (hcan.pTxMsg->RTR == CAN_RTR_DATA)
 800475e:	6b13      	ldr	r3, [r2, #48]	; 0x30
 8004760:	68da      	ldr	r2, [r3, #12]
 8004762:	2a00      	cmp	r2, #0
 8004764:	d01a      	beq.n	800479c <Husbus_ParseUART+0x8c>
	{
		memcpy(hcan.pTxMsg->Data, (uint32_t*)&frame->fields.data, hcan.pTxMsg->DLC);
	}
	crc = HAL_CRC_Calculate(&hcrc, (uint32_t*)&frame->bytes, 13);
 8004766:	220d      	movs	r2, #13
 8004768:	0021      	movs	r1, r4
 800476a:	4815      	ldr	r0, [pc, #84]	; (80047c0 <Husbus_ParseUART+0xb0>)
 800476c:	f7fc fb38 	bl	8000de0 <HAL_CRC_Calculate>
	crc = ~crc;
	if((crc & 0xFF) == frame->fields.crc)
 8004770:	23ff      	movs	r3, #255	; 0xff
 8004772:	4383      	bics	r3, r0
 8004774:	7b62      	ldrb	r2, [r4, #13]
 8004776:	4293      	cmp	r3, r2
 8004778:	d017      	beq.n	80047aa <Husbus_ParseUART+0x9a>
	{
		HAL_NVIC_DisableIRQ(CEC_CAN_IRQn);
		HAL_CAN_Transmit(&hcan, 0);
		HAL_NVIC_EnableIRQ(CEC_CAN_IRQn);
	}
}
 800477a:	bd10      	pop	{r4, pc}
		hcan.pTxMsg->RTR = CAN_RTR_DATA;
 800477c:	4a11      	ldr	r2, [pc, #68]	; (80047c4 <Husbus_ParseUART+0xb4>)
 800477e:	6b12      	ldr	r2, [r2, #48]	; 0x30
 8004780:	2100      	movs	r1, #0
 8004782:	60d1      	str	r1, [r2, #12]
 8004784:	e7d4      	b.n	8004730 <Husbus_ParseUART+0x20>
		hcan.pTxMsg->IDE = CAN_ID_STD;
 8004786:	4a0f      	ldr	r2, [pc, #60]	; (80047c4 <Husbus_ParseUART+0xb4>)
 8004788:	6b11      	ldr	r1, [r2, #48]	; 0x30
 800478a:	2000      	movs	r0, #0
 800478c:	6088      	str	r0, [r1, #8]
		hcan.pTxMsg->StdId = (frame->fields.id[1]<<8) | frame->fields.id[0];
 800478e:	6b11      	ldr	r1, [r2, #48]	; 0x30
 8004790:	78a2      	ldrb	r2, [r4, #2]
 8004792:	0212      	lsls	r2, r2, #8
 8004794:	7860      	ldrb	r0, [r4, #1]
 8004796:	4302      	orrs	r2, r0
 8004798:	600a      	str	r2, [r1, #0]
 800479a:	e7db      	b.n	8004754 <Husbus_ParseUART+0x44>
		memcpy(hcan.pTxMsg->Data, (uint32_t*)&frame->fields.data, hcan.pTxMsg->DLC);
 800479c:	0018      	movs	r0, r3
 800479e:	3014      	adds	r0, #20
 80047a0:	1d61      	adds	r1, r4, #5
 80047a2:	691a      	ldr	r2, [r3, #16]
 80047a4:	f001 fbc4 	bl	8005f30 <memcpy>
 80047a8:	e7dd      	b.n	8004766 <Husbus_ParseUART+0x56>
		HAL_NVIC_DisableIRQ(CEC_CAN_IRQn);
 80047aa:	201e      	movs	r0, #30
 80047ac:	f7fc fa46 	bl	8000c3c <HAL_NVIC_DisableIRQ>
		HAL_CAN_Transmit(&hcan, 0);
 80047b0:	2100      	movs	r1, #0
 80047b2:	4804      	ldr	r0, [pc, #16]	; (80047c4 <Husbus_ParseUART+0xb4>)
 80047b4:	f7fb fee2 	bl	800057c <HAL_CAN_Transmit>
		HAL_NVIC_EnableIRQ(CEC_CAN_IRQn);
 80047b8:	201e      	movs	r0, #30
 80047ba:	f7fc fa35 	bl	8000c28 <HAL_NVIC_EnableIRQ>
 80047be:	e7dc      	b.n	800477a <Husbus_ParseUART+0x6a>
 80047c0:	20000570 	.word	0x20000570
 80047c4:	20000594 	.word	0x20000594

080047c8 <HusBus_Update>:
{
 80047c8:	b570      	push	{r4, r5, r6, lr}
	HAL_UART_Receive_DMA(&huart2, uart_buffers[activeBuffer].data, 14);
 80047ca:	4b15      	ldr	r3, [pc, #84]	; (8004820 <HusBus_Update+0x58>)
 80047cc:	781b      	ldrb	r3, [r3, #0]
 80047ce:	0159      	lsls	r1, r3, #5
 80047d0:	1ac9      	subs	r1, r1, r3
 80047d2:	4b14      	ldr	r3, [pc, #80]	; (8004824 <HusBus_Update+0x5c>)
 80047d4:	18c9      	adds	r1, r1, r3
 80047d6:	3101      	adds	r1, #1
 80047d8:	220e      	movs	r2, #14
 80047da:	4813      	ldr	r0, [pc, #76]	; (8004828 <HusBus_Update+0x60>)
 80047dc:	f7fe fdc6 	bl	800336c <HAL_UART_Receive_DMA>
	if(rxFullFlag)
 80047e0:	4b12      	ldr	r3, [pc, #72]	; (800482c <HusBus_Update+0x64>)
 80047e2:	781b      	ldrb	r3, [r3, #0]
 80047e4:	2b00      	cmp	r3, #0
 80047e6:	d100      	bne.n	80047ea <HusBus_Update+0x22>
}
 80047e8:	bd70      	pop	{r4, r5, r6, pc}
		rxFullFlag = 0;
 80047ea:	2200      	movs	r2, #0
 80047ec:	4b0f      	ldr	r3, [pc, #60]	; (800482c <HusBus_Update+0x64>)
 80047ee:	701a      	strb	r2, [r3, #0]
		Husbus_ParseUART((HusBus_Frame_t*) &uart_buffers[activeBuffer].data);
 80047f0:	4d0b      	ldr	r5, [pc, #44]	; (8004820 <HusBus_Update+0x58>)
 80047f2:	782b      	ldrb	r3, [r5, #0]
 80047f4:	0158      	lsls	r0, r3, #5
 80047f6:	1ac0      	subs	r0, r0, r3
 80047f8:	4c0a      	ldr	r4, [pc, #40]	; (8004824 <HusBus_Update+0x5c>)
 80047fa:	1900      	adds	r0, r0, r4
 80047fc:	3001      	adds	r0, #1
 80047fe:	f7ff ff87 	bl	8004710 <Husbus_ParseUART>
		memset(&uart_buffers[activeBuffer].data, 0, sizeof(uart_buffers[0].data));
 8004802:	782b      	ldrb	r3, [r5, #0]
 8004804:	0158      	lsls	r0, r3, #5
 8004806:	1ac0      	subs	r0, r0, r3
 8004808:	1900      	adds	r0, r0, r4
 800480a:	3001      	adds	r0, #1
 800480c:	221e      	movs	r2, #30
 800480e:	2100      	movs	r1, #0
 8004810:	f001 fb97 	bl	8005f42 <memset>
		memset(&rxFrame, 0, sizeof(rxFrame));
 8004814:	220e      	movs	r2, #14
 8004816:	2100      	movs	r1, #0
 8004818:	4805      	ldr	r0, [pc, #20]	; (8004830 <HusBus_Update+0x68>)
 800481a:	f001 fb92 	bl	8005f42 <memset>
}
 800481e:	e7e3      	b.n	80047e8 <HusBus_Update+0x20>
 8004820:	200001a2 	.word	0x200001a2
 8004824:	200007b8 	.word	0x200007b8
 8004828:	20000704 	.word	0x20000704
 800482c:	200001c9 	.word	0x200001c9
 8004830:	20000184 	.word	0x20000184

08004834 <HAL_UART_TxCpltCallback>:
	cursor++;
}

void HAL_UART_TxCpltCallback(UART_HandleTypeDef *huart)
{
	uint32_t err = huart->ErrorCode;
 8004834:	6ec3      	ldr	r3, [r0, #108]	; 0x6c
	UNUSED(err);
}
 8004836:	4770      	bx	lr

08004838 <HAL_UART_ErrorCallback>:
void HAL_UART_ErrorCallback(UART_HandleTypeDef *huart) // peripheral error
{
	uint32_t err = huart->ErrorCode;
 8004838:	6ec3      	ldr	r3, [r0, #108]	; 0x6c
//	HAL_UART_Transmit(&huart2, sl_frame, sl_frame_len, 100);
//	NVIC_SystemReset();
//	HAL_UART_Receive_DMA(huart, uart_buffers[activeBuffer].data, UART_RX_BUFFER_SIZE); //ignore and continue to receive data
	UNUSED(err);
}
 800483a:	4770      	bx	lr

0800483c <HAL_UART_RxCpltCallback>:
void HAL_UART_RxCpltCallback(UART_HandleTypeDef * huart) //new command received on UART
{
 800483c:	b510      	push	{r4, lr}
//	activeBuffer = !activeBuffer; //swap rx buffers
	rxFullFlag = 1; //indicate that data is ready to be parsed
 800483e:	2201      	movs	r2, #1
 8004840:	4b02      	ldr	r3, [pc, #8]	; (800484c <HAL_UART_RxCpltCallback+0x10>)
 8004842:	701a      	strb	r2, [r3, #0]
//	_state = DataReceived;
	rxTimestamp = HAL_GetTick();
 8004844:	f7fb fd34 	bl	80002b0 <HAL_GetTick>
}
 8004848:	bd10      	pop	{r4, pc}
 800484a:	46c0      	nop			; (mov r8, r8)
 800484c:	200001c9 	.word	0x200001c9

08004850 <handleCAN>:
//			uart_buffers[activeBuffer].bufferCleared = 1;
//		}
//
//	}

	if (hUsbDeviceFS.dev_state == USBD_STATE_CONFIGURED) //if USB is connected, check it and not UART
 8004850:	23fe      	movs	r3, #254	; 0xfe
{
 8004852:	b570      	push	{r4, r5, r6, lr}
	if (hUsbDeviceFS.dev_state == USBD_STATE_CONFIGURED) //if USB is connected, check it and not UART
 8004854:	4a0e      	ldr	r2, [pc, #56]	; (8004890 <handleCAN+0x40>)
 8004856:	005b      	lsls	r3, r3, #1
 8004858:	5cd3      	ldrb	r3, [r2, r3]
 800485a:	2b03      	cmp	r3, #3
 800485c:	d115      	bne.n	800488a <handleCAN+0x3a>
	{
		slCanCheckCommand(command);
 800485e:	480d      	ldr	r0, [pc, #52]	; (8004894 <handleCAN+0x44>)
 8004860:	f000 fbd8 	bl	8005014 <slCanCheckCommand>
		if (canRxFlags.flags.byte != 0 )//&& hdma_usart2_tx.State == HAL_DMA_STATE_READY) // potential fix to uart tx buffer overwriting
 8004864:	4c0c      	ldr	r4, [pc, #48]	; (8004898 <handleCAN+0x48>)
 8004866:	7823      	ldrb	r3, [r4, #0]
 8004868:	2b00      	cmp	r3, #0
 800486a:	d00b      	beq.n	8004884 <handleCAN+0x34>
		{
			slcanReciveCanFrame(hcan.pRxMsg);
 800486c:	4d0b      	ldr	r5, [pc, #44]	; (800489c <handleCAN+0x4c>)
 800486e:	6b68      	ldr	r0, [r5, #52]	; 0x34
 8004870:	f000 fdf0 	bl	8005454 <slcanReciveCanFrame>
			canRxFlags.flags.fifo1 = 0;
 8004874:	2201      	movs	r2, #1
 8004876:	7823      	ldrb	r3, [r4, #0]
			HAL_CAN_Receive_IT(&hcan, CAN_FIFO0);
 8004878:	2100      	movs	r1, #0
			canRxFlags.flags.fifo1 = 0;
 800487a:	4393      	bics	r3, r2
			HAL_CAN_Receive_IT(&hcan, CAN_FIFO0);
 800487c:	0028      	movs	r0, r5
			canRxFlags.flags.fifo1 = 0;
 800487e:	7023      	strb	r3, [r4, #0]
			HAL_CAN_Receive_IT(&hcan, CAN_FIFO0);
 8004880:	f7fb ff38 	bl	80006f4 <HAL_CAN_Receive_IT>
		}
		slcanOutputFlush(); //send data via UART or USB (if connected)
 8004884:	f000 fb7a 	bl	8004f7c <slcanOutputFlush>
		HusBus_Update();
//		Husbus_ParseUART(command);
	}


}
 8004888:	bd70      	pop	{r4, r5, r6, pc}
		HusBus_Update();
 800488a:	f7ff ff9d 	bl	80047c8 <HusBus_Update>
}
 800488e:	e7fb      	b.n	8004888 <handleCAN+0x38>
 8004890:	2000081c 	.word	0x2000081c
 8004894:	20000290 	.word	0x20000290
 8004898:	2000055c 	.word	0x2000055c
 800489c:	20000594 	.word	0x20000594

080048a0 <pantherLights>:

void pantherLights(void)
{
 80048a0:	b5f0      	push	{r4, r5, r6, r7, lr}
 80048a2:	b087      	sub	sp, #28
	if(HAL_GetTick() - lastAPATick >= 15) // LED strip animation update
 80048a4:	f7fb fd04 	bl	80002b0 <HAL_GetTick>
 80048a8:	4b37      	ldr	r3, [pc, #220]	; (8004988 <pantherLights+0xe8>)
 80048aa:	681b      	ldr	r3, [r3, #0]
 80048ac:	1ac0      	subs	r0, r0, r3
 80048ae:	280e      	cmp	r0, #14
 80048b0:	d961      	bls.n	8004976 <pantherLights+0xd6>
	{
		strip_buffer.endFrame = 0;
 80048b2:	4936      	ldr	r1, [pc, #216]	; (800498c <pantherLights+0xec>)
 80048b4:	2300      	movs	r3, #0
 80048b6:	000a      	movs	r2, r1
 80048b8:	32bc      	adds	r2, #188	; 0xbc
 80048ba:	6013      	str	r3, [r2, #0]
		strip_buffer.startFrame = 0;
 80048bc:	600b      	str	r3, [r1, #0]

		// Fade out colors
		  int r = strip_buffer.strip[i].fields.red - 2;
		  int g = strip_buffer.strip[i].fields.green - 2;
		  // Draw white lines
		  if (i == counter - 0 || NUM_LEDS - i == (counter - 200) * 2 || NUM_LEDS - i == (counter - 200) * 2 - 1) {
 80048be:	4b34      	ldr	r3, [pc, #208]	; (8004990 <pantherLights+0xf0>)
			  g = 0;
		  }
		  // Set color to pixel buffer
		  strip_buffer.strip[i].fields.red = (uint8_t)r;
		  strip_buffer.strip[i].fields.green = (uint8_t)g;
		  strip_buffer.strip[i].fields.blue = (errCode & ERR_CODE_CAN) == ERR_CODE_CAN ? 0 : (uint8_t)g;
 80048c0:	202e      	movs	r0, #46	; 0x2e
		  if (i == counter - 0 || NUM_LEDS - i == (counter - 200) * 2 || NUM_LEDS - i == (counter - 200) * 2 - 1) {
 80048c2:	881c      	ldrh	r4, [r3, #0]
 80048c4:	3105      	adds	r1, #5
 80048c6:	0023      	movs	r3, r4
 80048c8:	3bc8      	subs	r3, #200	; 0xc8
 80048ca:	005b      	lsls	r3, r3, #1
 80048cc:	9300      	str	r3, [sp, #0]
 80048ce:	3b01      	subs	r3, #1
 80048d0:	9302      	str	r3, [sp, #8]
		  if (NUM_LEDS - i == (counter * 2) - 50 || NUM_LEDS - i == (counter * 2) - 50 + 1 || i == counter - 160) {
 80048d2:	0023      	movs	r3, r4
 80048d4:	3b19      	subs	r3, #25
 80048d6:	005b      	lsls	r3, r3, #1
 80048d8:	9301      	str	r3, [sp, #4]
 80048da:	3301      	adds	r3, #1
 80048dc:	9304      	str	r3, [sp, #16]
 80048de:	0023      	movs	r3, r4
 80048e0:	3ba0      	subs	r3, #160	; 0xa0
 80048e2:	9303      	str	r3, [sp, #12]
		  strip_buffer.strip[i].fields.blue = (errCode & ERR_CODE_CAN) == ERR_CODE_CAN ? 0 : (uint8_t)g;
 80048e4:	4b2b      	ldr	r3, [pc, #172]	; (8004994 <pantherLights+0xf4>)
 80048e6:	681a      	ldr	r2, [r3, #0]
 80048e8:	2301      	movs	r3, #1
 80048ea:	4013      	ands	r3, r2
		  strip_buffer.strip[i].fields.red = (uint8_t)r;
 80048ec:	227f      	movs	r2, #127	; 0x7f
 80048ee:	4694      	mov	ip, r2
		  strip_buffer.strip[i].fields.blue = (errCode & ERR_CODE_CAN) == ERR_CODE_CAN ? 0 : (uint8_t)g;
 80048f0:	3b01      	subs	r3, #1
 80048f2:	9305      	str	r3, [sp, #20]
 80048f4:	232e      	movs	r3, #46	; 0x2e
		  int r = strip_buffer.strip[i].fields.red - 2;
 80048f6:	788a      	ldrb	r2, [r1, #2]
 80048f8:	1a1d      	subs	r5, r3, r0
		  int g = strip_buffer.strip[i].fields.green - 2;
 80048fa:	784b      	ldrb	r3, [r1, #1]
		  if (i == counter - 0 || NUM_LEDS - i == (counter - 200) * 2 || NUM_LEDS - i == (counter - 200) * 2 - 1) {
 80048fc:	42ac      	cmp	r4, r5
 80048fe:	d03c      	beq.n	800497a <pantherLights+0xda>
 8004900:	9e00      	ldr	r6, [sp, #0]
 8004902:	42b0      	cmp	r0, r6
 8004904:	d039      	beq.n	800497a <pantherLights+0xda>
 8004906:	9e02      	ldr	r6, [sp, #8]
 8004908:	42b0      	cmp	r0, r6
 800490a:	d036      	beq.n	800497a <pantherLights+0xda>
		  int r = strip_buffer.strip[i].fields.red - 2;
 800490c:	3a02      	subs	r2, #2
		  int g = strip_buffer.strip[i].fields.green - 2;
 800490e:	3b02      	subs	r3, #2
		  if (NUM_LEDS - i == (counter * 2) - 50 || NUM_LEDS - i == (counter * 2) - 50 + 1 || i == counter - 160) {
 8004910:	9e01      	ldr	r6, [sp, #4]
 8004912:	4286      	cmp	r6, r0
 8004914:	d005      	beq.n	8004922 <pantherLights+0x82>
 8004916:	9e04      	ldr	r6, [sp, #16]
 8004918:	42b0      	cmp	r0, r6
 800491a:	d002      	beq.n	8004922 <pantherLights+0x82>
 800491c:	9e03      	ldr	r6, [sp, #12]
 800491e:	42b5      	cmp	r5, r6
 8004920:	d100      	bne.n	8004924 <pantherLights+0x84>
			r += 127;
 8004922:	327f      	adds	r2, #127	; 0x7f
 8004924:	43d6      	mvns	r6, r2
 8004926:	43df      	mvns	r7, r3
 8004928:	17f6      	asrs	r6, r6, #31
 800492a:	17ff      	asrs	r7, r7, #31
 800492c:	403b      	ands	r3, r7
		  strip_buffer.strip[i].fields.red = (uint8_t)r;
 800492e:	4032      	ands	r2, r6
 8004930:	2a7f      	cmp	r2, #127	; 0x7f
 8004932:	dd00      	ble.n	8004936 <pantherLights+0x96>
 8004934:	4662      	mov	r2, ip
 8004936:	708a      	strb	r2, [r1, #2]
		  strip_buffer.strip[i].fields.green = (uint8_t)g;
 8004938:	2b7f      	cmp	r3, #127	; 0x7f
 800493a:	dd00      	ble.n	800493e <pantherLights+0x9e>
 800493c:	4663      	mov	r3, ip
		  strip_buffer.strip[i].fields.blue = (errCode & ERR_CODE_CAN) == ERR_CODE_CAN ? 0 : (uint8_t)g;
 800493e:	9a05      	ldr	r2, [sp, #20]
		  strip_buffer.strip[i].fields.green = (uint8_t)g;
 8004940:	b2db      	uxtb	r3, r3
 8004942:	704b      	strb	r3, [r1, #1]
		  strip_buffer.strip[i].fields.blue = (errCode & ERR_CODE_CAN) == ERR_CODE_CAN ? 0 : (uint8_t)g;
 8004944:	4013      	ands	r3, r2
 8004946:	700b      	strb	r3, [r1, #0]
		  strip_buffer.strip[i].fields.brightness =  (uint8_t)0xF;
 8004948:	4b10      	ldr	r3, [pc, #64]	; (800498c <pantherLights+0xec>)
 800494a:	00ad      	lsls	r5, r5, #2
 800494c:	195d      	adds	r5, r3, r5
 800494e:	2307      	movs	r3, #7
 8004950:	792a      	ldrb	r2, [r5, #4]
 8004952:	3801      	subs	r0, #1
 8004954:	401a      	ands	r2, r3
 8004956:	3371      	adds	r3, #113	; 0x71
 8004958:	4313      	orrs	r3, r2
 800495a:	712b      	strb	r3, [r5, #4]
 800495c:	3104      	adds	r1, #4
		for (uint8_t i = 0; i < NUM_LEDS; i++)
 800495e:	2800      	cmp	r0, #0
 8004960:	d1c8      	bne.n	80048f4 <pantherLights+0x54>

		}
		// Reset counter
		if (counter == 380) {
 8004962:	22be      	movs	r2, #190	; 0xbe
 8004964:	4b0a      	ldr	r3, [pc, #40]	; (8004990 <pantherLights+0xf0>)
 8004966:	0052      	lsls	r2, r2, #1
 8004968:	4294      	cmp	r4, r2
 800496a:	d109      	bne.n	8004980 <pantherLights+0xe0>
		  counter = 0;
 800496c:	8018      	strh	r0, [r3, #0]
		}
		else {
		  counter++;
		}
		lastAPATick = HAL_GetTick();
 800496e:	f7fb fc9f 	bl	80002b0 <HAL_GetTick>
 8004972:	4b05      	ldr	r3, [pc, #20]	; (8004988 <pantherLights+0xe8>)
 8004974:	6018      	str	r0, [r3, #0]
	}

}
 8004976:	b007      	add	sp, #28
 8004978:	bdf0      	pop	{r4, r5, r6, r7, pc}
			r += 127;
 800497a:	327d      	adds	r2, #125	; 0x7d
			g += 127;
 800497c:	337d      	adds	r3, #125	; 0x7d
 800497e:	e7c7      	b.n	8004910 <pantherLights+0x70>
		  counter++;
 8004980:	3401      	adds	r4, #1
 8004982:	801c      	strh	r4, [r3, #0]
 8004984:	e7f3      	b.n	800496e <pantherLights+0xce>
 8004986:	46c0      	nop			; (mov r8, r8)
 8004988:	200001c0 	.word	0x200001c0
 800498c:	200001cc 	.word	0x200001cc
 8004990:	200001a4 	.word	0x200001a4
 8004994:	200001a8 	.word	0x200001a8

08004998 <toggleLED>:

void toggleLED(void)
{
 8004998:	b510      	push	{r4, lr}
	if(HAL_GetTick() - lastLEDTick >= 250) // status led handling
 800499a:	f7fb fc89 	bl	80002b0 <HAL_GetTick>
 800499e:	4c0d      	ldr	r4, [pc, #52]	; (80049d4 <toggleLED+0x3c>)
 80049a0:	6823      	ldr	r3, [r4, #0]
 80049a2:	1ac0      	subs	r0, r0, r3
 80049a4:	28f9      	cmp	r0, #249	; 0xf9
 80049a6:	d90d      	bls.n	80049c4 <toggleLED+0x2c>
	{
		lastLEDTick = HAL_GetTick();
 80049a8:	f7fb fc82 	bl	80002b0 <HAL_GetTick>
 80049ac:	6020      	str	r0, [r4, #0]
		switch(slcan_getState())
 80049ae:	f000 fd4b 	bl	8005448 <slcan_getState>
 80049b2:	2801      	cmp	r0, #1
 80049b4:	d001      	beq.n	80049ba <toggleLED+0x22>
 80049b6:	2802      	cmp	r0, #2
 80049b8:	d105      	bne.n	80049c6 <toggleLED+0x2e>
		{
		case STATE_OPEN:
			HAL_GPIO_TogglePin(LED_GPIO_Port, LED_Pin);
			break;
		case STATE_LISTEN:
			HAL_GPIO_TogglePin(LED_GPIO_Port, LED_Pin);
 80049ba:	2180      	movs	r1, #128	; 0x80
 80049bc:	4806      	ldr	r0, [pc, #24]	; (80049d8 <toggleLED+0x40>)
 80049be:	00c9      	lsls	r1, r1, #3
 80049c0:	f7fc fdb6 	bl	8001530 <HAL_GPIO_TogglePin>
		default:
			HAL_GPIO_WritePin(LED_GPIO_Port, LED_Pin, GPIO_PIN_SET);
			break;
		}
	}
}
 80049c4:	bd10      	pop	{r4, pc}
			HAL_GPIO_WritePin(LED_GPIO_Port, LED_Pin, GPIO_PIN_SET);
 80049c6:	2180      	movs	r1, #128	; 0x80
 80049c8:	2201      	movs	r2, #1
 80049ca:	00c9      	lsls	r1, r1, #3
 80049cc:	4802      	ldr	r0, [pc, #8]	; (80049d8 <toggleLED+0x40>)
 80049ce:	f7fc fda9 	bl	8001524 <HAL_GPIO_WritePin>
}
 80049d2:	e7f7      	b.n	80049c4 <toggleLED+0x2c>
 80049d4:	200001c4 	.word	0x200001c4
 80049d8:	48000400 	.word	0x48000400

080049dc <hUCCB_HandleBufferError>:

void hUCCB_HandleBufferError()
{
	HAL_UART_Receive_DMA(&huart2, uart_buffers[activeBuffer].data, UART_RX_BUFFER_SIZE);
 80049dc:	211f      	movs	r1, #31
{
 80049de:	b510      	push	{r4, lr}
	HAL_UART_Receive_DMA(&huart2, uart_buffers[activeBuffer].data, UART_RX_BUFFER_SIZE);
 80049e0:	4b05      	ldr	r3, [pc, #20]	; (80049f8 <hUCCB_HandleBufferError+0x1c>)
 80049e2:	221e      	movs	r2, #30
 80049e4:	781b      	ldrb	r3, [r3, #0]
 80049e6:	4805      	ldr	r0, [pc, #20]	; (80049fc <hUCCB_HandleBufferError+0x20>)
 80049e8:	4359      	muls	r1, r3
 80049ea:	4b05      	ldr	r3, [pc, #20]	; (8004a00 <hUCCB_HandleBufferError+0x24>)
 80049ec:	3101      	adds	r1, #1
 80049ee:	18c9      	adds	r1, r1, r3
 80049f0:	f7fe fcbc 	bl	800336c <HAL_UART_Receive_DMA>
}
 80049f4:	bd10      	pop	{r4, pc}
 80049f6:	46c0      	nop			; (mov r8, r8)
 80049f8:	200001a2 	.word	0x200001a2
 80049fc:	20000704 	.word	0x20000704
 8004a00:	200007b8 	.word	0x200007b8

08004a04 <HAL_SPI_TxCpltCallback>:
    _Error_Handler(__FILE__, __LINE__);
  }
}

void HAL_SPI_TxCpltCallback(SPI_HandleTypeDef *hspi)
{
 8004a04:	b510      	push	{r4, lr}
	HAL_GPIO_TogglePin(LED_SEL_FR_GPIO_PORT, LED_SEL_FR_Pin); //switch LED bar between front and rear
 8004a06:	2101      	movs	r1, #1
 8004a08:	4801      	ldr	r0, [pc, #4]	; (8004a10 <HAL_SPI_TxCpltCallback+0xc>)
 8004a0a:	f7fc fd91 	bl	8001530 <HAL_GPIO_TogglePin>
}
 8004a0e:	bd10      	pop	{r4, pc}
 8004a10:	48000400 	.word	0x48000400

08004a14 <HAL_CAN_ErrorCallback>:

void HAL_CAN_ErrorCallback(CAN_HandleTypeDef *hcan) //peripheral error
{
 8004a14:	b510      	push	{r4, lr}
	HAL_CAN_Receive_IT(hcan, CAN_FIFO0); //ignore errors and try to receive normally
 8004a16:	2100      	movs	r1, #0
 8004a18:	f7fb fe6c 	bl	80006f4 <HAL_CAN_Receive_IT>
}
 8004a1c:	bd10      	pop	{r4, pc}
	...

08004a20 <HAL_CAN_RxCpltCallback>:

void HAL_CAN_RxCpltCallback(CAN_HandleTypeDef* hcan) // new CAN frame is present
{
	canRxFlags.flags.fifo1 = 1;
 8004a20:	2301      	movs	r3, #1
{
 8004a22:	b510      	push	{r4, lr}
	canRxFlags.flags.fifo1 = 1;
 8004a24:	4a0b      	ldr	r2, [pc, #44]	; (8004a54 <HAL_CAN_RxCpltCallback+0x34>)
{
 8004a26:	0004      	movs	r4, r0
	canRxFlags.flags.fifo1 = 1;
 8004a28:	7811      	ldrb	r1, [r2, #0]
//	if (canRxFlags.flags.byte != 0)
//			{
				Husbus_ParseCanFrame(hcan->pRxMsg);
 8004a2a:	6b40      	ldr	r0, [r0, #52]	; 0x34
	canRxFlags.flags.fifo1 = 1;
 8004a2c:	430b      	orrs	r3, r1
 8004a2e:	7013      	strb	r3, [r2, #0]
				Husbus_ParseCanFrame(hcan->pRxMsg);
 8004a30:	f7ff fe0e 	bl	8004650 <Husbus_ParseCanFrame>
//				canRxFlags.flags.fifo1 = 0;
				if(HAL_DMA_GetState(&hdma_usart2_tx) == HAL_DMA_STATE_READY)
 8004a34:	4808      	ldr	r0, [pc, #32]	; (8004a58 <HAL_CAN_RxCpltCallback+0x38>)
 8004a36:	f7fc fb12 	bl	800105e <HAL_DMA_GetState>
 8004a3a:	2801      	cmp	r0, #1
 8004a3c:	d104      	bne.n	8004a48 <HAL_CAN_RxCpltCallback+0x28>
				{
					HAL_UART_Transmit_DMA(&huart2, husBufTx, 14);
 8004a3e:	220e      	movs	r2, #14
 8004a40:	4906      	ldr	r1, [pc, #24]	; (8004a5c <HAL_CAN_RxCpltCallback+0x3c>)
 8004a42:	4807      	ldr	r0, [pc, #28]	; (8004a60 <HAL_CAN_RxCpltCallback+0x40>)
 8004a44:	f7fe fc4c 	bl	80032e0 <HAL_UART_Transmit_DMA>
				}
				HAL_CAN_Receive_IT(hcan, CAN_FIFO0);
 8004a48:	2100      	movs	r1, #0
 8004a4a:	0020      	movs	r0, r4
 8004a4c:	f7fb fe52 	bl	80006f4 <HAL_CAN_Receive_IT>
//			}
//    HAL_CAN_Receive_IT(hcan,CAN_FIFO0);
}
 8004a50:	bd10      	pop	{r4, pc}
 8004a52:	46c0      	nop			; (mov r8, r8)
 8004a54:	2000055c 	.word	0x2000055c
 8004a58:	20000618 	.word	0x20000618
 8004a5c:	200001ac 	.word	0x200001ac
 8004a60:	20000704 	.word	0x20000704

08004a64 <HAL_CAN_TxCpltCallback>:

void HAL_CAN_TxCpltCallback(CAN_HandleTypeDef* hcan)
{
	msgPending = 0;
 8004a64:	2200      	movs	r2, #0
 8004a66:	4b01      	ldr	r3, [pc, #4]	; (8004a6c <HAL_CAN_TxCpltCallback+0x8>)
 8004a68:	701a      	strb	r2, [r3, #0]
}
 8004a6a:	4770      	bx	lr
 8004a6c:	200001c8 	.word	0x200001c8

08004a70 <HAL_SPI_ErrorCallback>:
  \brief   No Operation
  \details No Operation does nothing. This instruction can be used for code alignment purposes.
 */
__attribute__((always_inline)) __STATIC_INLINE void __NOP(void)
{
  __ASM volatile ("nop");
 8004a70:	46c0      	nop			; (mov r8, r8)

void HAL_SPI_ErrorCallback(SPI_HandleTypeDef *hspi)
{
	__NOP();
}
 8004a72:	4770      	bx	lr

08004a74 <_Error_Handler>:
  * @param  file: The file name as string.
  * @param  line: The line in file as a number.
  * @retval None
  */
void _Error_Handler(char *file, int line)
{
 8004a74:	b510      	push	{r4, lr}
  /* USER CODE BEGIN Error_Handler_Debug */
  /* User can add his own implementation to report the HAL error return state */
	if(strcmp(file, "CAN") == 0)
 8004a76:	4905      	ldr	r1, [pc, #20]	; (8004a8c <_Error_Handler+0x18>)
 8004a78:	f7fb fb46 	bl	8000108 <strcmp>
 8004a7c:	2800      	cmp	r0, #0
 8004a7e:	d104      	bne.n	8004a8a <_Error_Handler+0x16>
	{
		errCode |= ERR_CODE_CAN;
 8004a80:	2301      	movs	r3, #1
 8004a82:	4a03      	ldr	r2, [pc, #12]	; (8004a90 <_Error_Handler+0x1c>)
 8004a84:	6811      	ldr	r1, [r2, #0]
 8004a86:	430b      	orrs	r3, r1
 8004a88:	6013      	str	r3, [r2, #0]
//	while(1)
//	{
//
//	}
  /* USER CODE END Error_Handler_Debug */
}
 8004a8a:	bd10      	pop	{r4, pc}
 8004a8c:	08005ffe 	.word	0x08005ffe
 8004a90:	200001a8 	.word	0x200001a8

08004a94 <SystemClock_Config>:
  RCC_OscInitStruct.OscillatorType = RCC_OSCILLATORTYPE_HSI48|RCC_OSCILLATORTYPE_LSI|RCC_OSCILLATORTYPE_HSE;
 8004a94:	2329      	movs	r3, #41	; 0x29
{
 8004a96:	b500      	push	{lr}
 8004a98:	b099      	sub	sp, #100	; 0x64
  RCC_OscInitStruct.OscillatorType = RCC_OSCILLATORTYPE_HSI48|RCC_OSCILLATORTYPE_LSI|RCC_OSCILLATORTYPE_HSE;
 8004a9a:	930b      	str	r3, [sp, #44]	; 0x2c
  RCC_OscInitStruct.HSI48State = RCC_HSI48_ON;
 8004a9c:	3b28      	subs	r3, #40	; 0x28
 8004a9e:	9313      	str	r3, [sp, #76]	; 0x4c
  RCC_OscInitStruct.HSEState = RCC_HSE_ON;
 8004aa0:	930c      	str	r3, [sp, #48]	; 0x30
  RCC_OscInitStruct.LSIState = RCC_LSI_ON;
 8004aa2:	9312      	str	r3, [sp, #72]	; 0x48
  RCC_OscInitStruct.PLL.PLLState = RCC_PLL_ON;
 8004aa4:	3301      	adds	r3, #1
 8004aa6:	9314      	str	r3, [sp, #80]	; 0x50
  RCC_OscInitStruct.PLL.PLLMUL = RCC_PLL_MUL6;
 8004aa8:	2380      	movs	r3, #128	; 0x80
 8004aaa:	035b      	lsls	r3, r3, #13
 8004aac:	9316      	str	r3, [sp, #88]	; 0x58
  RCC_OscInitStruct.PLL.PLLSource = RCC_PLLSOURCE_HSE;
 8004aae:	2380      	movs	r3, #128	; 0x80
 8004ab0:	025b      	lsls	r3, r3, #9
 8004ab2:	9315      	str	r3, [sp, #84]	; 0x54
  RCC_OscInitStruct.PLL.PREDIV = RCC_PREDIV_DIV1;
 8004ab4:	2300      	movs	r3, #0
  if (HAL_RCC_OscConfig(&RCC_OscInitStruct) != HAL_OK)
 8004ab6:	a80b      	add	r0, sp, #44	; 0x2c
  RCC_OscInitStruct.PLL.PREDIV = RCC_PREDIV_DIV1;
 8004ab8:	9317      	str	r3, [sp, #92]	; 0x5c
  if (HAL_RCC_OscConfig(&RCC_OscInitStruct) != HAL_OK)
 8004aba:	f7fd fe77 	bl	80027ac <HAL_RCC_OscConfig>
 8004abe:	2800      	cmp	r0, #0
 8004ac0:	d004      	beq.n	8004acc <SystemClock_Config+0x38>
    _Error_Handler(__FILE__, __LINE__);
 8004ac2:	2187      	movs	r1, #135	; 0x87
 8004ac4:	481b      	ldr	r0, [pc, #108]	; (8004b34 <SystemClock_Config+0xa0>)
 8004ac6:	0049      	lsls	r1, r1, #1
 8004ac8:	f7ff ffd4 	bl	8004a74 <_Error_Handler>
  RCC_ClkInitStruct.ClockType = RCC_CLOCKTYPE_HCLK|RCC_CLOCKTYPE_SYSCLK
 8004acc:	2307      	movs	r3, #7
 8004ace:	9301      	str	r3, [sp, #4]
  RCC_ClkInitStruct.SYSCLKSource = RCC_SYSCLKSOURCE_PLLCLK;
 8004ad0:	3b05      	subs	r3, #5
 8004ad2:	9302      	str	r3, [sp, #8]
  RCC_ClkInitStruct.AHBCLKDivider = RCC_SYSCLK_DIV1;
 8004ad4:	2300      	movs	r3, #0
  if (HAL_RCC_ClockConfig(&RCC_ClkInitStruct, FLASH_LATENCY_1) != HAL_OK)
 8004ad6:	2101      	movs	r1, #1
 8004ad8:	a801      	add	r0, sp, #4
  RCC_ClkInitStruct.AHBCLKDivider = RCC_SYSCLK_DIV1;
 8004ada:	9303      	str	r3, [sp, #12]
  RCC_ClkInitStruct.APB1CLKDivider = RCC_HCLK_DIV1;
 8004adc:	9304      	str	r3, [sp, #16]
  if (HAL_RCC_ClockConfig(&RCC_ClkInitStruct, FLASH_LATENCY_1) != HAL_OK)
 8004ade:	f7fd ffcd 	bl	8002a7c <HAL_RCC_ClockConfig>
 8004ae2:	2800      	cmp	r0, #0
 8004ae4:	d004      	beq.n	8004af0 <SystemClock_Config+0x5c>
    _Error_Handler(__FILE__, __LINE__);
 8004ae6:	218e      	movs	r1, #142	; 0x8e
 8004ae8:	4812      	ldr	r0, [pc, #72]	; (8004b34 <SystemClock_Config+0xa0>)
 8004aea:	0049      	lsls	r1, r1, #1
 8004aec:	f7ff ffc2 	bl	8004a74 <_Error_Handler>
  PeriphClkInit.PeriphClockSelection = RCC_PERIPHCLK_USB;
 8004af0:	2380      	movs	r3, #128	; 0x80
 8004af2:	029b      	lsls	r3, r3, #10
 8004af4:	9305      	str	r3, [sp, #20]
  PeriphClkInit.UsbClockSelection = RCC_USBCLKSOURCE_HSI48;
 8004af6:	2300      	movs	r3, #0
  if (HAL_RCCEx_PeriphCLKConfig(&PeriphClkInit) != HAL_OK)
 8004af8:	a805      	add	r0, sp, #20
  PeriphClkInit.UsbClockSelection = RCC_USBCLKSOURCE_HSI48;
 8004afa:	930a      	str	r3, [sp, #40]	; 0x28
  if (HAL_RCCEx_PeriphCLKConfig(&PeriphClkInit) != HAL_OK)
 8004afc:	f7fe f896 	bl	8002c2c <HAL_RCCEx_PeriphCLKConfig>
 8004b00:	2800      	cmp	r0, #0
 8004b02:	d004      	beq.n	8004b0e <SystemClock_Config+0x7a>
    _Error_Handler(__FILE__, __LINE__);
 8004b04:	2192      	movs	r1, #146	; 0x92
 8004b06:	480b      	ldr	r0, [pc, #44]	; (8004b34 <SystemClock_Config+0xa0>)
 8004b08:	0049      	lsls	r1, r1, #1
 8004b0a:	f7ff ffb3 	bl	8004a74 <_Error_Handler>
  HAL_SYSTICK_Config(HAL_RCC_GetHCLKFreq()/1000);
 8004b0e:	f7fe f877 	bl	8002c00 <HAL_RCC_GetHCLKFreq>
 8004b12:	21fa      	movs	r1, #250	; 0xfa
 8004b14:	0089      	lsls	r1, r1, #2
 8004b16:	f7fb fb15 	bl	8000144 <__udivsi3>
 8004b1a:	f7fc f899 	bl	8000c50 <HAL_SYSTICK_Config>
  HAL_SYSTICK_CLKSourceConfig(SYSTICK_CLKSOURCE_HCLK);
 8004b1e:	2004      	movs	r0, #4
 8004b20:	f7fc f8b2 	bl	8000c88 <HAL_SYSTICK_CLKSourceConfig>
  HAL_NVIC_SetPriority(SysTick_IRQn, 2, 2);
 8004b24:	2202      	movs	r2, #2
 8004b26:	2001      	movs	r0, #1
 8004b28:	0011      	movs	r1, r2
 8004b2a:	4240      	negs	r0, r0
 8004b2c:	f7fc f84a 	bl	8000bc4 <HAL_NVIC_SetPriority>
}
 8004b30:	b019      	add	sp, #100	; 0x64
 8004b32:	bd00      	pop	{pc}
 8004b34:	08005ff0 	.word	0x08005ff0

08004b38 <main>:
 	serialNumber = TYPE_ID | (((*uid) << 8) & 0xFFFFFF00);
 8004b38:	4b85      	ldr	r3, [pc, #532]	; (8004d50 <main+0x218>)
{
 8004b3a:	b5f0      	push	{r4, r5, r6, r7, lr}
 	serialNumber = TYPE_ID | (((*uid) << 8) & 0xFFFFFF00);
 8004b3c:	681b      	ldr	r3, [r3, #0]
{
 8004b3e:	b089      	sub	sp, #36	; 0x24
 	serialNumber = TYPE_ID | (((*uid) << 8) & 0xFFFFFF00);
 8004b40:	681a      	ldr	r2, [r3, #0]
 8004b42:	2316      	movs	r3, #22
 8004b44:	0212      	lsls	r2, r2, #8
 8004b46:	4313      	orrs	r3, r2
 8004b48:	4a82      	ldr	r2, [pc, #520]	; (8004d54 <main+0x21c>)
  __HAL_RCC_GPIOA_CLK_ENABLE();
 8004b4a:	4d83      	ldr	r5, [pc, #524]	; (8004d58 <main+0x220>)
 	serialNumber = TYPE_ID | (((*uid) << 8) & 0xFFFFFF00);
 8004b4c:	6013      	str	r3, [r2, #0]
  HAL_Init();
 8004b4e:	f7fb fb97 	bl	8000280 <HAL_Init>
  SystemClock_Config();
 8004b52:	f7ff ff9f 	bl	8004a94 <SystemClock_Config>
  __HAL_RCC_GPIOA_CLK_ENABLE();
 8004b56:	2180      	movs	r1, #128	; 0x80
 8004b58:	696a      	ldr	r2, [r5, #20]
 8004b5a:	0289      	lsls	r1, r1, #10
 8004b5c:	430a      	orrs	r2, r1
 8004b5e:	616a      	str	r2, [r5, #20]
 8004b60:	696b      	ldr	r3, [r5, #20]
  HAL_GPIO_WritePin(CAN_MOD_GPIO_Port, CAN_MOD_Pin|LED_Pin, GPIO_PIN_RESET);
 8004b62:	2482      	movs	r4, #130	; 0x82
  __HAL_RCC_GPIOA_CLK_ENABLE();
 8004b64:	400b      	ands	r3, r1
  __HAL_RCC_GPIOB_CLK_ENABLE();
 8004b66:	2180      	movs	r1, #128	; 0x80
  GPIO_InitStruct.Pull = GPIO_NOPULL;
 8004b68:	2600      	movs	r6, #0
  GPIO_InitStruct.Mode = GPIO_MODE_OUTPUT_PP;
 8004b6a:	2701      	movs	r7, #1
  __HAL_RCC_GPIOA_CLK_ENABLE();
 8004b6c:	9301      	str	r3, [sp, #4]
 8004b6e:	9b01      	ldr	r3, [sp, #4]
  __HAL_RCC_GPIOB_CLK_ENABLE();
 8004b70:	696a      	ldr	r2, [r5, #20]
 8004b72:	02c9      	lsls	r1, r1, #11
 8004b74:	430a      	orrs	r2, r1
 8004b76:	616a      	str	r2, [r5, #20]
 8004b78:	696b      	ldr	r3, [r5, #20]
  HAL_GPIO_WritePin(CAN_MOD_GPIO_Port, CAN_MOD_Pin|LED_Pin, GPIO_PIN_RESET);
 8004b7a:	00e4      	lsls	r4, r4, #3
  __HAL_RCC_GPIOB_CLK_ENABLE();
 8004b7c:	400b      	ands	r3, r1
  HAL_GPIO_WritePin(CAN_MOD_GPIO_Port, CAN_MOD_Pin|LED_Pin, GPIO_PIN_RESET);
 8004b7e:	2200      	movs	r2, #0
 8004b80:	0021      	movs	r1, r4
  __HAL_RCC_GPIOB_CLK_ENABLE();
 8004b82:	9302      	str	r3, [sp, #8]
  HAL_GPIO_WritePin(CAN_MOD_GPIO_Port, CAN_MOD_Pin|LED_Pin, GPIO_PIN_RESET);
 8004b84:	4875      	ldr	r0, [pc, #468]	; (8004d5c <main+0x224>)
  __HAL_RCC_GPIOB_CLK_ENABLE();
 8004b86:	9b02      	ldr	r3, [sp, #8]
  HAL_GPIO_WritePin(CAN_MOD_GPIO_Port, CAN_MOD_Pin|LED_Pin, GPIO_PIN_RESET);
 8004b88:	f7fc fccc 	bl	8001524 <HAL_GPIO_WritePin>
  HAL_GPIO_Init(CAN_MOD_GPIO_Port, &GPIO_InitStruct);
 8004b8c:	a903      	add	r1, sp, #12
 8004b8e:	4873      	ldr	r0, [pc, #460]	; (8004d5c <main+0x224>)
  GPIO_InitStruct.Pin = CAN_MOD_Pin | LED_Pin;
 8004b90:	9403      	str	r4, [sp, #12]
  GPIO_InitStruct.Mode = GPIO_MODE_OUTPUT_PP;
 8004b92:	9704      	str	r7, [sp, #16]
  GPIO_InitStruct.Pull = GPIO_NOPULL;
 8004b94:	9605      	str	r6, [sp, #20]
  GPIO_InitStruct.Speed = GPIO_SPEED_FREQ_LOW;
 8004b96:	9606      	str	r6, [sp, #24]
  HAL_GPIO_Init(CAN_MOD_GPIO_Port, &GPIO_InitStruct);
 8004b98:	f7fc fc04 	bl	80013a4 <HAL_GPIO_Init>
  	GPIO_InitStruct.Speed = GPIO_SPEED_FREQ_HIGH;
 8004b9c:	2303      	movs	r3, #3
  	HAL_GPIO_Init(GPIOB, &GPIO_InitStruct);
 8004b9e:	486f      	ldr	r0, [pc, #444]	; (8004d5c <main+0x224>)
 8004ba0:	a903      	add	r1, sp, #12
  	GPIO_InitStruct.Speed = GPIO_SPEED_FREQ_HIGH;
 8004ba2:	9306      	str	r3, [sp, #24]
  	GPIO_InitStruct.Pin = GPIO_PIN_0;
 8004ba4:	9703      	str	r7, [sp, #12]
  	GPIO_InitStruct.Mode = GPIO_MODE_OUTPUT_PP;
 8004ba6:	9704      	str	r7, [sp, #16]
  	GPIO_InitStruct.Pull = GPIO_NOPULL;
 8004ba8:	9605      	str	r6, [sp, #20]
  	HAL_GPIO_Init(GPIOB, &GPIO_InitStruct);
 8004baa:	f7fc fbfb 	bl	80013a4 <HAL_GPIO_Init>
  hcan.Instance = CAN;
 8004bae:	4c6c      	ldr	r4, [pc, #432]	; (8004d60 <main+0x228>)
 8004bb0:	4b6c      	ldr	r3, [pc, #432]	; (8004d64 <main+0x22c>)
  if (HAL_CAN_Init(&hcan) != HAL_OK)
 8004bb2:	0020      	movs	r0, r4
  hcan.Instance = CAN;
 8004bb4:	6023      	str	r3, [r4, #0]
  hcan.Init.Prescaler = 3;
 8004bb6:	2303      	movs	r3, #3
 8004bb8:	6063      	str	r3, [r4, #4]
  hcan.Init.SJW = CAN_SJW_2TQ;
 8004bba:	2380      	movs	r3, #128	; 0x80
 8004bbc:	045b      	lsls	r3, r3, #17
 8004bbe:	60e3      	str	r3, [r4, #12]
  hcan.Init.BS1 = CAN_BS1_11TQ;
 8004bc0:	23a0      	movs	r3, #160	; 0xa0
 8004bc2:	031b      	lsls	r3, r3, #12
 8004bc4:	6123      	str	r3, [r4, #16]
  hcan.Init.BS2 = CAN_BS2_4TQ;
 8004bc6:	23c0      	movs	r3, #192	; 0xc0
 8004bc8:	039b      	lsls	r3, r3, #14
  hcan.Init.Mode = CAN_MODE_NORMAL;
 8004bca:	60a6      	str	r6, [r4, #8]
  hcan.Init.BS2 = CAN_BS2_4TQ;
 8004bcc:	6163      	str	r3, [r4, #20]
  hcan.Init.TTCM = DISABLE;
 8004bce:	61a6      	str	r6, [r4, #24]
  hcan.Init.ABOM = ENABLE;
 8004bd0:	61e7      	str	r7, [r4, #28]
  hcan.Init.AWUM = DISABLE;
 8004bd2:	6226      	str	r6, [r4, #32]
  hcan.Init.NART = DISABLE;
 8004bd4:	6266      	str	r6, [r4, #36]	; 0x24
  hcan.Init.RFLM = DISABLE;
 8004bd6:	62a6      	str	r6, [r4, #40]	; 0x28
  hcan.Init.TXFP = DISABLE;
 8004bd8:	62e6      	str	r6, [r4, #44]	; 0x2c
  if (HAL_CAN_Init(&hcan) != HAL_OK)
 8004bda:	f7fb fc0f 	bl	80003fc <HAL_CAN_Init>
 8004bde:	42b0      	cmp	r0, r6
 8004be0:	d003      	beq.n	8004bea <main+0xb2>
    _Error_Handler("CAN", 0);
 8004be2:	0031      	movs	r1, r6
 8004be4:	4860      	ldr	r0, [pc, #384]	; (8004d68 <main+0x230>)
 8004be6:	f7ff ff45 	bl	8004a74 <_Error_Handler>
    __HAL_RCC_CRC_CLK_ENABLE();
 8004bea:	2140      	movs	r1, #64	; 0x40
 8004bec:	696a      	ldr	r2, [r5, #20]
  hcrc.Instance = CRC;
 8004bee:	485f      	ldr	r0, [pc, #380]	; (8004d6c <main+0x234>)
    __HAL_RCC_CRC_CLK_ENABLE();
 8004bf0:	430a      	orrs	r2, r1
 8004bf2:	616a      	str	r2, [r5, #20]
 8004bf4:	696b      	ldr	r3, [r5, #20]
 8004bf6:	400b      	ands	r3, r1
 8004bf8:	9303      	str	r3, [sp, #12]
 8004bfa:	9b03      	ldr	r3, [sp, #12]
  hcrc.Instance = CRC;
 8004bfc:	4b5c      	ldr	r3, [pc, #368]	; (8004d70 <main+0x238>)
 8004bfe:	6003      	str	r3, [r0, #0]
  hcrc.Init.DefaultPolynomialUse = DEFAULT_POLYNOMIAL_ENABLE;
 8004c00:	2300      	movs	r3, #0
 8004c02:	7103      	strb	r3, [r0, #4]
  hcrc.Init.CRCLength = CRC_POLYLENGTH_32B;
 8004c04:	60c3      	str	r3, [r0, #12]
  hcrc.Init.DefaultInitValueUse = DEFAULT_INIT_VALUE_ENABLE;
 8004c06:	7143      	strb	r3, [r0, #5]
  hcrc.Init.InputDataInversionMode = CRC_INPUTDATA_INVERSION_BYTE;
 8004c08:	3320      	adds	r3, #32
 8004c0a:	6143      	str	r3, [r0, #20]
  hcrc.Init.OutputDataInversionMode = CRC_OUTPUTDATA_INVERSION_ENABLE;
 8004c0c:	3360      	adds	r3, #96	; 0x60
 8004c0e:	6183      	str	r3, [r0, #24]
  hcrc.InputDataFormat = CRC_INPUTDATA_FORMAT_BYTES;
 8004c10:	3b7f      	subs	r3, #127	; 0x7f
 8004c12:	6203      	str	r3, [r0, #32]
  if (HAL_CRC_Init(&hcrc) != HAL_OK)
 8004c14:	f7fc f8a2 	bl	8000d5c <HAL_CRC_Init>
 8004c18:	2800      	cmp	r0, #0
 8004c1a:	d003      	beq.n	8004c24 <main+0xec>
    _Error_Handler(__FILE__, __LINE__);
 8004c1c:	4955      	ldr	r1, [pc, #340]	; (8004d74 <main+0x23c>)
 8004c1e:	4856      	ldr	r0, [pc, #344]	; (8004d78 <main+0x240>)
 8004c20:	f7ff ff28 	bl	8004a74 <_Error_Handler>
  __HAL_RCC_DMA1_CLK_ENABLE();
 8004c24:	2101      	movs	r1, #1
 8004c26:	696a      	ldr	r2, [r5, #20]
  HAL_NVIC_SetPriority(DMA1_Channel2_3_IRQn, 2, 2);
 8004c28:	200a      	movs	r0, #10
  __HAL_RCC_DMA1_CLK_ENABLE();
 8004c2a:	430a      	orrs	r2, r1
 8004c2c:	616a      	str	r2, [r5, #20]
  HAL_NVIC_SetPriority(DMA1_Channel2_3_IRQn, 2, 2);
 8004c2e:	2202      	movs	r2, #2
  __HAL_RCC_DMA1_CLK_ENABLE();
 8004c30:	696b      	ldr	r3, [r5, #20]
  huart2.Instance = USART2;
 8004c32:	4e52      	ldr	r6, [pc, #328]	; (8004d7c <main+0x244>)
  __HAL_RCC_DMA1_CLK_ENABLE();
 8004c34:	400b      	ands	r3, r1
 8004c36:	9300      	str	r3, [sp, #0]
  HAL_NVIC_SetPriority(DMA1_Channel2_3_IRQn, 2, 2);
 8004c38:	0011      	movs	r1, r2
  __HAL_RCC_DMA1_CLK_ENABLE();
 8004c3a:	9b00      	ldr	r3, [sp, #0]
  HAL_NVIC_SetPriority(DMA1_Channel2_3_IRQn, 2, 2);
 8004c3c:	f7fb ffc2 	bl	8000bc4 <HAL_NVIC_SetPriority>
  HAL_NVIC_EnableIRQ(DMA1_Channel2_3_IRQn);
 8004c40:	200a      	movs	r0, #10
 8004c42:	f7fb fff1 	bl	8000c28 <HAL_NVIC_EnableIRQ>
  HAL_NVIC_SetPriority(DMA1_Channel4_5_IRQn, 0, 0);
 8004c46:	2200      	movs	r2, #0
 8004c48:	200b      	movs	r0, #11
 8004c4a:	0011      	movs	r1, r2
 8004c4c:	f7fb ffba 	bl	8000bc4 <HAL_NVIC_SetPriority>
  HAL_NVIC_EnableIRQ(DMA1_Channel4_5_IRQn);
 8004c50:	200b      	movs	r0, #11
 8004c52:	f7fb ffe9 	bl	8000c28 <HAL_NVIC_EnableIRQ>
  huart2.Instance = USART2;
 8004c56:	484a      	ldr	r0, [pc, #296]	; (8004d80 <main+0x248>)
  huart2.Init.BaudRate = 4000000;
 8004c58:	4b4a      	ldr	r3, [pc, #296]	; (8004d84 <main+0x24c>)
  huart2.Instance = USART2;
 8004c5a:	6006      	str	r6, [r0, #0]
  huart2.Init.BaudRate = 4000000;
 8004c5c:	6043      	str	r3, [r0, #4]
  huart2.Init.WordLength = UART_WORDLENGTH_8B;
 8004c5e:	2300      	movs	r3, #0
 8004c60:	6083      	str	r3, [r0, #8]
  huart2.Init.StopBits = UART_STOPBITS_1;
 8004c62:	60c3      	str	r3, [r0, #12]
  huart2.Init.Parity = UART_PARITY_NONE;
 8004c64:	6103      	str	r3, [r0, #16]
  huart2.Init.Mode = UART_MODE_TX_RX;
 8004c66:	330c      	adds	r3, #12
 8004c68:	6143      	str	r3, [r0, #20]
  huart2.Init.HwFlowCtl = UART_HWCONTROL_RTS;
 8004c6a:	33f4      	adds	r3, #244	; 0xf4
 8004c6c:	6183      	str	r3, [r0, #24]
  huart2.Init.OverSampling = UART_OVERSAMPLING_8;
 8004c6e:	2380      	movs	r3, #128	; 0x80
 8004c70:	021b      	lsls	r3, r3, #8
 8004c72:	61c3      	str	r3, [r0, #28]
  huart2.Init.OneBitSampling = UART_ONE_BIT_SAMPLE_ENABLE;
 8004c74:	2380      	movs	r3, #128	; 0x80
 8004c76:	011b      	lsls	r3, r3, #4
 8004c78:	6203      	str	r3, [r0, #32]
  if (HAL_UART_Init(&huart2) != HAL_OK)
 8004c7a:	f7fe fdaf 	bl	80037dc <HAL_UART_Init>
 8004c7e:	2800      	cmp	r0, #0
 8004c80:	d004      	beq.n	8004c8c <main+0x154>
    _Error_Handler(__FILE__, __LINE__);
 8004c82:	21b6      	movs	r1, #182	; 0xb6
 8004c84:	483c      	ldr	r0, [pc, #240]	; (8004d78 <main+0x240>)
 8004c86:	0049      	lsls	r1, r1, #1
 8004c88:	f7ff fef4 	bl	8004a74 <_Error_Handler>
  hspi1.Init.DataSize = SPI_DATASIZE_8BIT;
 8004c8c:	22e0      	movs	r2, #224	; 0xe0
  hspi1.Instance = SPI1;
 8004c8e:	4d3e      	ldr	r5, [pc, #248]	; (8004d88 <main+0x250>)
 8004c90:	4b3e      	ldr	r3, [pc, #248]	; (8004d8c <main+0x254>)
  hspi1.Init.DataSize = SPI_DATASIZE_8BIT;
 8004c92:	00d2      	lsls	r2, r2, #3
  hspi1.Instance = SPI1;
 8004c94:	602b      	str	r3, [r5, #0]
  hspi1.Init.Mode = SPI_MODE_MASTER;
 8004c96:	2382      	movs	r3, #130	; 0x82
  hspi1.Init.DataSize = SPI_DATASIZE_8BIT;
 8004c98:	60ea      	str	r2, [r5, #12]
  hspi1.Init.CLKPolarity = SPI_POLARITY_HIGH;
 8004c9a:	2202      	movs	r2, #2
  hspi1.Init.Mode = SPI_MODE_MASTER;
 8004c9c:	005b      	lsls	r3, r3, #1
 8004c9e:	606b      	str	r3, [r5, #4]
  hspi1.Init.Direction = SPI_DIRECTION_2LINES;
 8004ca0:	2300      	movs	r3, #0
  hspi1.Init.CLKPolarity = SPI_POLARITY_HIGH;
 8004ca2:	612a      	str	r2, [r5, #16]
  hspi1.Init.NSS = SPI_NSS_SOFT;
 8004ca4:	32ff      	adds	r2, #255	; 0xff
 8004ca6:	32ff      	adds	r2, #255	; 0xff
 8004ca8:	61aa      	str	r2, [r5, #24]
  hspi1.Init.BaudRatePrescaler = SPI_BAUDRATEPRESCALER_64;
 8004caa:	3ad9      	subs	r2, #217	; 0xd9
 8004cac:	3aff      	subs	r2, #255	; 0xff
  hspi1.Init.Direction = SPI_DIRECTION_2LINES;
 8004cae:	60ab      	str	r3, [r5, #8]
  hspi1.Init.CLKPhase = SPI_PHASE_1EDGE;
 8004cb0:	616b      	str	r3, [r5, #20]
  hspi1.Init.BaudRatePrescaler = SPI_BAUDRATEPRESCALER_64;
 8004cb2:	61ea      	str	r2, [r5, #28]
  hspi1.Init.FirstBit = SPI_FIRSTBIT_MSB;
 8004cb4:	622b      	str	r3, [r5, #32]
  hspi1.Init.TIMode = SPI_TIMODE_DISABLE;
 8004cb6:	626b      	str	r3, [r5, #36]	; 0x24
  hspi1.Init.CRCCalculation = SPI_CRCCALCULATION_DISABLE;
 8004cb8:	62ab      	str	r3, [r5, #40]	; 0x28
  hspi1.Init.CRCPolynomial = 7;
 8004cba:	3a21      	subs	r2, #33	; 0x21
  hspi1.Init.CRCLength = SPI_CRC_LENGTH_DATASIZE;
 8004cbc:	632b      	str	r3, [r5, #48]	; 0x30
  if (HAL_SPI_Init(&hspi1) != HAL_OK)
 8004cbe:	0028      	movs	r0, r5
  hspi1.Init.NSSPMode = SPI_NSS_PULSE_ENABLE;
 8004cc0:	3308      	adds	r3, #8
  hspi1.Init.CRCPolynomial = 7;
 8004cc2:	62ea      	str	r2, [r5, #44]	; 0x2c
  hspi1.Init.NSSPMode = SPI_NSS_PULSE_ENABLE;
 8004cc4:	636b      	str	r3, [r5, #52]	; 0x34
  if (HAL_SPI_Init(&hspi1) != HAL_OK)
 8004cc6:	f7fe f92f 	bl	8002f28 <HAL_SPI_Init>
 8004cca:	2800      	cmp	r0, #0
 8004ccc:	d004      	beq.n	8004cd8 <main+0x1a0>
    _Error_Handler(__FILE__, __LINE__);
 8004cce:	2197      	movs	r1, #151	; 0x97
 8004cd0:	4829      	ldr	r0, [pc, #164]	; (8004d78 <main+0x240>)
 8004cd2:	0089      	lsls	r1, r1, #2
 8004cd4:	f7ff fece 	bl	8004a74 <_Error_Handler>
  canRxFlags.flags.byte = 0;
 8004cd8:	2700      	movs	r7, #0
  MX_USB_DEVICE_Init();
 8004cda:	f000 fe67 	bl	80059ac <MX_USB_DEVICE_Init>
  hcan.pTxMsg = &CanTxBuffer;
 8004cde:	4b2c      	ldr	r3, [pc, #176]	; (8004d90 <main+0x258>)
 8004ce0:	6323      	str	r3, [r4, #48]	; 0x30
  hcan.pRxMsg = &CanRxBuffer;
 8004ce2:	4b2c      	ldr	r3, [pc, #176]	; (8004d94 <main+0x25c>)
 8004ce4:	6363      	str	r3, [r4, #52]	; 0x34
  canRxFlags.flags.byte = 0;
 8004ce6:	4b2c      	ldr	r3, [pc, #176]	; (8004d98 <main+0x260>)
 8004ce8:	701f      	strb	r7, [r3, #0]
  slcanClearAllFilters();
 8004cea:	f000 fc07 	bl	80054fc <slcanClearAllFilters>
  HAL_NVIC_SetPriority(CEC_CAN_IRQn, 2, 2);
 8004cee:	2202      	movs	r2, #2
 8004cf0:	201e      	movs	r0, #30
 8004cf2:	0011      	movs	r1, r2
 8004cf4:	f7fb ff66 	bl	8000bc4 <HAL_NVIC_SetPriority>
  HAL_CAN_Receive_IT(&hcan, CAN_FIFO0);
 8004cf8:	0020      	movs	r0, r4
  USART2->CR1 &= ~USART_CR1_UE;
 8004cfa:	2401      	movs	r4, #1
  HAL_CAN_Receive_IT(&hcan, CAN_FIFO0);
 8004cfc:	0039      	movs	r1, r7
 8004cfe:	f7fb fcf9 	bl	80006f4 <HAL_CAN_Receive_IT>
  USART2->CR1 &= ~USART_CR1_RXNEIE;
 8004d02:	2220      	movs	r2, #32
  USART2->CR1 &= ~USART_CR1_UE;
 8004d04:	6833      	ldr	r3, [r6, #0]
  HAL_Delay(1);
 8004d06:	0020      	movs	r0, r4
  USART2->CR1 &= ~USART_CR1_UE;
 8004d08:	43a3      	bics	r3, r4
 8004d0a:	6033      	str	r3, [r6, #0]
  USART2->CR1 &= ~USART_CR1_RXNEIE;
 8004d0c:	6833      	ldr	r3, [r6, #0]
 8004d0e:	4393      	bics	r3, r2
 8004d10:	6033      	str	r3, [r6, #0]
  HAL_Delay(1);
 8004d12:	f7fb fad3 	bl	80002bc <HAL_Delay>
  USART2->CR1 |= USART_CR1_UE;
 8004d16:	6833      	ldr	r3, [r6, #0]
  HAL_SPI_Transmit_DMA(&hspi1, (uint8_t*)&strip_buffer, sizeof(struct strip_buffer)); //SPI (led strip)
 8004d18:	22c0      	movs	r2, #192	; 0xc0
  USART2->CR1 |= USART_CR1_UE;
 8004d1a:	431c      	orrs	r4, r3
  HAL_SPI_Transmit_DMA(&hspi1, (uint8_t*)&strip_buffer, sizeof(struct strip_buffer)); //SPI (led strip)
 8004d1c:	491f      	ldr	r1, [pc, #124]	; (8004d9c <main+0x264>)
  USART2->CR1 |= USART_CR1_UE;
 8004d1e:	6034      	str	r4, [r6, #0]
  HAL_SPI_Transmit_DMA(&hspi1, (uint8_t*)&strip_buffer, sizeof(struct strip_buffer)); //SPI (led strip)
 8004d20:	0028      	movs	r0, r5
 8004d22:	f7fe f967 	bl	8002ff4 <HAL_SPI_Transmit_DMA>
  HAL_NVIC_SetPriority(USART2_IRQn, 0, 0);
 8004d26:	201c      	movs	r0, #28
 8004d28:	003a      	movs	r2, r7
 8004d2a:	0039      	movs	r1, r7
 8004d2c:	f7fb ff4a 	bl	8000bc4 <HAL_NVIC_SetPriority>
  NVIC->ISER[0U] = (uint32_t)(1UL << (((uint32_t)(int32_t)IRQn) & 0x1FUL));
 8004d30:	2280      	movs	r2, #128	; 0x80
 8004d32:	4b1b      	ldr	r3, [pc, #108]	; (8004da0 <main+0x268>)
 8004d34:	0552      	lsls	r2, r2, #21
 8004d36:	601a      	str	r2, [r3, #0]
  initCanOnStart();
 8004d38:	f000 f8fe 	bl	8004f38 <initCanOnStart>
  Husbus_Init(husBufTx);
 8004d3c:	4819      	ldr	r0, [pc, #100]	; (8004da4 <main+0x26c>)
 8004d3e:	f7ff fc81 	bl	8004644 <Husbus_Init>
	  handleCAN();
 8004d42:	f7ff fd85 	bl	8004850 <handleCAN>
	  pantherLights();
 8004d46:	f7ff fdab 	bl	80048a0 <pantherLights>
	  toggleLED();
 8004d4a:	f7ff fe25 	bl	8004998 <toggleLED>
 8004d4e:	e7f8      	b.n	8004d42 <main+0x20a>
 8004d50:	20000110 	.word	0x20000110
 8004d54:	20000680 	.word	0x20000680
 8004d58:	40021000 	.word	0x40021000
 8004d5c:	48000400 	.word	0x48000400
 8004d60:	20000594 	.word	0x20000594
 8004d64:	40006400 	.word	0x40006400
 8004d68:	08005ffe 	.word	0x08005ffe
 8004d6c:	20000570 	.word	0x20000570
 8004d70:	40023000 	.word	0x40023000
 8004d74:	00000242 	.word	0x00000242
 8004d78:	08005ff0 	.word	0x08005ff0
 8004d7c:	40004400 	.word	0x40004400
 8004d80:	20000704 	.word	0x20000704
 8004d84:	003d0900 	.word	0x003d0900
 8004d88:	200006a0 	.word	0x200006a0
 8004d8c:	40013000 	.word	0x40013000
 8004d90:	20000684 	.word	0x20000684
 8004d94:	2000065c 	.word	0x2000065c
 8004d98:	2000055c 	.word	0x2000055c
 8004d9c:	200001cc 	.word	0x200001cc
 8004da0:	e000e100 	.word	0xe000e100
 8004da4:	200001ac 	.word	0x200001ac

08004da8 <slcanSetOutputChar>:
  * @param  c - data to add
  * @retval None
  */
static void slcanSetOutputChar(uint8_t c)
{
	if (sl_frame_len < sizeof(sl_frame))
 8004da8:	4b07      	ldr	r3, [pc, #28]	; (8004dc8 <slcanSetOutputChar+0x20>)
 8004daa:	781b      	ldrb	r3, [r3, #0]
 8004dac:	b2db      	uxtb	r3, r3
 8004dae:	2b1f      	cmp	r3, #31
 8004db0:	d808      	bhi.n	8004dc4 <slcanSetOutputChar+0x1c>
	{
		sl_frame[sl_frame_len] = c;
 8004db2:	4a05      	ldr	r2, [pc, #20]	; (8004dc8 <slcanSetOutputChar+0x20>)
 8004db4:	7813      	ldrb	r3, [r2, #0]
 8004db6:	b2db      	uxtb	r3, r3
 8004db8:	4904      	ldr	r1, [pc, #16]	; (8004dcc <slcanSetOutputChar+0x24>)
 8004dba:	54c8      	strb	r0, [r1, r3]
		sl_frame_len ++;
 8004dbc:	7813      	ldrb	r3, [r2, #0]
 8004dbe:	3301      	adds	r3, #1
 8004dc0:	b2db      	uxtb	r3, r3
 8004dc2:	7013      	strb	r3, [r2, #0]
	}
}
 8004dc4:	4770      	bx	lr
 8004dc6:	46c0      	nop			; (mov r8, r8)
 8004dc8:	200002cf 	.word	0x200002cf
 8004dcc:	200007f8 	.word	0x200007f8

08004dd0 <slCanSendNibble>:
  * @brief  Add given nible value as hexadecimal string to buffer
  * @param  c - data to add
  * @retval None
  */
static void slCanSendNibble(uint8_t ch)
{
 8004dd0:	b510      	push	{r4, lr}
	ch = ch > 9 ? ch - 10 + 'A' : ch + '0';
 8004dd2:	2809      	cmp	r0, #9
 8004dd4:	d804      	bhi.n	8004de0 <slCanSendNibble+0x10>
 8004dd6:	3030      	adds	r0, #48	; 0x30
 8004dd8:	b2c0      	uxtb	r0, r0
	slcanSetOutputChar(ch);
 8004dda:	f7ff ffe5 	bl	8004da8 <slcanSetOutputChar>
}
 8004dde:	bd10      	pop	{r4, pc}
	ch = ch > 9 ? ch - 10 + 'A' : ch + '0';
 8004de0:	3037      	adds	r0, #55	; 0x37
 8004de2:	b2c0      	uxtb	r0, r0
 8004de4:	e7f9      	b.n	8004dda <slCanSendNibble+0xa>

08004de6 <slcanSetOutputAsHex>:
  * @brief  Add given byte value as hexadecimal string to buffer
  * @param  value - data to add
  * @retval None
  */
static void slcanSetOutputAsHex(uint8_t ch)
{
 8004de6:	b510      	push	{r4, lr}
 8004de8:	0004      	movs	r4, r0
	slCanSendNibble(ch >> 4);
 8004dea:	0900      	lsrs	r0, r0, #4
 8004dec:	f7ff fff0 	bl	8004dd0 <slCanSendNibble>
	slCanSendNibble(ch & 0x0F);
 8004df0:	200f      	movs	r0, #15
 8004df2:	4020      	ands	r0, r4
 8004df4:	f7ff ffec 	bl	8004dd0 <slCanSendNibble>
}
 8004df8:	bd10      	pop	{r4, pc}

08004dfa <parseHex>:
  * @param  canmsg - line Input string
  * 		len    - of characters to interpret
  * 		value  - Pointer to variable for the resulting decoded value
  * @retval 0 on error, 1 on success
  */
static uint8_t parseHex(uint8_t* line, uint8_t len, uint32_t* value) {
 8004dfa:	b530      	push	{r4, r5, lr}
    *value = 0;
 8004dfc:	2300      	movs	r3, #0
 8004dfe:	6013      	str	r3, [r2, #0]
    while (len--) {
 8004e00:	e009      	b.n	8004e16 <parseHex+0x1c>
        if (*line == 0) return 0;
        *value <<= 4;
        if ((*line >= '0') && (*line <= '9')) {
           *value += *line - '0';
        } else if ((*line >= 'A') && (*line <= 'F')) {
 8004e02:	001d      	movs	r5, r3
 8004e04:	3d41      	subs	r5, #65	; 0x41
 8004e06:	b2ed      	uxtb	r5, r5
 8004e08:	2d05      	cmp	r5, #5
 8004e0a:	d818      	bhi.n	8004e3e <parseHex+0x44>
           *value += *line - 'A' + 10;
 8004e0c:	185b      	adds	r3, r3, r1
 8004e0e:	3b37      	subs	r3, #55	; 0x37
 8004e10:	6013      	str	r3, [r2, #0]
        } else if ((*line >= 'a') && (*line <= 'f')) {
           *value += *line - 'a' + 10;
        } else return 0;
        line++;
 8004e12:	3001      	adds	r0, #1
    while (len--) {
 8004e14:	0021      	movs	r1, r4
 8004e16:	1e4c      	subs	r4, r1, #1
 8004e18:	b2e4      	uxtb	r4, r4
 8004e1a:	2900      	cmp	r1, #0
 8004e1c:	d018      	beq.n	8004e50 <parseHex+0x56>
        if (*line == 0) return 0;
 8004e1e:	7803      	ldrb	r3, [r0, #0]
 8004e20:	2b00      	cmp	r3, #0
 8004e22:	d016      	beq.n	8004e52 <parseHex+0x58>
        *value <<= 4;
 8004e24:	6813      	ldr	r3, [r2, #0]
 8004e26:	0119      	lsls	r1, r3, #4
 8004e28:	6011      	str	r1, [r2, #0]
        if ((*line >= '0') && (*line <= '9')) {
 8004e2a:	7803      	ldrb	r3, [r0, #0]
 8004e2c:	001d      	movs	r5, r3
 8004e2e:	3d30      	subs	r5, #48	; 0x30
 8004e30:	b2ed      	uxtb	r5, r5
 8004e32:	2d09      	cmp	r5, #9
 8004e34:	d8e5      	bhi.n	8004e02 <parseHex+0x8>
           *value += *line - '0';
 8004e36:	185b      	adds	r3, r3, r1
 8004e38:	3b30      	subs	r3, #48	; 0x30
 8004e3a:	6013      	str	r3, [r2, #0]
 8004e3c:	e7e9      	b.n	8004e12 <parseHex+0x18>
        } else if ((*line >= 'a') && (*line <= 'f')) {
 8004e3e:	001d      	movs	r5, r3
 8004e40:	3d61      	subs	r5, #97	; 0x61
 8004e42:	b2ed      	uxtb	r5, r5
 8004e44:	2d05      	cmp	r5, #5
 8004e46:	d806      	bhi.n	8004e56 <parseHex+0x5c>
           *value += *line - 'a' + 10;
 8004e48:	185b      	adds	r3, r3, r1
 8004e4a:	3b57      	subs	r3, #87	; 0x57
 8004e4c:	6013      	str	r3, [r2, #0]
 8004e4e:	e7e0      	b.n	8004e12 <parseHex+0x18>
    }
    return 1;
 8004e50:	2301      	movs	r3, #1
}
 8004e52:	0018      	movs	r0, r3
 8004e54:	bd30      	pop	{r4, r5, pc}
        } else return 0;
 8004e56:	2300      	movs	r3, #0
 8004e58:	e7fb      	b.n	8004e52 <parseHex+0x58>
	...

08004e5c <transmitStd>:
/**
 * @brief  Interprets given line and transmit can message
 * @param  line Line string which contains the transmit command
 * @retval HAL status
 */
static uint8_t transmitStd(uint8_t* line) {
 8004e5c:	b5f0      	push	{r4, r5, r6, r7, lr}
 8004e5e:	b083      	sub	sp, #12
 8004e60:	0005      	movs	r5, r0
    uint32_t temp;
    uint8_t idlen;
    HAL_StatusTypeDef tr;

    if ((line[0] == 'r') || (line[0] == 'R'))
 8004e62:	7803      	ldrb	r3, [r0, #0]
 8004e64:	2b72      	cmp	r3, #114	; 0x72
 8004e66:	d042      	beq.n	8004eee <transmitStd+0x92>
 8004e68:	2b52      	cmp	r3, #82	; 0x52
 8004e6a:	d040      	beq.n	8004eee <transmitStd+0x92>
    {
    	hcan.pTxMsg->RTR = CAN_RTR_REMOTE;
    } else
    {
    	hcan.pTxMsg->RTR = CAN_RTR_DATA;
 8004e6c:	4b31      	ldr	r3, [pc, #196]	; (8004f34 <transmitStd+0xd8>)
 8004e6e:	6b1b      	ldr	r3, [r3, #48]	; 0x30
 8004e70:	2200      	movs	r2, #0
 8004e72:	60da      	str	r2, [r3, #12]
    }

    // upper case -> extended identifier
    if (line[0] < 'Z') {
 8004e74:	782b      	ldrb	r3, [r5, #0]
 8004e76:	2b59      	cmp	r3, #89	; 0x59
 8004e78:	d83e      	bhi.n	8004ef8 <transmitStd+0x9c>
    	idlen = 8;
        if (!parseHex(&line[1], idlen, &temp)) return 0;
 8004e7a:	1c68      	adds	r0, r5, #1
 8004e7c:	aa01      	add	r2, sp, #4
 8004e7e:	2108      	movs	r1, #8
 8004e80:	f7ff ffbb 	bl	8004dfa <parseHex>
 8004e84:	2800      	cmp	r0, #0
 8004e86:	d053      	beq.n	8004f30 <transmitStd+0xd4>
        hcan.pTxMsg->IDE = CAN_ID_EXT;
 8004e88:	4b2a      	ldr	r3, [pc, #168]	; (8004f34 <transmitStd+0xd8>)
 8004e8a:	6b1a      	ldr	r2, [r3, #48]	; 0x30
 8004e8c:	2104      	movs	r1, #4
 8004e8e:	6091      	str	r1, [r2, #8]
        hcan.pTxMsg->ExtId = temp;
 8004e90:	6b1b      	ldr	r3, [r3, #48]	; 0x30
 8004e92:	9a01      	ldr	r2, [sp, #4]
 8004e94:	605a      	str	r2, [r3, #4]
    	idlen = 8;
 8004e96:	2008      	movs	r0, #8
		hcan.pTxMsg->IDE = CAN_ID_STD;
		hcan.pTxMsg->StdId = temp;
    }


    if (!parseHex(&line[1 + idlen], 1, &temp)) return 0;
 8004e98:	0007      	movs	r7, r0
 8004e9a:	3001      	adds	r0, #1
 8004e9c:	1828      	adds	r0, r5, r0
 8004e9e:	aa01      	add	r2, sp, #4
 8004ea0:	2101      	movs	r1, #1
 8004ea2:	f7ff ffaa 	bl	8004dfa <parseHex>
 8004ea6:	2800      	cmp	r0, #0
 8004ea8:	d042      	beq.n	8004f30 <transmitStd+0xd4>
    hcan.pTxMsg->DLC = temp;
 8004eaa:	4b22      	ldr	r3, [pc, #136]	; (8004f34 <transmitStd+0xd8>)
 8004eac:	6b1a      	ldr	r2, [r3, #48]	; 0x30
 8004eae:	9901      	ldr	r1, [sp, #4]
 8004eb0:	6111      	str	r1, [r2, #16]

    if (hcan.pTxMsg->RTR == CAN_RTR_DATA) {
 8004eb2:	6b1b      	ldr	r3, [r3, #48]	; 0x30
 8004eb4:	68da      	ldr	r2, [r3, #12]
 8004eb6:	2a00      	cmp	r2, #0
 8004eb8:	d12e      	bne.n	8004f18 <transmitStd+0xbc>
    	uint8_t i;
        uint8_t length = hcan.pTxMsg->DLC;
 8004eba:	7c1e      	ldrb	r6, [r3, #16]
        if (length > 8) length = 8;
 8004ebc:	2e08      	cmp	r6, #8
 8004ebe:	d900      	bls.n	8004ec2 <transmitStd+0x66>
 8004ec0:	2608      	movs	r6, #8
        for (i = 0; i < length; i++) {
 8004ec2:	2400      	movs	r4, #0
 8004ec4:	42b4      	cmp	r4, r6
 8004ec6:	d227      	bcs.n	8004f18 <transmitStd+0xbc>
            if (!parseHex(&line[idlen + 2 + i*2], 2, &temp)) return 0;
 8004ec8:	1cbb      	adds	r3, r7, #2
 8004eca:	0062      	lsls	r2, r4, #1
 8004ecc:	1898      	adds	r0, r3, r2
 8004ece:	1828      	adds	r0, r5, r0
 8004ed0:	aa01      	add	r2, sp, #4
 8004ed2:	2102      	movs	r1, #2
 8004ed4:	f7ff ff91 	bl	8004dfa <parseHex>
 8004ed8:	2800      	cmp	r0, #0
 8004eda:	d029      	beq.n	8004f30 <transmitStd+0xd4>
            hcan.pTxMsg->Data[i] = temp;
 8004edc:	4b15      	ldr	r3, [pc, #84]	; (8004f34 <transmitStd+0xd8>)
 8004ede:	6b1b      	ldr	r3, [r3, #48]	; 0x30
 8004ee0:	191b      	adds	r3, r3, r4
 8004ee2:	466a      	mov	r2, sp
 8004ee4:	7912      	ldrb	r2, [r2, #4]
 8004ee6:	751a      	strb	r2, [r3, #20]
        for (i = 0; i < length; i++) {
 8004ee8:	3401      	adds	r4, #1
 8004eea:	b2e4      	uxtb	r4, r4
 8004eec:	e7ea      	b.n	8004ec4 <transmitStd+0x68>
    	hcan.pTxMsg->RTR = CAN_RTR_REMOTE;
 8004eee:	4b11      	ldr	r3, [pc, #68]	; (8004f34 <transmitStd+0xd8>)
 8004ef0:	6b1b      	ldr	r3, [r3, #48]	; 0x30
 8004ef2:	2202      	movs	r2, #2
 8004ef4:	60da      	str	r2, [r3, #12]
 8004ef6:	e7bd      	b.n	8004e74 <transmitStd+0x18>
    	if (!parseHex(&line[1], idlen, &temp)) return 0;
 8004ef8:	1c68      	adds	r0, r5, #1
 8004efa:	aa01      	add	r2, sp, #4
 8004efc:	2103      	movs	r1, #3
 8004efe:	f7ff ff7c 	bl	8004dfa <parseHex>
 8004f02:	2800      	cmp	r0, #0
 8004f04:	d014      	beq.n	8004f30 <transmitStd+0xd4>
		hcan.pTxMsg->IDE = CAN_ID_STD;
 8004f06:	4b0b      	ldr	r3, [pc, #44]	; (8004f34 <transmitStd+0xd8>)
 8004f08:	6b1a      	ldr	r2, [r3, #48]	; 0x30
 8004f0a:	2100      	movs	r1, #0
 8004f0c:	6091      	str	r1, [r2, #8]
		hcan.pTxMsg->StdId = temp;
 8004f0e:	6b1b      	ldr	r3, [r3, #48]	; 0x30
 8004f10:	9a01      	ldr	r2, [sp, #4]
 8004f12:	601a      	str	r2, [r3, #0]
    	idlen = 3;
 8004f14:	2003      	movs	r0, #3
 8004f16:	e7bf      	b.n	8004e98 <transmitStd+0x3c>
        }
    }

    HAL_NVIC_DisableIRQ(CEC_CAN_IRQn);
 8004f18:	201e      	movs	r0, #30
 8004f1a:	f7fb fe8f 	bl	8000c3c <HAL_NVIC_DisableIRQ>
    tr = HAL_CAN_Transmit(&hcan, 0);
 8004f1e:	2100      	movs	r1, #0
 8004f20:	4804      	ldr	r0, [pc, #16]	; (8004f34 <transmitStd+0xd8>)
 8004f22:	f7fb fb2b 	bl	800057c <HAL_CAN_Transmit>
 8004f26:	0004      	movs	r4, r0
    HAL_NVIC_EnableIRQ(CEC_CAN_IRQn);
 8004f28:	201e      	movs	r0, #30
 8004f2a:	f7fb fe7d 	bl	8000c28 <HAL_NVIC_EnableIRQ>
    return tr;
 8004f2e:	0020      	movs	r0, r4
}
 8004f30:	b003      	add	sp, #12
 8004f32:	bdf0      	pop	{r4, r5, r6, r7, pc}
 8004f34:	20000594 	.word	0x20000594

08004f38 <initCanOnStart>:
{
 8004f38:	b510      	push	{r4, lr}
	slcanSetCANBaudRate(CAN_BR_1M);
 8004f3a:	2008      	movs	r0, #8
 8004f3c:	f000 fb8a 	bl	8005654 <slcanSetCANBaudRate>
	hcan.Init.Mode = CAN_MODE_NORMAL;
 8004f40:	2200      	movs	r2, #0
 8004f42:	4b07      	ldr	r3, [pc, #28]	; (8004f60 <initCanOnStart+0x28>)
 8004f44:	609a      	str	r2, [r3, #8]
	if(CANInit() == HAL_OK)
 8004f46:	f000 facf 	bl	80054e8 <CANInit>
 8004f4a:	2800      	cmp	r0, #0
 8004f4c:	d000      	beq.n	8004f50 <initCanOnStart+0x18>
}
 8004f4e:	bd10      	pop	{r4, pc}
		HAL_NVIC_EnableIRQ(CEC_CAN_IRQn);
 8004f50:	301e      	adds	r0, #30
 8004f52:	f7fb fe69 	bl	8000c28 <HAL_NVIC_EnableIRQ>
		state = STATE_OPEN;
 8004f56:	2202      	movs	r2, #2
 8004f58:	4b02      	ldr	r3, [pc, #8]	; (8004f64 <initCanOnStart+0x2c>)
 8004f5a:	701a      	strb	r2, [r3, #0]
}
 8004f5c:	e7f7      	b.n	8004f4e <initCanOnStart+0x16>
 8004f5e:	46c0      	nop			; (mov r8, r8)
 8004f60:	20000594 	.word	0x20000594
 8004f64:	200002d0 	.word	0x200002d0

08004f68 <slcanClose>:
{
 8004f68:	b510      	push	{r4, lr}
	HAL_NVIC_DisableIRQ(CEC_CAN_IRQn);
 8004f6a:	201e      	movs	r0, #30
 8004f6c:	f7fb fe66 	bl	8000c3c <HAL_NVIC_DisableIRQ>
	state = STATE_CONFIG;
 8004f70:	2200      	movs	r2, #0
 8004f72:	4b01      	ldr	r3, [pc, #4]	; (8004f78 <slcanClose+0x10>)
 8004f74:	701a      	strb	r2, [r3, #0]
}
 8004f76:	bd10      	pop	{r4, pc}
 8004f78:	200002d0 	.word	0x200002d0

08004f7c <slcanOutputFlush>:
{
 8004f7c:	b510      	push	{r4, lr}
	if (sl_frame_len > 0)
 8004f7e:	4b0f      	ldr	r3, [pc, #60]	; (8004fbc <slcanOutputFlush+0x40>)
 8004f80:	781b      	ldrb	r3, [r3, #0]
 8004f82:	2b00      	cmp	r3, #0
 8004f84:	d008      	beq.n	8004f98 <slcanOutputFlush+0x1c>
		if (hUsbDeviceFS.dev_state != USBD_STATE_CONFIGURED) // use auxiliary uart only if usb not connected
 8004f86:	23fe      	movs	r3, #254	; 0xfe
 8004f88:	005b      	lsls	r3, r3, #1
 8004f8a:	4a0d      	ldr	r2, [pc, #52]	; (8004fc0 <slcanOutputFlush+0x44>)
 8004f8c:	5cd3      	ldrb	r3, [r2, r3]
 8004f8e:	2b03      	cmp	r3, #3
 8004f90:	d003      	beq.n	8004f9a <slcanOutputFlush+0x1e>
		sl_frame_len = 0;
 8004f92:	2200      	movs	r2, #0
 8004f94:	4b09      	ldr	r3, [pc, #36]	; (8004fbc <slcanOutputFlush+0x40>)
 8004f96:	701a      	strb	r2, [r3, #0]
}
 8004f98:	bd10      	pop	{r4, pc}
			while (((USBD_CDC_HandleTypeDef*)hUsbDeviceFS.pClassData)->TxState){;} //should change by hardware
 8004f9a:	2386      	movs	r3, #134	; 0x86
 8004f9c:	009b      	lsls	r3, r3, #2
 8004f9e:	4a08      	ldr	r2, [pc, #32]	; (8004fc0 <slcanOutputFlush+0x44>)
 8004fa0:	58d2      	ldr	r2, [r2, r3]
 8004fa2:	3b04      	subs	r3, #4
 8004fa4:	58d3      	ldr	r3, [r2, r3]
 8004fa6:	2b00      	cmp	r3, #0
 8004fa8:	d1f7      	bne.n	8004f9a <slcanOutputFlush+0x1e>
			while (CDC_Transmit_FS(sl_frame, sl_frame_len) != USBD_OK);
 8004faa:	4b04      	ldr	r3, [pc, #16]	; (8004fbc <slcanOutputFlush+0x40>)
 8004fac:	7819      	ldrb	r1, [r3, #0]
 8004fae:	4805      	ldr	r0, [pc, #20]	; (8004fc4 <slcanOutputFlush+0x48>)
 8004fb0:	f000 fd5e 	bl	8005a70 <CDC_Transmit_FS>
 8004fb4:	2800      	cmp	r0, #0
 8004fb6:	d1f8      	bne.n	8004faa <slcanOutputFlush+0x2e>
 8004fb8:	e7eb      	b.n	8004f92 <slcanOutputFlush+0x16>
 8004fba:	46c0      	nop			; (mov r8, r8)
 8004fbc:	200002cf 	.word	0x200002cf
 8004fc0:	2000081c 	.word	0x2000081c
 8004fc4:	200007f8 	.word	0x200007f8

08004fc8 <slCanProccesInput>:
{
 8004fc8:	b570      	push	{r4, r5, r6, lr}
    if (ch == SLCAN_CR) {
 8004fca:	280d      	cmp	r0, #13
 8004fcc:	d00c      	beq.n	8004fe8 <slCanProccesInput+0x20>
    } else if (ch != SLCAN_LR) {
 8004fce:	280a      	cmp	r0, #10
 8004fd0:	d015      	beq.n	8004ffe <slCanProccesInput+0x36>
        line[linepos] = ch;
 8004fd2:	4b0d      	ldr	r3, [pc, #52]	; (8005008 <slCanProccesInput+0x40>)
 8004fd4:	781b      	ldrb	r3, [r3, #0]
 8004fd6:	4a0d      	ldr	r2, [pc, #52]	; (800500c <slCanProccesInput+0x44>)
 8004fd8:	54d0      	strb	r0, [r2, r3]
        if (linepos < LINE_MAXLEN - 1) linepos++;
 8004fda:	2b1c      	cmp	r3, #28
 8004fdc:	d811      	bhi.n	8005002 <slCanProccesInput+0x3a>
 8004fde:	3301      	adds	r3, #1
 8004fe0:	4a09      	ldr	r2, [pc, #36]	; (8005008 <slCanProccesInput+0x40>)
 8004fe2:	7013      	strb	r3, [r2, #0]
    return 0;
 8004fe4:	2000      	movs	r0, #0
}
 8004fe6:	bd70      	pop	{r4, r5, r6, pc}
        line[linepos] = 0;
 8004fe8:	4c07      	ldr	r4, [pc, #28]	; (8005008 <slCanProccesInput+0x40>)
 8004fea:	7822      	ldrb	r2, [r4, #0]
 8004fec:	4907      	ldr	r1, [pc, #28]	; (800500c <slCanProccesInput+0x44>)
 8004fee:	2500      	movs	r5, #0
 8004ff0:	548d      	strb	r5, [r1, r2]
        memcpy(command,line,linepos);
 8004ff2:	4807      	ldr	r0, [pc, #28]	; (8005010 <slCanProccesInput+0x48>)
 8004ff4:	f000 ff9c 	bl	8005f30 <memcpy>
        linepos = 0;
 8004ff8:	7025      	strb	r5, [r4, #0]
        return 1;
 8004ffa:	2001      	movs	r0, #1
 8004ffc:	e7f3      	b.n	8004fe6 <slCanProccesInput+0x1e>
    return 0;
 8004ffe:	2000      	movs	r0, #0
 8005000:	e7f1      	b.n	8004fe6 <slCanProccesInput+0x1e>
 8005002:	2000      	movs	r0, #0
 8005004:	e7ef      	b.n	8004fe6 <slCanProccesInput+0x1e>
 8005006:	46c0      	nop			; (mov r8, r8)
 8005008:	200002ce 	.word	0x200002ce
 800500c:	200002b0 	.word	0x200002b0
 8005010:	20000290 	.word	0x20000290

08005014 <slCanCheckCommand>:
 * @brief  Parse given command line
 * @param  line Line string to parse
 * @retval None
 */
uint8_t slCanCheckCommand(uint8_t *line)
{
 8005014:	b530      	push	{r4, r5, lr}
 8005016:	b095      	sub	sp, #84	; 0x54
 8005018:	0005      	movs	r5, r0
	uint8_t result = SLCAN_BELL;
	if (line[0] == 0)
 800501a:	7804      	ldrb	r4, [r0, #0]
 800501c:	2c00      	cmp	r4, #0
 800501e:	d019      	beq.n	8005054 <slCanCheckCommand+0x40>
	{
		return 0;
	}
    switch (line[0]) {
 8005020:	3c43      	subs	r4, #67	; 0x43
 8005022:	b2e3      	uxtb	r3, r4
 8005024:	2b33      	cmp	r3, #51	; 0x33
 8005026:	d900      	bls.n	800502a <slCanCheckCommand+0x16>
 8005028:	e1f8      	b.n	800541c <slCanCheckCommand+0x408>
 800502a:	009c      	lsls	r4, r3, #2
 800502c:	4bb0      	ldr	r3, [pc, #704]	; (80052f0 <slCanCheckCommand+0x2dc>)
 800502e:	591b      	ldr	r3, [r3, r4]
 8005030:	469f      	mov	pc, r3
    	case 'a':
    	{
    		if (terminator == SLCAN_CR)
 8005032:	4bb0      	ldr	r3, [pc, #704]	; (80052f4 <slCanCheckCommand+0x2e0>)
 8005034:	781b      	ldrb	r3, [r3, #0]
 8005036:	2b0d      	cmp	r3, #13
 8005038:	d00f      	beq.n	800505a <slCanCheckCommand+0x46>
    			terminator = SLCAN_LR;
    		else
    			terminator = SLCAN_CR;
 800503a:	220d      	movs	r2, #13
 800503c:	4bad      	ldr	r3, [pc, #692]	; (80052f4 <slCanCheckCommand+0x2e0>)
 800503e:	701a      	strb	r2, [r3, #0]
    		result = terminator;
 8005040:	4bac      	ldr	r3, [pc, #688]	; (80052f4 <slCanCheckCommand+0x2e0>)
 8005042:	781c      	ldrb	r4, [r3, #0]
        	 }
        	 break;

    }

   line[0] = 0;
 8005044:	2300      	movs	r3, #0
 8005046:	702b      	strb	r3, [r5, #0]
   slcanSetOutputChar(result);
 8005048:	0020      	movs	r0, r4
 800504a:	f7ff fead 	bl	8004da8 <slcanSetOutputChar>
   if(result == SLCAN_BELL)
 800504e:	2c07      	cmp	r4, #7
 8005050:	d100      	bne.n	8005054 <slCanCheckCommand+0x40>
 8005052:	e1eb      	b.n	800542c <slCanCheckCommand+0x418>
   {
	   hUCCB_HandleBufferError();
	   memset(command, 0, sizeof(command));
   }
   return result;
}
 8005054:	0020      	movs	r0, r4
 8005056:	b015      	add	sp, #84	; 0x54
 8005058:	bd30      	pop	{r4, r5, pc}
    			terminator = SLCAN_LR;
 800505a:	220a      	movs	r2, #10
 800505c:	4ba5      	ldr	r3, [pc, #660]	; (80052f4 <slCanCheckCommand+0x2e0>)
 800505e:	701a      	strb	r2, [r3, #0]
 8005060:	e7ee      	b.n	8005040 <slCanCheckCommand+0x2c>
            if (state == STATE_CONFIG)
 8005062:	4ba5      	ldr	r3, [pc, #660]	; (80052f8 <slCanCheckCommand+0x2e4>)
 8005064:	781b      	ldrb	r3, [r3, #0]
 8005066:	2b00      	cmp	r3, #0
 8005068:	d000      	beq.n	800506c <slCanCheckCommand+0x58>
 800506a:	e1d9      	b.n	8005420 <slCanCheckCommand+0x40c>
                switch (line[1]) {
 800506c:	7843      	ldrb	r3, [r0, #1]
 800506e:	3b30      	subs	r3, #48	; 0x30
 8005070:	b2da      	uxtb	r2, r3
 8005072:	2a09      	cmp	r2, #9
 8005074:	d900      	bls.n	8005078 <slCanCheckCommand+0x64>
 8005076:	e1d5      	b.n	8005424 <slCanCheckCommand+0x410>
 8005078:	0093      	lsls	r3, r2, #2
 800507a:	4aa0      	ldr	r2, [pc, #640]	; (80052fc <slCanCheckCommand+0x2e8>)
 800507c:	58d3      	ldr	r3, [r2, r3]
 800507e:	469f      	mov	pc, r3
                    case '0': slcanSetCANBaudRate(CAN_BR_10K);  result = terminator; break;
 8005080:	2000      	movs	r0, #0
 8005082:	f000 fae7 	bl	8005654 <slcanSetCANBaudRate>
 8005086:	4b9b      	ldr	r3, [pc, #620]	; (80052f4 <slCanCheckCommand+0x2e0>)
 8005088:	781c      	ldrb	r4, [r3, #0]
 800508a:	e7db      	b.n	8005044 <slCanCheckCommand+0x30>
                    case '1': slcanSetCANBaudRate(CAN_BR_20K);  result = terminator; break;
 800508c:	2001      	movs	r0, #1
 800508e:	f000 fae1 	bl	8005654 <slcanSetCANBaudRate>
 8005092:	4b98      	ldr	r3, [pc, #608]	; (80052f4 <slCanCheckCommand+0x2e0>)
 8005094:	781c      	ldrb	r4, [r3, #0]
 8005096:	e7d5      	b.n	8005044 <slCanCheckCommand+0x30>
                    case '2': slcanSetCANBaudRate(CAN_BR_50K);  result = terminator; break;
 8005098:	2002      	movs	r0, #2
 800509a:	f000 fadb 	bl	8005654 <slcanSetCANBaudRate>
 800509e:	4b95      	ldr	r3, [pc, #596]	; (80052f4 <slCanCheckCommand+0x2e0>)
 80050a0:	781c      	ldrb	r4, [r3, #0]
 80050a2:	e7cf      	b.n	8005044 <slCanCheckCommand+0x30>
                    case '3': slcanSetCANBaudRate(CAN_BR_100K); result = terminator; break;
 80050a4:	2003      	movs	r0, #3
 80050a6:	f000 fad5 	bl	8005654 <slcanSetCANBaudRate>
 80050aa:	4b92      	ldr	r3, [pc, #584]	; (80052f4 <slCanCheckCommand+0x2e0>)
 80050ac:	781c      	ldrb	r4, [r3, #0]
 80050ae:	e7c9      	b.n	8005044 <slCanCheckCommand+0x30>
                    case '4': slcanSetCANBaudRate(CAN_BR_125K); result = terminator; break;
 80050b0:	2004      	movs	r0, #4
 80050b2:	f000 facf 	bl	8005654 <slcanSetCANBaudRate>
 80050b6:	4b8f      	ldr	r3, [pc, #572]	; (80052f4 <slCanCheckCommand+0x2e0>)
 80050b8:	781c      	ldrb	r4, [r3, #0]
 80050ba:	e7c3      	b.n	8005044 <slCanCheckCommand+0x30>
                    case '5': slcanSetCANBaudRate(CAN_BR_250K); result = terminator; break;
 80050bc:	2005      	movs	r0, #5
 80050be:	f000 fac9 	bl	8005654 <slcanSetCANBaudRate>
 80050c2:	4b8c      	ldr	r3, [pc, #560]	; (80052f4 <slCanCheckCommand+0x2e0>)
 80050c4:	781c      	ldrb	r4, [r3, #0]
 80050c6:	e7bd      	b.n	8005044 <slCanCheckCommand+0x30>
                    case '6': slcanSetCANBaudRate(CAN_BR_500K); result = terminator; break;
 80050c8:	2006      	movs	r0, #6
 80050ca:	f000 fac3 	bl	8005654 <slcanSetCANBaudRate>
 80050ce:	4b89      	ldr	r3, [pc, #548]	; (80052f4 <slCanCheckCommand+0x2e0>)
 80050d0:	781c      	ldrb	r4, [r3, #0]
 80050d2:	e7b7      	b.n	8005044 <slCanCheckCommand+0x30>
                    case '7': slcanSetCANBaudRate(CAN_BR_800K); result = terminator; break;
 80050d4:	2007      	movs	r0, #7
 80050d6:	f000 fabd 	bl	8005654 <slcanSetCANBaudRate>
 80050da:	4b86      	ldr	r3, [pc, #536]	; (80052f4 <slCanCheckCommand+0x2e0>)
 80050dc:	781c      	ldrb	r4, [r3, #0]
 80050de:	e7b1      	b.n	8005044 <slCanCheckCommand+0x30>
                    case '8': slcanSetCANBaudRate(CAN_BR_1M);   result = terminator; break;
 80050e0:	2008      	movs	r0, #8
 80050e2:	f000 fab7 	bl	8005654 <slcanSetCANBaudRate>
 80050e6:	4b83      	ldr	r3, [pc, #524]	; (80052f4 <slCanCheckCommand+0x2e0>)
 80050e8:	781c      	ldrb	r4, [r3, #0]
 80050ea:	e7ab      	b.n	8005044 <slCanCheckCommand+0x30>
                    case '9': slcanSetCANBaudRate(CAN_BR_83K);  result = terminator; break;
 80050ec:	2024      	movs	r0, #36	; 0x24
 80050ee:	f000 fab1 	bl	8005654 <slcanSetCANBaudRate>
 80050f2:	4b80      	ldr	r3, [pc, #512]	; (80052f4 <slCanCheckCommand+0x2e0>)
 80050f4:	781c      	ldrb	r4, [r3, #0]
 80050f6:	e7a5      	b.n	8005044 <slCanCheckCommand+0x30>
			result = terminator;
 80050f8:	4b7e      	ldr	r3, [pc, #504]	; (80052f4 <slCanCheckCommand+0x2e0>)
 80050fa:	781c      	ldrb	r4, [r3, #0]
			break;
 80050fc:	e7a2      	b.n	8005044 <slCanCheckCommand+0x30>
            if (state == STATE_CONFIG)
 80050fe:	4b7e      	ldr	r3, [pc, #504]	; (80052f8 <slCanCheckCommand+0x2e4>)
 8005100:	781b      	ldrb	r3, [r3, #0]
 8005102:	2b00      	cmp	r3, #0
 8005104:	d001      	beq.n	800510a <slCanCheckCommand+0xf6>
	uint8_t result = SLCAN_BELL;
 8005106:	2407      	movs	r4, #7
 8005108:	e79c      	b.n	8005044 <slCanCheckCommand+0x30>
                if (parseHex(&line[1], 2, &sjw) && parseHex(&line[3], 2, &bs1) &&
 800510a:	3001      	adds	r0, #1
 800510c:	aa07      	add	r2, sp, #28
 800510e:	2102      	movs	r1, #2
 8005110:	f7ff fe73 	bl	8004dfa <parseHex>
 8005114:	2800      	cmp	r0, #0
 8005116:	d101      	bne.n	800511c <slCanCheckCommand+0x108>
	uint8_t result = SLCAN_BELL;
 8005118:	2407      	movs	r4, #7
 800511a:	e793      	b.n	8005044 <slCanCheckCommand+0x30>
                if (parseHex(&line[1], 2, &sjw) && parseHex(&line[3], 2, &bs1) &&
 800511c:	1ce8      	adds	r0, r5, #3
 800511e:	aa08      	add	r2, sp, #32
 8005120:	2102      	movs	r1, #2
 8005122:	f7ff fe6a 	bl	8004dfa <parseHex>
 8005126:	2800      	cmp	r0, #0
 8005128:	d101      	bne.n	800512e <slCanCheckCommand+0x11a>
	uint8_t result = SLCAN_BELL;
 800512a:	2407      	movs	r4, #7
 800512c:	e78a      	b.n	8005044 <slCanCheckCommand+0x30>
                		parseHex(&line[5], 2, &bs2) && parseHex(&line[7], 4, &pre) ) {
 800512e:	1d68      	adds	r0, r5, #5
 8005130:	aa09      	add	r2, sp, #36	; 0x24
 8005132:	2102      	movs	r1, #2
 8005134:	f7ff fe61 	bl	8004dfa <parseHex>
                if (parseHex(&line[1], 2, &sjw) && parseHex(&line[3], 2, &bs1) &&
 8005138:	2800      	cmp	r0, #0
 800513a:	d101      	bne.n	8005140 <slCanCheckCommand+0x12c>
	uint8_t result = SLCAN_BELL;
 800513c:	2407      	movs	r4, #7
 800513e:	e781      	b.n	8005044 <slCanCheckCommand+0x30>
                		parseHex(&line[5], 2, &bs2) && parseHex(&line[7], 4, &pre) ) {
 8005140:	1de8      	adds	r0, r5, #7
 8005142:	aa0a      	add	r2, sp, #40	; 0x28
 8005144:	2104      	movs	r1, #4
 8005146:	f7ff fe58 	bl	8004dfa <parseHex>
 800514a:	2800      	cmp	r0, #0
 800514c:	d101      	bne.n	8005152 <slCanCheckCommand+0x13e>
	uint8_t result = SLCAN_BELL;
 800514e:	2407      	movs	r4, #7
 8005150:	e778      	b.n	8005044 <slCanCheckCommand+0x30>
                	hcan.Init.SJW = sjw;
 8005152:	4b6b      	ldr	r3, [pc, #428]	; (8005300 <slCanCheckCommand+0x2ec>)
 8005154:	9a07      	ldr	r2, [sp, #28]
 8005156:	60da      	str	r2, [r3, #12]
                	hcan.Init.BS1 = bs1;
 8005158:	9a08      	ldr	r2, [sp, #32]
 800515a:	611a      	str	r2, [r3, #16]
                	hcan.Init.BS2 = bs2;
 800515c:	9a09      	ldr	r2, [sp, #36]	; 0x24
 800515e:	615a      	str	r2, [r3, #20]
                	hcan.Init.Prescaler = pre;
 8005160:	9a0a      	ldr	r2, [sp, #40]	; 0x28
 8005162:	605a      	str	r2, [r3, #4]
                	CANInit();
 8005164:	f000 f9c0 	bl	80054e8 <CANInit>
                    result = terminator;
 8005168:	4b62      	ldr	r3, [pc, #392]	; (80052f4 <slCanCheckCommand+0x2e0>)
 800516a:	781c      	ldrb	r4, [r3, #0]
 800516c:	e76a      	b.n	8005044 <slCanCheckCommand+0x30>
                slcanSetOutputChar('V');
 800516e:	2056      	movs	r0, #86	; 0x56
 8005170:	f7ff fe1a 	bl	8004da8 <slcanSetOutputChar>
                slcanSetOutputAsHex(VERSION_HARDWARE_MAJOR);
 8005174:	2001      	movs	r0, #1
 8005176:	f7ff fe36 	bl	8004de6 <slcanSetOutputAsHex>
                slcanSetOutputAsHex(VERSION_HARDWARE_MINOR);
 800517a:	2000      	movs	r0, #0
 800517c:	f7ff fe33 	bl	8004de6 <slcanSetOutputAsHex>
                slcanSetOutputChar('h');
 8005180:	2068      	movs	r0, #104	; 0x68
 8005182:	f7ff fe11 	bl	8004da8 <slcanSetOutputChar>
                result = terminator;
 8005186:	4b5b      	ldr	r3, [pc, #364]	; (80052f4 <slCanCheckCommand+0x2e0>)
 8005188:	781c      	ldrb	r4, [r3, #0]
            break;
 800518a:	e75b      	b.n	8005044 <slCanCheckCommand+0x30>
                slcanSetOutputChar('v');
 800518c:	2076      	movs	r0, #118	; 0x76
 800518e:	f7ff fe0b 	bl	8004da8 <slcanSetOutputChar>
                slcanSetOutputAsHex(VERSION_FIRMWARE_MAJOR);
 8005192:	2001      	movs	r0, #1
 8005194:	f7ff fe27 	bl	8004de6 <slcanSetOutputAsHex>
                slcanSetOutputAsHex(VERSION_FIRMWARE_MINOR);
 8005198:	2000      	movs	r0, #0
 800519a:	f7ff fe24 	bl	8004de6 <slcanSetOutputAsHex>
                slcanSetOutputChar('h');
 800519e:	2068      	movs	r0, #104	; 0x68
 80051a0:	f7ff fe02 	bl	8004da8 <slcanSetOutputChar>
                result = terminator;
 80051a4:	4b53      	ldr	r3, [pc, #332]	; (80052f4 <slCanCheckCommand+0x2e0>)
 80051a6:	781c      	ldrb	r4, [r3, #0]
            break;
 80051a8:	e74c      	b.n	8005044 <slCanCheckCommand+0x30>
                slcanSetOutputChar('N');
 80051aa:	204e      	movs	r0, #78	; 0x4e
 80051ac:	f7ff fdfc 	bl	8004da8 <slcanSetOutputChar>
                slcanSetOutputAsHex((uint8_t)(serialNumber));
 80051b0:	4c54      	ldr	r4, [pc, #336]	; (8005304 <slCanCheckCommand+0x2f0>)
 80051b2:	6820      	ldr	r0, [r4, #0]
 80051b4:	b2c0      	uxtb	r0, r0
 80051b6:	f7ff fe16 	bl	8004de6 <slcanSetOutputAsHex>
                slcanSetOutputAsHex((uint8_t)(serialNumber>>8));
 80051ba:	6820      	ldr	r0, [r4, #0]
 80051bc:	1200      	asrs	r0, r0, #8
 80051be:	b2c0      	uxtb	r0, r0
 80051c0:	f7ff fe11 	bl	8004de6 <slcanSetOutputAsHex>
                slcanSetOutputAsHex((uint8_t)(serialNumber>>16));
 80051c4:	6820      	ldr	r0, [r4, #0]
 80051c6:	1400      	asrs	r0, r0, #16
 80051c8:	b2c0      	uxtb	r0, r0
 80051ca:	f7ff fe0c 	bl	8004de6 <slcanSetOutputAsHex>
                slcanSetOutputAsHex((uint8_t)(serialNumber>>24));
 80051ce:	6820      	ldr	r0, [r4, #0]
 80051d0:	0e00      	lsrs	r0, r0, #24
 80051d2:	f7ff fe08 	bl	8004de6 <slcanSetOutputAsHex>
                result = terminator;
 80051d6:	4b47      	ldr	r3, [pc, #284]	; (80052f4 <slCanCheckCommand+0x2e0>)
 80051d8:	781c      	ldrb	r4, [r3, #0]
            break;
 80051da:	e733      	b.n	8005044 <slCanCheckCommand+0x30>
            	hcan.Init.Mode = CAN_MODE_NORMAL;
 80051dc:	2200      	movs	r2, #0
 80051de:	4b48      	ldr	r3, [pc, #288]	; (8005300 <slCanCheckCommand+0x2ec>)
 80051e0:	609a      	str	r2, [r3, #8]
            	if(CANInit() == HAL_OK)
 80051e2:	f000 f981 	bl	80054e8 <CANInit>
 80051e6:	2800      	cmp	r0, #0
 80051e8:	d001      	beq.n	80051ee <slCanCheckCommand+0x1da>
	uint8_t result = SLCAN_BELL;
 80051ea:	2407      	movs	r4, #7
 80051ec:	e72a      	b.n	8005044 <slCanCheckCommand+0x30>
					HAL_NVIC_EnableIRQ(CEC_CAN_IRQn);
 80051ee:	301e      	adds	r0, #30
 80051f0:	f7fb fd1a 	bl	8000c28 <HAL_NVIC_EnableIRQ>
					state = STATE_OPEN;
 80051f4:	2202      	movs	r2, #2
 80051f6:	4b40      	ldr	r3, [pc, #256]	; (80052f8 <slCanCheckCommand+0x2e4>)
 80051f8:	701a      	strb	r2, [r3, #0]
					result = terminator;
 80051fa:	4b3e      	ldr	r3, [pc, #248]	; (80052f4 <slCanCheckCommand+0x2e0>)
 80051fc:	781c      	ldrb	r4, [r3, #0]
 80051fe:	e721      	b.n	8005044 <slCanCheckCommand+0x30>
            	hcan.Init.Mode = CAN_MODE_LOOPBACK;
 8005200:	2280      	movs	r2, #128	; 0x80
 8005202:	05d2      	lsls	r2, r2, #23
 8005204:	4b3e      	ldr	r3, [pc, #248]	; (8005300 <slCanCheckCommand+0x2ec>)
 8005206:	609a      	str	r2, [r3, #8]
            	HAL_NVIC_EnableIRQ(CEC_CAN_IRQn);
 8005208:	201e      	movs	r0, #30
 800520a:	f7fb fd0d 	bl	8000c28 <HAL_NVIC_EnableIRQ>
            	CANInit();
 800520e:	f000 f96b 	bl	80054e8 <CANInit>
                state = STATE_OPEN;
 8005212:	2202      	movs	r2, #2
 8005214:	4b38      	ldr	r3, [pc, #224]	; (80052f8 <slCanCheckCommand+0x2e4>)
 8005216:	701a      	strb	r2, [r3, #0]
                result = terminator;
 8005218:	4b36      	ldr	r3, [pc, #216]	; (80052f4 <slCanCheckCommand+0x2e0>)
 800521a:	781c      	ldrb	r4, [r3, #0]
            break;
 800521c:	e712      	b.n	8005044 <slCanCheckCommand+0x30>
            if (state == STATE_CONFIG)
 800521e:	4b36      	ldr	r3, [pc, #216]	; (80052f8 <slCanCheckCommand+0x2e4>)
 8005220:	781b      	ldrb	r3, [r3, #0]
 8005222:	2b00      	cmp	r3, #0
 8005224:	d001      	beq.n	800522a <slCanCheckCommand+0x216>
	uint8_t result = SLCAN_BELL;
 8005226:	2407      	movs	r4, #7
 8005228:	e70c      	b.n	8005044 <slCanCheckCommand+0x30>
            	hcan.Init.Mode = CAN_MODE_SILENT;
 800522a:	2280      	movs	r2, #128	; 0x80
 800522c:	0612      	lsls	r2, r2, #24
 800522e:	4b34      	ldr	r3, [pc, #208]	; (8005300 <slCanCheckCommand+0x2ec>)
 8005230:	609a      	str	r2, [r3, #8]
            	HAL_NVIC_EnableIRQ(CEC_CAN_IRQn);
 8005232:	201e      	movs	r0, #30
 8005234:	f7fb fcf8 	bl	8000c28 <HAL_NVIC_EnableIRQ>
            	CANInit();
 8005238:	f000 f956 	bl	80054e8 <CANInit>
                state = STATE_LISTEN;
 800523c:	2201      	movs	r2, #1
 800523e:	4b2e      	ldr	r3, [pc, #184]	; (80052f8 <slCanCheckCommand+0x2e4>)
 8005240:	701a      	strb	r2, [r3, #0]
                result = terminator;
 8005242:	4b2c      	ldr	r3, [pc, #176]	; (80052f4 <slCanCheckCommand+0x2e0>)
 8005244:	781c      	ldrb	r4, [r3, #0]
 8005246:	e6fd      	b.n	8005044 <slCanCheckCommand+0x30>
        		if(UART_FLAG == 0)
 8005248:	4b2f      	ldr	r3, [pc, #188]	; (8005308 <slCanCheckCommand+0x2f4>)
 800524a:	781b      	ldrb	r3, [r3, #0]
 800524c:	2b00      	cmp	r3, #0
 800524e:	d001      	beq.n	8005254 <slCanCheckCommand+0x240>
	uint8_t result = SLCAN_BELL;
 8005250:	2407      	movs	r4, #7
 8005252:	e6f7      	b.n	8005044 <slCanCheckCommand+0x30>
        			HAL_NVIC_DisableIRQ(CEC_CAN_IRQn);
 8005254:	201e      	movs	r0, #30
 8005256:	f7fb fcf1 	bl	8000c3c <HAL_NVIC_DisableIRQ>
					state = STATE_CONFIG;
 800525a:	2200      	movs	r2, #0
 800525c:	4b26      	ldr	r3, [pc, #152]	; (80052f8 <slCanCheckCommand+0x2e4>)
 800525e:	701a      	strb	r2, [r3, #0]
					result = terminator;
 8005260:	4b24      	ldr	r3, [pc, #144]	; (80052f4 <slCanCheckCommand+0x2e0>)
 8005262:	781c      	ldrb	r4, [r3, #0]
 8005264:	e6ee      	b.n	8005044 <slCanCheckCommand+0x30>
            if (state == STATE_OPEN)
 8005266:	4b24      	ldr	r3, [pc, #144]	; (80052f8 <slCanCheckCommand+0x2e4>)
 8005268:	781b      	ldrb	r3, [r3, #0]
 800526a:	2b02      	cmp	r3, #2
 800526c:	d001      	beq.n	8005272 <slCanCheckCommand+0x25e>
	uint8_t result = SLCAN_BELL;
 800526e:	2407      	movs	r4, #7
 8005270:	e6e8      	b.n	8005044 <slCanCheckCommand+0x30>
                if (transmitStd(line) == HAL_OK) {
 8005272:	f7ff fdf3 	bl	8004e5c <transmitStd>
 8005276:	2800      	cmp	r0, #0
 8005278:	d000      	beq.n	800527c <slCanCheckCommand+0x268>
 800527a:	e0d5      	b.n	8005428 <slCanCheckCommand+0x414>
                    if (line[0] < 'Z') slcanSetOutputChar('Z');
 800527c:	782b      	ldrb	r3, [r5, #0]
 800527e:	2b59      	cmp	r3, #89	; 0x59
 8005280:	d805      	bhi.n	800528e <slCanCheckCommand+0x27a>
 8005282:	305a      	adds	r0, #90	; 0x5a
 8005284:	f7ff fd90 	bl	8004da8 <slcanSetOutputChar>
                    result = terminator;
 8005288:	4b1a      	ldr	r3, [pc, #104]	; (80052f4 <slCanCheckCommand+0x2e0>)
 800528a:	781c      	ldrb	r4, [r3, #0]
 800528c:	e6da      	b.n	8005044 <slCanCheckCommand+0x30>
                    else slcanSetOutputChar('z');
 800528e:	207a      	movs	r0, #122	; 0x7a
 8005290:	f7ff fd8a 	bl	8004da8 <slcanSetOutputChar>
 8005294:	e7f8      	b.n	8005288 <slCanCheckCommand+0x274>
                unsigned char status = HAL_CAN_GetError(&hcan);
 8005296:	481a      	ldr	r0, [pc, #104]	; (8005300 <slCanCheckCommand+0x2ec>)
 8005298:	f7fb fc92 	bl	8000bc0 <HAL_CAN_GetError>
 800529c:	b2c4      	uxtb	r4, r0
                slcanSetOutputChar('F');
 800529e:	2046      	movs	r0, #70	; 0x46
 80052a0:	f7ff fd82 	bl	8004da8 <slcanSetOutputChar>
                slcanSetOutputAsHex(status);
 80052a4:	0020      	movs	r0, r4
 80052a6:	f7ff fd9e 	bl	8004de6 <slcanSetOutputAsHex>
                result = terminator;
 80052aa:	4b12      	ldr	r3, [pc, #72]	; (80052f4 <slCanCheckCommand+0x2e0>)
 80052ac:	781c      	ldrb	r4, [r3, #0]
            break;
 80052ae:	e6c9      	b.n	8005044 <slCanCheckCommand+0x30>
                if (parseHex(&line[1], 1, &stamping)) {
 80052b0:	3001      	adds	r0, #1
 80052b2:	aa0a      	add	r2, sp, #40	; 0x28
 80052b4:	2101      	movs	r1, #1
 80052b6:	f7ff fda0 	bl	8004dfa <parseHex>
 80052ba:	2800      	cmp	r0, #0
 80052bc:	d002      	beq.n	80052c4 <slCanCheckCommand+0x2b0>
                    result = terminator;
 80052be:	4b0d      	ldr	r3, [pc, #52]	; (80052f4 <slCanCheckCommand+0x2e0>)
 80052c0:	781c      	ldrb	r4, [r3, #0]
 80052c2:	e6bf      	b.n	8005044 <slCanCheckCommand+0x30>
	uint8_t result = SLCAN_BELL;
 80052c4:	2407      	movs	r4, #7
            break;
 80052c6:	e6bd      	b.n	8005044 <slCanCheckCommand+0x30>
            if (line[1] == 'd') // disable all filtering
 80052c8:	7843      	ldrb	r3, [r0, #1]
 80052ca:	2b64      	cmp	r3, #100	; 0x64
 80052cc:	d008      	beq.n	80052e0 <slCanCheckCommand+0x2cc>
            	if (!parseHex(&line[1], 2, &n)) break;
 80052ce:	3001      	adds	r0, #1
 80052d0:	aa03      	add	r2, sp, #12
 80052d2:	2102      	movs	r1, #2
 80052d4:	f7ff fd91 	bl	8004dfa <parseHex>
 80052d8:	2800      	cmp	r0, #0
 80052da:	d117      	bne.n	800530c <slCanCheckCommand+0x2f8>
	uint8_t result = SLCAN_BELL;
 80052dc:	2407      	movs	r4, #7
 80052de:	e6b1      	b.n	8005044 <slCanCheckCommand+0x30>
            	slcanClearAllFilters();
 80052e0:	f000 f90c 	bl	80054fc <slcanClearAllFilters>
            	result = terminator;
 80052e4:	4b03      	ldr	r3, [pc, #12]	; (80052f4 <slCanCheckCommand+0x2e0>)
 80052e6:	781c      	ldrb	r4, [r3, #0]
            	slcanSetOutputChar('M');
 80052e8:	204d      	movs	r0, #77	; 0x4d
 80052ea:	f7ff fd5d 	bl	8004da8 <slcanSetOutputChar>
 80052ee:	e6a9      	b.n	8005044 <slCanCheckCommand+0x30>
 80052f0:	08006004 	.word	0x08006004
 80052f4:	20000114 	.word	0x20000114
 80052f8:	200002d0 	.word	0x200002d0
 80052fc:	080060d4 	.word	0x080060d4
 8005300:	20000594 	.word	0x20000594
 8005304:	20000680 	.word	0x20000680
 8005308:	2000028c 	.word	0x2000028c
            	if (!parseHex(&line[3], 2, &b)) break;
 800530c:	1ce8      	adds	r0, r5, #3
 800530e:	aa04      	add	r2, sp, #16
 8005310:	2102      	movs	r1, #2
 8005312:	f7ff fd72 	bl	8004dfa <parseHex>
 8005316:	2800      	cmp	r0, #0
 8005318:	d0e0      	beq.n	80052dc <slCanCheckCommand+0x2c8>
            	if (!parseHex(&line[5], 1, &fflags.reg)) break;
 800531a:	1d68      	adds	r0, r5, #5
 800531c:	aa05      	add	r2, sp, #20
 800531e:	2101      	movs	r1, #1
 8005320:	f7ff fd6b 	bl	8004dfa <parseHex>
 8005324:	2800      	cmp	r0, #0
 8005326:	d0d9      	beq.n	80052dc <slCanCheckCommand+0x2c8>
            	if (!parseHex(&line[6], 8, &id)) break;
 8005328:	1da8      	adds	r0, r5, #6
 800532a:	aa08      	add	r2, sp, #32
 800532c:	2108      	movs	r1, #8
 800532e:	f7ff fd64 	bl	8004dfa <parseHex>
 8005332:	2800      	cmp	r0, #0
 8005334:	d0d2      	beq.n	80052dc <slCanCheckCommand+0x2c8>
            	if (!parseHex(&line[14], 1, &idflags.reg)) break;
 8005336:	aa06      	add	r2, sp, #24
 8005338:	2101      	movs	r1, #1
 800533a:	0028      	movs	r0, r5
 800533c:	300e      	adds	r0, #14
 800533e:	f7ff fd5c 	bl	8004dfa <parseHex>
 8005342:	2800      	cmp	r0, #0
 8005344:	d0ca      	beq.n	80052dc <slCanCheckCommand+0x2c8>
            	if (!parseHex(&line[15], 8, &mask)) break;
 8005346:	aa09      	add	r2, sp, #36	; 0x24
 8005348:	2108      	movs	r1, #8
 800534a:	0028      	movs	r0, r5
 800534c:	300f      	adds	r0, #15
 800534e:	f7ff fd54 	bl	8004dfa <parseHex>
 8005352:	2800      	cmp	r0, #0
 8005354:	d0c2      	beq.n	80052dc <slCanCheckCommand+0x2c8>
            	if (!parseHex(&line[23], 1, &maskflags.reg)) break;
 8005356:	aa07      	add	r2, sp, #28
 8005358:	2101      	movs	r1, #1
 800535a:	0028      	movs	r0, r5
 800535c:	3017      	adds	r0, #23
 800535e:	f7ff fd4c 	bl	8004dfa <parseHex>
 8005362:	2800      	cmp	r0, #0
 8005364:	d0ba      	beq.n	80052dc <slCanCheckCommand+0x2c8>
            	if (fflags.bScale == CAN_FILTERSCALE_32BIT)
 8005366:	ab05      	add	r3, sp, #20
 8005368:	781b      	ldrb	r3, [r3, #0]
 800536a:	075b      	lsls	r3, r3, #29
 800536c:	d531      	bpl.n	80053d2 <slCanCheckCommand+0x3be>
					freg = slcanFillIdRegister32(idflags, id);
 800536e:	9908      	ldr	r1, [sp, #32]
 8005370:	9806      	ldr	r0, [sp, #24]
 8005372:	f000 f8dd 	bl	8005530 <slcanFillIdRegister32>
 8005376:	9001      	str	r0, [sp, #4]
					mreg = slcanFillIdRegister32(maskflags, mask);
 8005378:	9909      	ldr	r1, [sp, #36]	; 0x24
 800537a:	9807      	ldr	r0, [sp, #28]
 800537c:	f000 f8d8 	bl	8005530 <slcanFillIdRegister32>
 8005380:	9002      	str	r0, [sp, #8]
            	sFilterConfig.FilterNumber = n;
 8005382:	9b03      	ldr	r3, [sp, #12]
 8005384:	930f      	str	r3, [sp, #60]	; 0x3c
            	sFilterConfig.BankNumber = b;
 8005386:	9b04      	ldr	r3, [sp, #16]
 8005388:	9313      	str	r3, [sp, #76]	; 0x4c
            	sFilterConfig.FilterActivation = fflags.bFilterActivation; // ENABLE == 1
 800538a:	ab05      	add	r3, sp, #20
 800538c:	781b      	ldrb	r3, [r3, #0]
 800538e:	07da      	lsls	r2, r3, #31
 8005390:	0fd2      	lsrs	r2, r2, #31
 8005392:	9212      	str	r2, [sp, #72]	; 0x48
				sFilterConfig.FilterMode = fflags.bMode; // CAN_FILTERMODE_IDLIST == 1
 8005394:	079a      	lsls	r2, r3, #30
 8005396:	0fd2      	lsrs	r2, r2, #31
 8005398:	9210      	str	r2, [sp, #64]	; 0x40
				sFilterConfig.FilterScale = fflags.bScale;  // CAN_FILTERSCALE_32BIT == 1
 800539a:	075a      	lsls	r2, r3, #29
 800539c:	0fd2      	lsrs	r2, r2, #31
 800539e:	9211      	str	r2, [sp, #68]	; 0x44
				sFilterConfig.FilterFIFOAssignment = fflags.bFIFO;
 80053a0:	071b      	lsls	r3, r3, #28
 80053a2:	0fdb      	lsrs	r3, r3, #31
 80053a4:	930e      	str	r3, [sp, #56]	; 0x38
				sFilterConfig.FilterIdHigh = freg.h.reg;
 80053a6:	ab01      	add	r3, sp, #4
 80053a8:	881a      	ldrh	r2, [r3, #0]
 80053aa:	920a      	str	r2, [sp, #40]	; 0x28
				sFilterConfig.FilterIdLow = freg.l.reg;
 80053ac:	885b      	ldrh	r3, [r3, #2]
 80053ae:	930b      	str	r3, [sp, #44]	; 0x2c
				sFilterConfig.FilterMaskIdHigh = mreg.h.reg;
 80053b0:	ab02      	add	r3, sp, #8
 80053b2:	881a      	ldrh	r2, [r3, #0]
 80053b4:	920c      	str	r2, [sp, #48]	; 0x30
				sFilterConfig.FilterMaskIdLow = mreg.l.reg;
 80053b6:	885b      	ldrh	r3, [r3, #2]
 80053b8:	930d      	str	r3, [sp, #52]	; 0x34
				slcanSetOutputChar('M');
 80053ba:	204d      	movs	r0, #77	; 0x4d
 80053bc:	f7ff fcf4 	bl	8004da8 <slcanSetOutputChar>
				if (HAL_CAN_ConfigFilter(&hcan, &sFilterConfig) == HAL_OK)
 80053c0:	a90a      	add	r1, sp, #40	; 0x28
 80053c2:	481e      	ldr	r0, [pc, #120]	; (800543c <slCanCheckCommand+0x428>)
 80053c4:	f7fa ff8c 	bl	80002e0 <HAL_CAN_ConfigFilter>
 80053c8:	2800      	cmp	r0, #0
 80053ca:	d10d      	bne.n	80053e8 <slCanCheckCommand+0x3d4>
					result = terminator;
 80053cc:	4b1c      	ldr	r3, [pc, #112]	; (8005440 <slCanCheckCommand+0x42c>)
 80053ce:	781c      	ldrb	r4, [r3, #0]
 80053d0:	e638      	b.n	8005044 <slCanCheckCommand+0x30>
            		freg = slcanFillIdRegister16(idflags, id);
 80053d2:	9908      	ldr	r1, [sp, #32]
 80053d4:	9806      	ldr	r0, [sp, #24]
 80053d6:	f000 f8e5 	bl	80055a4 <slcanFillIdRegister16>
 80053da:	9001      	str	r0, [sp, #4]
            		mreg = slcanFillIdRegister16(maskflags, mask);
 80053dc:	9909      	ldr	r1, [sp, #36]	; 0x24
 80053de:	9807      	ldr	r0, [sp, #28]
 80053e0:	f000 f8e0 	bl	80055a4 <slcanFillIdRegister16>
 80053e4:	9002      	str	r0, [sp, #8]
 80053e6:	e7cc      	b.n	8005382 <slCanCheckCommand+0x36e>
	uint8_t result = SLCAN_BELL;
 80053e8:	2407      	movs	r4, #7
 80053ea:	e62b      	b.n	8005044 <slCanCheckCommand+0x30>
        	 if ((line[1] == 'o') && (line[2] == 'o') && (line[3] == 't')){
 80053ec:	7843      	ldrb	r3, [r0, #1]
 80053ee:	2b6f      	cmp	r3, #111	; 0x6f
 80053f0:	d001      	beq.n	80053f6 <slCanCheckCommand+0x3e2>
	uint8_t result = SLCAN_BELL;
 80053f2:	2407      	movs	r4, #7
 80053f4:	e626      	b.n	8005044 <slCanCheckCommand+0x30>
        	 if ((line[1] == 'o') && (line[2] == 'o') && (line[3] == 't')){
 80053f6:	7883      	ldrb	r3, [r0, #2]
 80053f8:	2b6f      	cmp	r3, #111	; 0x6f
 80053fa:	d001      	beq.n	8005400 <slCanCheckCommand+0x3ec>
	uint8_t result = SLCAN_BELL;
 80053fc:	2407      	movs	r4, #7
 80053fe:	e621      	b.n	8005044 <slCanCheckCommand+0x30>
        	 if ((line[1] == 'o') && (line[2] == 'o') && (line[3] == 't')){
 8005400:	78c3      	ldrb	r3, [r0, #3]
 8005402:	2b74      	cmp	r3, #116	; 0x74
 8005404:	d001      	beq.n	800540a <slCanCheckCommand+0x3f6>
	uint8_t result = SLCAN_BELL;
 8005406:	2407      	movs	r4, #7
 8005408:	e61c      	b.n	8005044 <slCanCheckCommand+0x30>
        		 line[0] = 0;
 800540a:	2300      	movs	r3, #0
 800540c:	7003      	strb	r3, [r0, #0]
        		 line[1] = 0;
 800540e:	7043      	strb	r3, [r0, #1]
        		 line[2] = 0;
 8005410:	7083      	strb	r3, [r0, #2]
        		 line[3] = 0;
 8005412:	70c3      	strb	r3, [r0, #3]
        		 RebootToBootloader();
 8005414:	f7ff f8fa 	bl	800460c <RebootToBootloader>
	uint8_t result = SLCAN_BELL;
 8005418:	2407      	movs	r4, #7
 800541a:	e613      	b.n	8005044 <slCanCheckCommand+0x30>
 800541c:	2407      	movs	r4, #7
 800541e:	e611      	b.n	8005044 <slCanCheckCommand+0x30>
 8005420:	2407      	movs	r4, #7
 8005422:	e60f      	b.n	8005044 <slCanCheckCommand+0x30>
 8005424:	2407      	movs	r4, #7
 8005426:	e60d      	b.n	8005044 <slCanCheckCommand+0x30>
 8005428:	2407      	movs	r4, #7
 800542a:	e60b      	b.n	8005044 <slCanCheckCommand+0x30>
	   hUCCB_HandleBufferError();
 800542c:	f7ff fad6 	bl	80049dc <hUCCB_HandleBufferError>
	   memset(command, 0, sizeof(command));
 8005430:	221e      	movs	r2, #30
 8005432:	2100      	movs	r1, #0
 8005434:	4803      	ldr	r0, [pc, #12]	; (8005444 <slCanCheckCommand+0x430>)
 8005436:	f000 fd84 	bl	8005f42 <memset>
 800543a:	e60b      	b.n	8005054 <slCanCheckCommand+0x40>
 800543c:	20000594 	.word	0x20000594
 8005440:	20000114 	.word	0x20000114
 8005444:	20000290 	.word	0x20000290

08005448 <slcan_getState>:
 * @param  none
 * @retval slcan state
 */
uint8_t slcan_getState()
{
	return state;
 8005448:	4b01      	ldr	r3, [pc, #4]	; (8005450 <slcan_getState+0x8>)
 800544a:	7818      	ldrb	r0, [r3, #0]
}
 800544c:	4770      	bx	lr
 800544e:	46c0      	nop			; (mov r8, r8)
 8005450:	200002d0 	.word	0x200002d0

08005454 <slcanReciveCanFrame>:
 * @param  canmsg Pointer to can message
 * 			step Current step
 * @retval Next character to print out
 */
uint8_t slcanReciveCanFrame(CanRxMsgTypeDef *pRxMsg)
{
 8005454:	b570      	push	{r4, r5, r6, lr}
 8005456:	0005      	movs	r5, r0
	uint8_t i;

	// type
	if (pRxMsg->IDE == CAN_ID_EXT) {
 8005458:	6883      	ldr	r3, [r0, #8]
 800545a:	2b04      	cmp	r3, #4
 800545c:	d018      	beq.n	8005490 <slcanReciveCanFrame+0x3c>
		{
			slcanSetOutputAsHex(((uint8_t*)&pRxMsg->ExtId)[i - 1]);
		}
	} else
	{
		if (pRxMsg->RTR == CAN_RTR_REMOTE)
 800545e:	68c3      	ldr	r3, [r0, #12]
 8005460:	2b02      	cmp	r3, #2
 8005462:	d02a      	beq.n	80054ba <slcanReciveCanFrame+0x66>
		{
			slcanSetOutputChar('r');
		}
		else
		{
			slcanSetOutputChar('t');
 8005464:	2074      	movs	r0, #116	; 0x74
 8005466:	f7ff fc9f 	bl	8004da8 <slcanSetOutputChar>
		}
		//id
		slCanSendNibble(((uint8_t*)&pRxMsg->StdId)[1] & 0x0F);
 800546a:	786b      	ldrb	r3, [r5, #1]
 800546c:	200f      	movs	r0, #15
 800546e:	4018      	ands	r0, r3
 8005470:	f7ff fcae 	bl	8004dd0 <slCanSendNibble>
		slcanSetOutputAsHex(((uint8_t*)&pRxMsg->StdId)[0]);
 8005474:	7828      	ldrb	r0, [r5, #0]
 8005476:	f7ff fcb6 	bl	8004de6 <slcanSetOutputAsHex>
	}
	// length
	slCanSendNibble(pRxMsg->DLC);
 800547a:	7c28      	ldrb	r0, [r5, #16]
 800547c:	f7ff fca8 	bl	8004dd0 <slCanSendNibble>

	//data
	if ((pRxMsg->DLC > 0) && (pRxMsg->RTR != CAN_RTR_REMOTE))
 8005480:	692b      	ldr	r3, [r5, #16]
 8005482:	2b00      	cmp	r3, #0
 8005484:	d026      	beq.n	80054d4 <slcanReciveCanFrame+0x80>
 8005486:	68eb      	ldr	r3, [r5, #12]
 8005488:	2b02      	cmp	r3, #2
 800548a:	d023      	beq.n	80054d4 <slcanReciveCanFrame+0x80>
 800548c:	2400      	movs	r4, #0
 800548e:	e01e      	b.n	80054ce <slcanReciveCanFrame+0x7a>
		if (pRxMsg->RTR == CAN_RTR_REMOTE)
 8005490:	68c3      	ldr	r3, [r0, #12]
 8005492:	2b02      	cmp	r3, #2
 8005494:	d004      	beq.n	80054a0 <slcanReciveCanFrame+0x4c>
			slcanSetOutputChar('T');
 8005496:	2054      	movs	r0, #84	; 0x54
 8005498:	f7ff fc86 	bl	8004da8 <slcanSetOutputChar>
{
 800549c:	2404      	movs	r4, #4
 800549e:	e009      	b.n	80054b4 <slcanReciveCanFrame+0x60>
			slcanSetOutputChar('R');
 80054a0:	2052      	movs	r0, #82	; 0x52
 80054a2:	f7ff fc81 	bl	8004da8 <slcanSetOutputChar>
 80054a6:	e7f9      	b.n	800549c <slcanReciveCanFrame+0x48>
			slcanSetOutputAsHex(((uint8_t*)&pRxMsg->ExtId)[i - 1]);
 80054a8:	1d2a      	adds	r2, r5, #4
 80054aa:	3c01      	subs	r4, #1
 80054ac:	5d10      	ldrb	r0, [r2, r4]
 80054ae:	f7ff fc9a 	bl	8004de6 <slcanSetOutputAsHex>
		for (i = 4; i != 0; i--)
 80054b2:	b2e4      	uxtb	r4, r4
 80054b4:	2c00      	cmp	r4, #0
 80054b6:	d1f7      	bne.n	80054a8 <slcanReciveCanFrame+0x54>
 80054b8:	e7df      	b.n	800547a <slcanReciveCanFrame+0x26>
			slcanSetOutputChar('r');
 80054ba:	2072      	movs	r0, #114	; 0x72
 80054bc:	f7ff fc74 	bl	8004da8 <slcanSetOutputChar>
 80054c0:	e7d3      	b.n	800546a <slcanReciveCanFrame+0x16>
	{
		for (i = 0;  i != pRxMsg->DLC; i ++)
		{
			slcanSetOutputAsHex(pRxMsg->Data[i]);
 80054c2:	192b      	adds	r3, r5, r4
 80054c4:	7d18      	ldrb	r0, [r3, #20]
 80054c6:	f7ff fc8e 	bl	8004de6 <slcanSetOutputAsHex>
		for (i = 0;  i != pRxMsg->DLC; i ++)
 80054ca:	3401      	adds	r4, #1
 80054cc:	b2e4      	uxtb	r4, r4
 80054ce:	692b      	ldr	r3, [r5, #16]
 80054d0:	429c      	cmp	r4, r3
 80054d2:	d1f6      	bne.n	80054c2 <slcanReciveCanFrame+0x6e>
		}
	}
	slcanSetOutputChar(terminator);
 80054d4:	4b03      	ldr	r3, [pc, #12]	; (80054e4 <slcanReciveCanFrame+0x90>)
 80054d6:	7818      	ldrb	r0, [r3, #0]
 80054d8:	f7ff fc66 	bl	8004da8 <slcanSetOutputChar>
	slcanOutputFlush();
 80054dc:	f7ff fd4e 	bl	8004f7c <slcanOutputFlush>
	return 0;
}
 80054e0:	2000      	movs	r0, #0
 80054e2:	bd70      	pop	{r4, r5, r6, pc}
 80054e4:	20000114 	.word	0x20000114

080054e8 <CANInit>:
#include "slcan_additional.h"

extern CAN_HandleTypeDef hcan;
extern IWDG_HandleTypeDef hiwdg;
HAL_StatusTypeDef CANInit(void)
{
 80054e8:	b510      	push	{r4, lr}
    while (HAL_CAN_Init(&hcan) == HAL_TIMEOUT)
 80054ea:	4803      	ldr	r0, [pc, #12]	; (80054f8 <CANInit+0x10>)
 80054ec:	f7fa ff86 	bl	80003fc <HAL_CAN_Init>
 80054f0:	2803      	cmp	r0, #3
 80054f2:	d0fa      	beq.n	80054ea <CANInit+0x2>
#ifndef IWDG_DISABLE
    	HAL_IWDG_Refresh(&hiwdg);
#endif
    }
    return HAL_OK;
}
 80054f4:	2000      	movs	r0, #0
 80054f6:	bd10      	pop	{r4, pc}
 80054f8:	20000594 	.word	0x20000594

080054fc <slcanClearAllFilters>:

HAL_StatusTypeDef slcanClearAllFilters(void)
{
 80054fc:	b500      	push	{lr}
 80054fe:	b08b      	sub	sp, #44	; 0x2c
	CAN_FilterConfTypeDef sFilterConfig;
	sFilterConfig.FilterNumber = 0;
 8005500:	2300      	movs	r3, #0
 8005502:	9305      	str	r3, [sp, #20]
	sFilterConfig.FilterMode = CAN_FILTERMODE_IDMASK;
 8005504:	9306      	str	r3, [sp, #24]
	sFilterConfig.FilterScale = CAN_FILTERSCALE_32BIT;
 8005506:	2201      	movs	r2, #1
 8005508:	9207      	str	r2, [sp, #28]
	sFilterConfig.FilterIdHigh = 0x0000;
 800550a:	9300      	str	r3, [sp, #0]
	sFilterConfig.FilterIdLow = 0;
 800550c:	9301      	str	r3, [sp, #4]
	sFilterConfig.FilterMaskIdHigh = 0x0000;
 800550e:	9302      	str	r3, [sp, #8]
	sFilterConfig.FilterMaskIdLow = 0;
 8005510:	9303      	str	r3, [sp, #12]
	sFilterConfig.FilterFIFOAssignment = 0;
 8005512:	9304      	str	r3, [sp, #16]
	sFilterConfig.FilterActivation = ENABLE;
 8005514:	9208      	str	r2, [sp, #32]
	sFilterConfig.BankNumber = 0;
 8005516:	9309      	str	r3, [sp, #36]	; 0x24

	if (HAL_CAN_ConfigFilter(&hcan, &sFilterConfig) != HAL_OK)
 8005518:	4669      	mov	r1, sp
 800551a:	4804      	ldr	r0, [pc, #16]	; (800552c <slcanClearAllFilters+0x30>)
 800551c:	f7fa fee0 	bl	80002e0 <HAL_CAN_ConfigFilter>
 8005520:	2800      	cmp	r0, #0
 8005522:	d101      	bne.n	8005528 <slcanClearAllFilters+0x2c>
		return HAL_ERROR;
	else
		return HAL_OK;
}
 8005524:	b00b      	add	sp, #44	; 0x2c
 8005526:	bd00      	pop	{pc}
		return HAL_ERROR;
 8005528:	2001      	movs	r0, #1
 800552a:	e7fb      	b.n	8005524 <slcanClearAllFilters+0x28>
 800552c:	20000594 	.word	0x20000594

08005530 <slcanFillIdRegister32>:

tCANfilter slcanFillIdRegister32(tCANFilterFlagsId fl, uint32_t id)
{
 8005530:	b510      	push	{r4, lr}
 8005532:	b082      	sub	sp, #8
	tCANfilter f;
	f.h.reg = 0;
 8005534:	2300      	movs	r3, #0
 8005536:	466a      	mov	r2, sp
 8005538:	8013      	strh	r3, [r2, #0]
	f.l.reg = 0;
 800553a:	8053      	strh	r3, [r2, #2]

	f.l.f32.RTR = fl.bRTR1;
 800553c:	07c3      	lsls	r3, r0, #31
 800553e:	0fdb      	lsrs	r3, r3, #31
 8005540:	2201      	movs	r2, #1
 8005542:	4013      	ands	r3, r2
	f.l.f32.IDE = fl.bExtedned1;
 8005544:	0784      	lsls	r4, r0, #30
 8005546:	0fe4      	lsrs	r4, r4, #31
 8005548:	4022      	ands	r2, r4
 800554a:	0092      	lsls	r2, r2, #2
 800554c:	005b      	lsls	r3, r3, #1
 800554e:	4313      	orrs	r3, r2
 8005550:	466a      	mov	r2, sp
 8005552:	7093      	strb	r3, [r2, #2]
	if (fl.bExtedned1)
 8005554:	0783      	lsls	r3, r0, #30
 8005556:	d411      	bmi.n	800557c <slcanFillIdRegister32+0x4c>
	{
		f.l.f32.EXID4_0 = id;
		f.l.f32.EXID12_5 = id >> 5;
		f.h.f32.EXID17_13 = id >> 13;
	} else {
		f.h.f32.STID2_0 = id;
 8005558:	014a      	lsls	r2, r1, #5
 800555a:	466b      	mov	r3, sp
 800555c:	7818      	ldrb	r0, [r3, #0]
 800555e:	231f      	movs	r3, #31
 8005560:	4003      	ands	r3, r0
 8005562:	4313      	orrs	r3, r2
 8005564:	466a      	mov	r2, sp
 8005566:	7013      	strb	r3, [r2, #0]
		f.h.f32.STID10_3 = id >> 3;
 8005568:	08c9      	lsrs	r1, r1, #3
 800556a:	7051      	strb	r1, [r2, #1]
	}
	return f;
 800556c:	9b00      	ldr	r3, [sp, #0]
 800556e:	0c1a      	lsrs	r2, r3, #16
 8005570:	0412      	lsls	r2, r2, #16
 8005572:	0418      	lsls	r0, r3, #16
 8005574:	0c00      	lsrs	r0, r0, #16
 8005576:	4310      	orrs	r0, r2
}
 8005578:	b002      	add	sp, #8
 800557a:	bd10      	pop	{r4, pc}
		f.l.f32.EXID4_0 = id;
 800557c:	00ca      	lsls	r2, r1, #3
 800557e:	466b      	mov	r3, sp
 8005580:	7898      	ldrb	r0, [r3, #2]
 8005582:	2307      	movs	r3, #7
 8005584:	4003      	ands	r3, r0
 8005586:	4313      	orrs	r3, r2
 8005588:	466a      	mov	r2, sp
 800558a:	7093      	strb	r3, [r2, #2]
		f.l.f32.EXID12_5 = id >> 5;
 800558c:	094b      	lsrs	r3, r1, #5
 800558e:	70d3      	strb	r3, [r2, #3]
		f.h.f32.EXID17_13 = id >> 13;
 8005590:	0b49      	lsrs	r1, r1, #13
 8005592:	231f      	movs	r3, #31
 8005594:	400b      	ands	r3, r1
 8005596:	7811      	ldrb	r1, [r2, #0]
 8005598:	221f      	movs	r2, #31
 800559a:	4391      	bics	r1, r2
 800559c:	4319      	orrs	r1, r3
 800559e:	466b      	mov	r3, sp
 80055a0:	7019      	strb	r1, [r3, #0]
 80055a2:	e7e3      	b.n	800556c <slcanFillIdRegister32+0x3c>

080055a4 <slcanFillIdRegister16>:

tCANfilter slcanFillIdRegister16(tCANFilterFlagsId fl, uint32_t id)
{
 80055a4:	b570      	push	{r4, r5, r6, lr}
 80055a6:	b082      	sub	sp, #8
	tCANfilter f;
	f.h.reg = 0;
 80055a8:	2300      	movs	r3, #0
 80055aa:	466a      	mov	r2, sp
 80055ac:	8013      	strh	r3, [r2, #0]
	f.l.reg = 0;
 80055ae:	8053      	strh	r3, [r2, #2]

	f.l.f16.RTR = fl.bRTR1;
 80055b0:	07c3      	lsls	r3, r0, #31
 80055b2:	0fdb      	lsrs	r3, r3, #31
 80055b4:	2201      	movs	r2, #1
 80055b6:	4013      	ands	r3, r2
	f.l.f16.IDE = fl.bExtedned1;
 80055b8:	0784      	lsls	r4, r0, #30
 80055ba:	0fe4      	lsrs	r4, r4, #31
 80055bc:	4022      	ands	r2, r4
 80055be:	0112      	lsls	r2, r2, #4
 80055c0:	00db      	lsls	r3, r3, #3
 80055c2:	4313      	orrs	r3, r2
 80055c4:	466a      	mov	r2, sp
 80055c6:	7093      	strb	r3, [r2, #2]
	if (fl.bExtedned1)
 80055c8:	b2c5      	uxtb	r5, r0
 80055ca:	07ab      	lsls	r3, r5, #30
 80055cc:	d511      	bpl.n	80055f2 <slcanFillIdRegister16+0x4e>
	{
		f.l.f16.STID2_0 = id;
 80055ce:	014c      	lsls	r4, r1, #5
 80055d0:	7892      	ldrb	r2, [r2, #2]
 80055d2:	231f      	movs	r3, #31
 80055d4:	4013      	ands	r3, r2
 80055d6:	0022      	movs	r2, r4
 80055d8:	431a      	orrs	r2, r3
		f.l.f16.STID10_3 = id >> 3;
 80055da:	08cb      	lsrs	r3, r1, #3
 80055dc:	466c      	mov	r4, sp
 80055de:	70e3      	strb	r3, [r4, #3]
		f.l.f16.EXID17_15 = id >> 8;
 80055e0:	0a0c      	lsrs	r4, r1, #8
 80055e2:	2307      	movs	r3, #7
 80055e4:	401c      	ands	r4, r3
 80055e6:	b2d3      	uxtb	r3, r2
 80055e8:	2207      	movs	r2, #7
 80055ea:	4393      	bics	r3, r2
 80055ec:	4323      	orrs	r3, r4
 80055ee:	466a      	mov	r2, sp
 80055f0:	7093      	strb	r3, [r2, #2]
	}

	f.l.f16.RTR = fl.bRTR2;
 80055f2:	0744      	lsls	r4, r0, #29
 80055f4:	0fe4      	lsrs	r4, r4, #31
 80055f6:	2601      	movs	r6, #1
 80055f8:	4034      	ands	r4, r6
 80055fa:	00e4      	lsls	r4, r4, #3
 80055fc:	466b      	mov	r3, sp
 80055fe:	789b      	ldrb	r3, [r3, #2]
 8005600:	2208      	movs	r2, #8
 8005602:	4393      	bics	r3, r2
	f.l.f16.IDE = fl.bExtedned2;
 8005604:	0702      	lsls	r2, r0, #28
 8005606:	0fd2      	lsrs	r2, r2, #31
 8005608:	4032      	ands	r2, r6
 800560a:	0112      	lsls	r2, r2, #4
 800560c:	4323      	orrs	r3, r4
 800560e:	0018      	movs	r0, r3
 8005610:	2310      	movs	r3, #16
 8005612:	4398      	bics	r0, r3
 8005614:	4310      	orrs	r0, r2
 8005616:	466b      	mov	r3, sp
 8005618:	7098      	strb	r0, [r3, #2]
	if (fl.bExtedned2)
 800561a:	072b      	lsls	r3, r5, #28
 800561c:	d512      	bpl.n	8005644 <slcanFillIdRegister16+0xa0>
	{
		f.h.f16.STID2_0 = id >> 16;
 800561e:	0c0a      	lsrs	r2, r1, #16
 8005620:	2007      	movs	r0, #7
 8005622:	4002      	ands	r2, r0
 8005624:	0152      	lsls	r2, r2, #5
 8005626:	466b      	mov	r3, sp
 8005628:	781c      	ldrb	r4, [r3, #0]
 800562a:	231f      	movs	r3, #31
 800562c:	4023      	ands	r3, r4
		f.h.f16.STID10_3 = id >> (3 + 16);
 800562e:	0ccc      	lsrs	r4, r1, #19
 8005630:	466d      	mov	r5, sp
 8005632:	706c      	strb	r4, [r5, #1]
		f.h.f16.EXID17_15 = id >> (8 + 16);
 8005634:	0e09      	lsrs	r1, r1, #24
 8005636:	4008      	ands	r0, r1
 8005638:	4313      	orrs	r3, r2
 800563a:	0019      	movs	r1, r3
 800563c:	2307      	movs	r3, #7
 800563e:	4399      	bics	r1, r3
 8005640:	4301      	orrs	r1, r0
 8005642:	7029      	strb	r1, [r5, #0]
	}

	return f;
 8005644:	9b00      	ldr	r3, [sp, #0]
 8005646:	0c1a      	lsrs	r2, r3, #16
 8005648:	0412      	lsls	r2, r2, #16
 800564a:	0418      	lsls	r0, r3, #16
 800564c:	0c00      	lsrs	r0, r0, #16
 800564e:	4310      	orrs	r0, r2
}
 8005650:	b002      	add	sp, #8
 8005652:	bd70      	pop	{r4, r5, r6, pc}

08005654 <slcanSetCANBaudRate>:

void slcanSetCANBaudRate(uint8_t br)
{ //todo it is for 75% sampling point
 8005654:	b510      	push	{r4, lr}

	hcan.Init.SJW = CAN_SJW_2TQ;
 8005656:	4b1b      	ldr	r3, [pc, #108]	; (80056c4 <slcanSetCANBaudRate+0x70>)
 8005658:	2280      	movs	r2, #128	; 0x80
 800565a:	0452      	lsls	r2, r2, #17
 800565c:	60da      	str	r2, [r3, #12]
	hcan.Init.BS1 = CAN_BS1_11TQ;
 800565e:	22a0      	movs	r2, #160	; 0xa0
 8005660:	0312      	lsls	r2, r2, #12
 8005662:	611a      	str	r2, [r3, #16]
	hcan.Init.BS2 = CAN_BS2_4TQ;
 8005664:	22c0      	movs	r2, #192	; 0xc0
 8005666:	0392      	lsls	r2, r2, #14
 8005668:	615a      	str	r2, [r3, #20]

	switch (br)
 800566a:	2824      	cmp	r0, #36	; 0x24
 800566c:	d806      	bhi.n	800567c <slcanSetCANBaudRate+0x28>
 800566e:	0080      	lsls	r0, r0, #2
 8005670:	4b15      	ldr	r3, [pc, #84]	; (80056c8 <slcanSetCANBaudRate+0x74>)
 8005672:	581b      	ldr	r3, [r3, r0]
 8005674:	469f      	mov	pc, r3
	{
		case CAN_BR_1M:
			hcan.Init.Prescaler = 3;
 8005676:	2203      	movs	r2, #3
 8005678:	4b12      	ldr	r3, [pc, #72]	; (80056c4 <slcanSetCANBaudRate+0x70>)
 800567a:	605a      	str	r2, [r3, #4]

		default:
			break;
	}

	CANInit();
 800567c:	f7ff ff34 	bl	80054e8 <CANInit>
}
 8005680:	bd10      	pop	{r4, pc}
			hcan.Init.Prescaler = 6;
 8005682:	2206      	movs	r2, #6
 8005684:	4b0f      	ldr	r3, [pc, #60]	; (80056c4 <slcanSetCANBaudRate+0x70>)
 8005686:	605a      	str	r2, [r3, #4]
		break;
 8005688:	e7f8      	b.n	800567c <slcanSetCANBaudRate+0x28>
			hcan.Init.Prescaler = 12;
 800568a:	220c      	movs	r2, #12
 800568c:	4b0d      	ldr	r3, [pc, #52]	; (80056c4 <slcanSetCANBaudRate+0x70>)
 800568e:	605a      	str	r2, [r3, #4]
		break;
 8005690:	e7f4      	b.n	800567c <slcanSetCANBaudRate+0x28>
			hcan.Init.Prescaler = 24;
 8005692:	2218      	movs	r2, #24
 8005694:	4b0b      	ldr	r3, [pc, #44]	; (80056c4 <slcanSetCANBaudRate+0x70>)
 8005696:	605a      	str	r2, [r3, #4]
		break;
 8005698:	e7f0      	b.n	800567c <slcanSetCANBaudRate+0x28>
			hcan.Init.Prescaler = 30;
 800569a:	221e      	movs	r2, #30
 800569c:	4b09      	ldr	r3, [pc, #36]	; (80056c4 <slcanSetCANBaudRate+0x70>)
 800569e:	605a      	str	r2, [r3, #4]
		break;
 80056a0:	e7ec      	b.n	800567c <slcanSetCANBaudRate+0x28>
			hcan.Init.Prescaler = 60;
 80056a2:	223c      	movs	r2, #60	; 0x3c
 80056a4:	4b07      	ldr	r3, [pc, #28]	; (80056c4 <slcanSetCANBaudRate+0x70>)
 80056a6:	605a      	str	r2, [r3, #4]
		break;
 80056a8:	e7e8      	b.n	800567c <slcanSetCANBaudRate+0x28>
			hcan.Init.Prescaler = 150;
 80056aa:	2296      	movs	r2, #150	; 0x96
 80056ac:	4b05      	ldr	r3, [pc, #20]	; (80056c4 <slcanSetCANBaudRate+0x70>)
 80056ae:	605a      	str	r2, [r3, #4]
		break;
 80056b0:	e7e4      	b.n	800567c <slcanSetCANBaudRate+0x28>
			hcan.Init.Prescaler = 300;
 80056b2:	2296      	movs	r2, #150	; 0x96
 80056b4:	0052      	lsls	r2, r2, #1
 80056b6:	4b03      	ldr	r3, [pc, #12]	; (80056c4 <slcanSetCANBaudRate+0x70>)
 80056b8:	605a      	str	r2, [r3, #4]
		break;
 80056ba:	e7df      	b.n	800567c <slcanSetCANBaudRate+0x28>
			hcan.Init.Prescaler = 36;
 80056bc:	2224      	movs	r2, #36	; 0x24
 80056be:	4b01      	ldr	r3, [pc, #4]	; (80056c4 <slcanSetCANBaudRate+0x70>)
 80056c0:	605a      	str	r2, [r3, #4]
		break;
 80056c2:	e7db      	b.n	800567c <slcanSetCANBaudRate+0x28>
 80056c4:	20000594 	.word	0x20000594
 80056c8:	080060fc 	.word	0x080060fc

080056cc <HAL_MspInit>:
/* USER CODE END 0 */
/**
  * Initializes the Global MSP.
  */
void HAL_MspInit(void)
{
 80056cc:	b500      	push	{lr}
 80056ce:	b083      	sub	sp, #12
  /* USER CODE BEGIN MspInit 0 */

  /* USER CODE END MspInit 0 */

  __HAL_RCC_SYSCFG_CLK_ENABLE();
 80056d0:	4b12      	ldr	r3, [pc, #72]	; (800571c <HAL_MspInit+0x50>)
 80056d2:	6999      	ldr	r1, [r3, #24]
 80056d4:	2201      	movs	r2, #1
 80056d6:	4311      	orrs	r1, r2
 80056d8:	6199      	str	r1, [r3, #24]
 80056da:	6999      	ldr	r1, [r3, #24]
 80056dc:	400a      	ands	r2, r1
 80056de:	9200      	str	r2, [sp, #0]
 80056e0:	9a00      	ldr	r2, [sp, #0]
  __HAL_RCC_PWR_CLK_ENABLE();
 80056e2:	69da      	ldr	r2, [r3, #28]
 80056e4:	2180      	movs	r1, #128	; 0x80
 80056e6:	0549      	lsls	r1, r1, #21
 80056e8:	430a      	orrs	r2, r1
 80056ea:	61da      	str	r2, [r3, #28]
 80056ec:	69db      	ldr	r3, [r3, #28]
 80056ee:	400b      	ands	r3, r1
 80056f0:	9301      	str	r3, [sp, #4]
 80056f2:	9b01      	ldr	r3, [sp, #4]

  /* System interrupt init*/
  /* SVC_IRQn interrupt configuration */
  HAL_NVIC_SetPriority(SVC_IRQn, 2, 2);
 80056f4:	2202      	movs	r2, #2
 80056f6:	2102      	movs	r1, #2
 80056f8:	2005      	movs	r0, #5
 80056fa:	4240      	negs	r0, r0
 80056fc:	f7fb fa62 	bl	8000bc4 <HAL_NVIC_SetPriority>
  /* PendSV_IRQn interrupt configuration */
  HAL_NVIC_SetPriority(PendSV_IRQn, 2,2);
 8005700:	2202      	movs	r2, #2
 8005702:	2102      	movs	r1, #2
 8005704:	2002      	movs	r0, #2
 8005706:	4240      	negs	r0, r0
 8005708:	f7fb fa5c 	bl	8000bc4 <HAL_NVIC_SetPriority>
  /* SysTick_IRQn interrupt configuration */
  HAL_NVIC_SetPriority(SysTick_IRQn, 2, 2);
 800570c:	2202      	movs	r2, #2
 800570e:	2102      	movs	r1, #2
 8005710:	2001      	movs	r0, #1
 8005712:	4240      	negs	r0, r0
 8005714:	f7fb fa56 	bl	8000bc4 <HAL_NVIC_SetPriority>

  /* USER CODE BEGIN MspInit 1 */

  /* USER CODE END MspInit 1 */
}
 8005718:	b003      	add	sp, #12
 800571a:	bd00      	pop	{pc}
 800571c:	40021000 	.word	0x40021000

08005720 <HAL_CAN_MspInit>:

void HAL_CAN_MspInit(CAN_HandleTypeDef* hcan)
{
 8005720:	b500      	push	{lr}
 8005722:	b087      	sub	sp, #28

  GPIO_InitTypeDef GPIO_InitStruct;
  if(hcan->Instance==CAN)
 8005724:	6802      	ldr	r2, [r0, #0]
 8005726:	4b0f      	ldr	r3, [pc, #60]	; (8005764 <HAL_CAN_MspInit+0x44>)
 8005728:	429a      	cmp	r2, r3
 800572a:	d001      	beq.n	8005730 <HAL_CAN_MspInit+0x10>
  /* USER CODE BEGIN CAN_MspInit 1 */

  /* USER CODE END CAN_MspInit 1 */
  }

}
 800572c:	b007      	add	sp, #28
 800572e:	bd00      	pop	{pc}
    __HAL_RCC_CAN1_CLK_ENABLE();
 8005730:	4a0d      	ldr	r2, [pc, #52]	; (8005768 <HAL_CAN_MspInit+0x48>)
 8005732:	69d1      	ldr	r1, [r2, #28]
 8005734:	2080      	movs	r0, #128	; 0x80
 8005736:	0480      	lsls	r0, r0, #18
 8005738:	4301      	orrs	r1, r0
 800573a:	61d1      	str	r1, [r2, #28]
 800573c:	69d3      	ldr	r3, [r2, #28]
 800573e:	4003      	ands	r3, r0
 8005740:	9300      	str	r3, [sp, #0]
 8005742:	9b00      	ldr	r3, [sp, #0]
    GPIO_InitStruct.Pin = GPIO_PIN_8|GPIO_PIN_9;
 8005744:	23c0      	movs	r3, #192	; 0xc0
 8005746:	009b      	lsls	r3, r3, #2
 8005748:	9301      	str	r3, [sp, #4]
    GPIO_InitStruct.Mode = GPIO_MODE_AF_PP;
 800574a:	2302      	movs	r3, #2
 800574c:	9302      	str	r3, [sp, #8]
    GPIO_InitStruct.Pull = GPIO_NOPULL;
 800574e:	2300      	movs	r3, #0
 8005750:	9303      	str	r3, [sp, #12]
    GPIO_InitStruct.Speed = GPIO_SPEED_FREQ_HIGH;
 8005752:	3303      	adds	r3, #3
 8005754:	9304      	str	r3, [sp, #16]
    GPIO_InitStruct.Alternate = GPIO_AF4_CAN;
 8005756:	3301      	adds	r3, #1
 8005758:	9305      	str	r3, [sp, #20]
    HAL_GPIO_Init(GPIOB, &GPIO_InitStruct);
 800575a:	a901      	add	r1, sp, #4
 800575c:	4803      	ldr	r0, [pc, #12]	; (800576c <HAL_CAN_MspInit+0x4c>)
 800575e:	f7fb fe21 	bl	80013a4 <HAL_GPIO_Init>
}
 8005762:	e7e3      	b.n	800572c <HAL_CAN_MspInit+0xc>
 8005764:	40006400 	.word	0x40006400
 8005768:	40021000 	.word	0x40021000
 800576c:	48000400 	.word	0x48000400

08005770 <HAL_UART_MspInit>:
  }

}

void HAL_UART_MspInit(UART_HandleTypeDef* huart)
{
 8005770:	b530      	push	{r4, r5, lr}
 8005772:	b087      	sub	sp, #28
 8005774:	0004      	movs	r4, r0

  GPIO_InitTypeDef GPIO_InitStruct;
  if(huart->Instance==USART2)
 8005776:	4b28      	ldr	r3, [pc, #160]	; (8005818 <HAL_UART_MspInit+0xa8>)
 8005778:	6802      	ldr	r2, [r0, #0]
 800577a:	429a      	cmp	r2, r3
 800577c:	d001      	beq.n	8005782 <HAL_UART_MspInit+0x12>
  /* USER CODE BEGIN USART2_MspInit 1 */

  /* USER CODE END USART2_MspInit 1 */
  }

}
 800577e:	b007      	add	sp, #28
 8005780:	bd30      	pop	{r4, r5, pc}
    __HAL_RCC_USART2_CLK_ENABLE();
 8005782:	4a26      	ldr	r2, [pc, #152]	; (800581c <HAL_UART_MspInit+0xac>)
 8005784:	69d1      	ldr	r1, [r2, #28]
 8005786:	2080      	movs	r0, #128	; 0x80
 8005788:	0280      	lsls	r0, r0, #10
 800578a:	4301      	orrs	r1, r0
 800578c:	61d1      	str	r1, [r2, #28]
 800578e:	69d3      	ldr	r3, [r2, #28]
 8005790:	4003      	ands	r3, r0
 8005792:	9300      	str	r3, [sp, #0]
 8005794:	9b00      	ldr	r3, [sp, #0]
    GPIO_InitStruct.Pin = GPIO_PIN_1|GPIO_PIN_2|GPIO_PIN_3;
 8005796:	230e      	movs	r3, #14
 8005798:	9301      	str	r3, [sp, #4]
    GPIO_InitStruct.Mode = GPIO_MODE_AF_PP;
 800579a:	3b0c      	subs	r3, #12
 800579c:	9302      	str	r3, [sp, #8]
    GPIO_InitStruct.Pull = GPIO_NOPULL;
 800579e:	2500      	movs	r5, #0
 80057a0:	9503      	str	r5, [sp, #12]
    GPIO_InitStruct.Speed = GPIO_SPEED_FREQ_HIGH;
 80057a2:	3301      	adds	r3, #1
 80057a4:	9304      	str	r3, [sp, #16]
    GPIO_InitStruct.Alternate = GPIO_AF1_USART2;
 80057a6:	3b02      	subs	r3, #2
 80057a8:	9305      	str	r3, [sp, #20]
    HAL_GPIO_Init(GPIOA, &GPIO_InitStruct);
 80057aa:	a901      	add	r1, sp, #4
 80057ac:	2090      	movs	r0, #144	; 0x90
 80057ae:	05c0      	lsls	r0, r0, #23
 80057b0:	f7fb fdf8 	bl	80013a4 <HAL_GPIO_Init>
    hdma_usart2_tx.Instance = DMA1_Channel4;
 80057b4:	481a      	ldr	r0, [pc, #104]	; (8005820 <HAL_UART_MspInit+0xb0>)
 80057b6:	4b1b      	ldr	r3, [pc, #108]	; (8005824 <HAL_UART_MspInit+0xb4>)
 80057b8:	6003      	str	r3, [r0, #0]
    hdma_usart2_tx.Init.Direction = DMA_MEMORY_TO_PERIPH;
 80057ba:	2310      	movs	r3, #16
 80057bc:	6043      	str	r3, [r0, #4]
    hdma_usart2_tx.Init.PeriphInc = DMA_PINC_DISABLE;
 80057be:	6085      	str	r5, [r0, #8]
    hdma_usart2_tx.Init.MemInc = DMA_MINC_ENABLE;
 80057c0:	3370      	adds	r3, #112	; 0x70
 80057c2:	60c3      	str	r3, [r0, #12]
    hdma_usart2_tx.Init.PeriphDataAlignment = DMA_PDATAALIGN_BYTE;
 80057c4:	6105      	str	r5, [r0, #16]
    hdma_usart2_tx.Init.MemDataAlignment = DMA_MDATAALIGN_BYTE;
 80057c6:	6145      	str	r5, [r0, #20]
    hdma_usart2_tx.Init.Mode = DMA_NORMAL;
 80057c8:	6185      	str	r5, [r0, #24]
    hdma_usart2_tx.Init.Priority = DMA_PRIORITY_LOW;
 80057ca:	61c5      	str	r5, [r0, #28]
    if (HAL_DMA_Init(&hdma_usart2_tx) != HAL_OK)
 80057cc:	f7fb fb6a 	bl	8000ea4 <HAL_DMA_Init>
 80057d0:	2800      	cmp	r0, #0
 80057d2:	d116      	bne.n	8005802 <HAL_UART_MspInit+0x92>
    __HAL_LINKDMA(huart,hdmatx,hdma_usart2_tx);
 80057d4:	4b12      	ldr	r3, [pc, #72]	; (8005820 <HAL_UART_MspInit+0xb0>)
 80057d6:	6623      	str	r3, [r4, #96]	; 0x60
 80057d8:	625c      	str	r4, [r3, #36]	; 0x24
    hdma_usart2_rx.Instance = DMA1_Channel5;
 80057da:	4813      	ldr	r0, [pc, #76]	; (8005828 <HAL_UART_MspInit+0xb8>)
 80057dc:	4b13      	ldr	r3, [pc, #76]	; (800582c <HAL_UART_MspInit+0xbc>)
 80057de:	6003      	str	r3, [r0, #0]
    hdma_usart2_rx.Init.Direction = DMA_PERIPH_TO_MEMORY;
 80057e0:	2300      	movs	r3, #0
 80057e2:	6043      	str	r3, [r0, #4]
    hdma_usart2_rx.Init.PeriphInc = DMA_PINC_DISABLE;
 80057e4:	6083      	str	r3, [r0, #8]
    hdma_usart2_rx.Init.MemInc = DMA_MINC_ENABLE;
 80057e6:	2280      	movs	r2, #128	; 0x80
 80057e8:	60c2      	str	r2, [r0, #12]
    hdma_usart2_rx.Init.PeriphDataAlignment = DMA_PDATAALIGN_BYTE;
 80057ea:	6103      	str	r3, [r0, #16]
    hdma_usart2_rx.Init.MemDataAlignment = DMA_MDATAALIGN_BYTE;
 80057ec:	6143      	str	r3, [r0, #20]
    hdma_usart2_rx.Init.Mode = DMA_NORMAL;
 80057ee:	6183      	str	r3, [r0, #24]
    hdma_usart2_rx.Init.Priority = DMA_PRIORITY_LOW;
 80057f0:	61c3      	str	r3, [r0, #28]
    if (HAL_DMA_Init(&hdma_usart2_rx) != HAL_OK)
 80057f2:	f7fb fb57 	bl	8000ea4 <HAL_DMA_Init>
 80057f6:	2800      	cmp	r0, #0
 80057f8:	d108      	bne.n	800580c <HAL_UART_MspInit+0x9c>
    __HAL_LINKDMA(huart,hdmarx,hdma_usart2_rx);
 80057fa:	4b0b      	ldr	r3, [pc, #44]	; (8005828 <HAL_UART_MspInit+0xb8>)
 80057fc:	6663      	str	r3, [r4, #100]	; 0x64
 80057fe:	625c      	str	r4, [r3, #36]	; 0x24
}
 8005800:	e7bd      	b.n	800577e <HAL_UART_MspInit+0xe>
      _Error_Handler(__FILE__, __LINE__);
 8005802:	21b2      	movs	r1, #178	; 0xb2
 8005804:	480a      	ldr	r0, [pc, #40]	; (8005830 <HAL_UART_MspInit+0xc0>)
 8005806:	f7ff f935 	bl	8004a74 <_Error_Handler>
 800580a:	e7e3      	b.n	80057d4 <HAL_UART_MspInit+0x64>
      _Error_Handler(__FILE__, __LINE__);
 800580c:	21c2      	movs	r1, #194	; 0xc2
 800580e:	4808      	ldr	r0, [pc, #32]	; (8005830 <HAL_UART_MspInit+0xc0>)
 8005810:	f7ff f930 	bl	8004a74 <_Error_Handler>
 8005814:	e7f1      	b.n	80057fa <HAL_UART_MspInit+0x8a>
 8005816:	46c0      	nop			; (mov r8, r8)
 8005818:	40004400 	.word	0x40004400
 800581c:	40021000 	.word	0x40021000
 8005820:	20000618 	.word	0x20000618
 8005824:	40020044 	.word	0x40020044
 8005828:	20000518 	.word	0x20000518
 800582c:	40020058 	.word	0x40020058
 8005830:	08006190 	.word	0x08006190

08005834 <HAL_SPI_MspInit>:

}

/* USER CODE BEGIN 1 */
void HAL_SPI_MspInit(SPI_HandleTypeDef* hspi)
{
 8005834:	b530      	push	{r4, r5, lr}
 8005836:	b087      	sub	sp, #28
 8005838:	0004      	movs	r4, r0

  GPIO_InitTypeDef GPIO_InitStruct;
  if(hspi->Instance==SPI1)
 800583a:	4b20      	ldr	r3, [pc, #128]	; (80058bc <HAL_SPI_MspInit+0x88>)
 800583c:	6802      	ldr	r2, [r0, #0]
 800583e:	429a      	cmp	r2, r3
 8005840:	d001      	beq.n	8005846 <HAL_SPI_MspInit+0x12>
    HAL_NVIC_SetPriority(SPI1_IRQn, 2, 2);
	HAL_NVIC_EnableIRQ(SPI1_IRQn);
  /* USER CODE END SPI1_MspInit 1 */
  }

}
 8005842:	b007      	add	sp, #28
 8005844:	bd30      	pop	{r4, r5, pc}
    __HAL_RCC_SPI1_CLK_ENABLE();
 8005846:	4a1e      	ldr	r2, [pc, #120]	; (80058c0 <HAL_SPI_MspInit+0x8c>)
 8005848:	6991      	ldr	r1, [r2, #24]
 800584a:	2080      	movs	r0, #128	; 0x80
 800584c:	0140      	lsls	r0, r0, #5
 800584e:	4301      	orrs	r1, r0
 8005850:	6191      	str	r1, [r2, #24]
 8005852:	6993      	ldr	r3, [r2, #24]
 8005854:	4003      	ands	r3, r0
 8005856:	9300      	str	r3, [sp, #0]
 8005858:	9b00      	ldr	r3, [sp, #0]
    GPIO_InitStruct.Pin = GPIO_PIN_5|GPIO_PIN_7;
 800585a:	23a0      	movs	r3, #160	; 0xa0
 800585c:	9301      	str	r3, [sp, #4]
    GPIO_InitStruct.Mode = GPIO_MODE_AF_PP;
 800585e:	3b9e      	subs	r3, #158	; 0x9e
 8005860:	9302      	str	r3, [sp, #8]
    GPIO_InitStruct.Pull = GPIO_NOPULL;
 8005862:	2500      	movs	r5, #0
 8005864:	9503      	str	r5, [sp, #12]
    GPIO_InitStruct.Speed = GPIO_SPEED_FREQ_HIGH;
 8005866:	3301      	adds	r3, #1
 8005868:	9304      	str	r3, [sp, #16]
    GPIO_InitStruct.Alternate = GPIO_AF0_SPI1;
 800586a:	9505      	str	r5, [sp, #20]
    HAL_GPIO_Init(GPIOA, &GPIO_InitStruct);
 800586c:	a901      	add	r1, sp, #4
 800586e:	2090      	movs	r0, #144	; 0x90
 8005870:	05c0      	lsls	r0, r0, #23
 8005872:	f7fb fd97 	bl	80013a4 <HAL_GPIO_Init>
    hdma_spi1_tx.Instance = DMA1_Channel3;
 8005876:	4813      	ldr	r0, [pc, #76]	; (80058c4 <HAL_SPI_MspInit+0x90>)
 8005878:	4b13      	ldr	r3, [pc, #76]	; (80058c8 <HAL_SPI_MspInit+0x94>)
 800587a:	6003      	str	r3, [r0, #0]
    hdma_spi1_tx.Init.Direction = DMA_MEMORY_TO_PERIPH;
 800587c:	2310      	movs	r3, #16
 800587e:	6043      	str	r3, [r0, #4]
    hdma_spi1_tx.Init.PeriphInc = DMA_PINC_DISABLE;
 8005880:	6085      	str	r5, [r0, #8]
    hdma_spi1_tx.Init.MemInc = DMA_MINC_ENABLE;
 8005882:	3370      	adds	r3, #112	; 0x70
 8005884:	60c3      	str	r3, [r0, #12]
    hdma_spi1_tx.Init.PeriphDataAlignment = DMA_PDATAALIGN_BYTE;
 8005886:	6105      	str	r5, [r0, #16]
    hdma_spi1_tx.Init.MemDataAlignment = DMA_MDATAALIGN_BYTE;
 8005888:	6145      	str	r5, [r0, #20]
    hdma_spi1_tx.Init.Mode = DMA_CIRCULAR;
 800588a:	3b60      	subs	r3, #96	; 0x60
 800588c:	6183      	str	r3, [r0, #24]
    hdma_spi1_tx.Init.Priority = DMA_PRIORITY_LOW;
 800588e:	61c5      	str	r5, [r0, #28]
    if (HAL_DMA_Init(&hdma_spi1_tx) != HAL_OK)
 8005890:	f7fb fb08 	bl	8000ea4 <HAL_DMA_Init>
 8005894:	2800      	cmp	r0, #0
 8005896:	d10b      	bne.n	80058b0 <HAL_SPI_MspInit+0x7c>
    __HAL_LINKDMA(hspi,hdmatx,hdma_spi1_tx);
 8005898:	4b0a      	ldr	r3, [pc, #40]	; (80058c4 <HAL_SPI_MspInit+0x90>)
 800589a:	6563      	str	r3, [r4, #84]	; 0x54
 800589c:	625c      	str	r4, [r3, #36]	; 0x24
    HAL_NVIC_SetPriority(SPI1_IRQn, 2, 2);
 800589e:	2202      	movs	r2, #2
 80058a0:	2102      	movs	r1, #2
 80058a2:	2019      	movs	r0, #25
 80058a4:	f7fb f98e 	bl	8000bc4 <HAL_NVIC_SetPriority>
	HAL_NVIC_EnableIRQ(SPI1_IRQn);
 80058a8:	2019      	movs	r0, #25
 80058aa:	f7fb f9bd 	bl	8000c28 <HAL_NVIC_EnableIRQ>
}
 80058ae:	e7c8      	b.n	8005842 <HAL_SPI_MspInit+0xe>
      _Error_Handler(__FILE__, __LINE__);
 80058b0:	210e      	movs	r1, #14
 80058b2:	31ff      	adds	r1, #255	; 0xff
 80058b4:	4805      	ldr	r0, [pc, #20]	; (80058cc <HAL_SPI_MspInit+0x98>)
 80058b6:	f7ff f8dd 	bl	8004a74 <_Error_Handler>
 80058ba:	e7ed      	b.n	8005898 <HAL_SPI_MspInit+0x64>
 80058bc:	40013000 	.word	0x40013000
 80058c0:	40021000 	.word	0x40021000
 80058c4:	20000774 	.word	0x20000774
 80058c8:	40020030 	.word	0x40020030
 80058cc:	08006190 	.word	0x08006190

080058d0 <NMI_Handler>:

  /* USER CODE END NonMaskableInt_IRQn 0 */
  /* USER CODE BEGIN NonMaskableInt_IRQn 1 */

  /* USER CODE END NonMaskableInt_IRQn 1 */
}
 80058d0:	4770      	bx	lr

080058d2 <HardFault_Handler>:

/**
* @brief This function handles Hard fault interrupt.
*/
void HardFault_Handler(void)
{
 80058d2:	e7fe      	b.n	80058d2 <HardFault_Handler>

080058d4 <SVC_Handler>:

  /* USER CODE END SVC_IRQn 0 */
  /* USER CODE BEGIN SVC_IRQn 1 */

  /* USER CODE END SVC_IRQn 1 */
}
 80058d4:	4770      	bx	lr

080058d6 <PendSV_Handler>:

  /* USER CODE END PendSV_IRQn 0 */
  /* USER CODE BEGIN PendSV_IRQn 1 */

  /* USER CODE END PendSV_IRQn 1 */
}
 80058d6:	4770      	bx	lr

080058d8 <SysTick_Handler>:

/**
* @brief This function handles System tick timer.
*/
void SysTick_Handler(void)
{
 80058d8:	b510      	push	{r4, lr}
  /* USER CODE BEGIN SysTick_IRQn 0 */
  /* USER CODE END SysTick_IRQn 0 */
  HAL_IncTick();
 80058da:	f7fa fce1 	bl	80002a0 <HAL_IncTick>
  HAL_SYSTICK_IRQHandler();
 80058de:	f7fb f9e4 	bl	8000caa <HAL_SYSTICK_IRQHandler>
  /* USER CODE BEGIN SysTick_IRQn 1 */

  /* USER CODE END SysTick_IRQn 1 */
}
 80058e2:	bd10      	pop	{r4, pc}

080058e4 <DMA1_Channel4_5_IRQHandler>:

/**
* @brief This function handles DMA1 channel 4 and 5 interrupts.
*/
void DMA1_Channel4_5_IRQHandler(void)
{
 80058e4:	b510      	push	{r4, lr}
  /* USER CODE BEGIN DMA1_Channel4_5_IRQn 0 */

  /* USER CODE END DMA1_Channel4_5_IRQn 0 */
  HAL_DMA_IRQHandler(&hdma_usart2_tx);
 80058e6:	4803      	ldr	r0, [pc, #12]	; (80058f4 <DMA1_Channel4_5_IRQHandler+0x10>)
 80058e8:	f7fb fb70 	bl	8000fcc <HAL_DMA_IRQHandler>
  HAL_DMA_IRQHandler(&hdma_usart2_rx);
 80058ec:	4802      	ldr	r0, [pc, #8]	; (80058f8 <DMA1_Channel4_5_IRQHandler+0x14>)
 80058ee:	f7fb fb6d 	bl	8000fcc <HAL_DMA_IRQHandler>
  /* USER CODE BEGIN DMA1_Channel4_5_IRQn 1 */

  /* USER CODE END DMA1_Channel4_5_IRQn 1 */
}
 80058f2:	bd10      	pop	{r4, pc}
 80058f4:	20000618 	.word	0x20000618
 80058f8:	20000518 	.word	0x20000518

080058fc <USB_IRQHandler>:

/**
* @brief This function handles USB global Interrupt / USB wake-up interrupt through EXTI line 18.
*/
void USB_IRQHandler(void)
{
 80058fc:	b510      	push	{r4, lr}
  /* USER CODE BEGIN USB_IRQn 0 */

  /* USER CODE END USB_IRQn 0 */
  HAL_PCD_IRQHandler(&hpcd_USB_FS);
 80058fe:	4802      	ldr	r0, [pc, #8]	; (8005908 <USB_IRQHandler+0xc>)
 8005900:	f7fc fea6 	bl	8002650 <HAL_PCD_IRQHandler>
  /* USER CODE BEGIN USB_IRQn 1 */

  /* USER CODE END USB_IRQn 1 */
}
 8005904:	bd10      	pop	{r4, pc}
 8005906:	46c0      	nop			; (mov r8, r8)
 8005908:	20000b40 	.word	0x20000b40

0800590c <CEC_CAN_IRQHandler>:

/* USER CODE BEGIN 1 */
extern CAN_HandleTypeDef hcan;
void CEC_CAN_IRQHandler(void)
{
 800590c:	b510      	push	{r4, lr}
	HAL_CAN_IRQHandler(&hcan);
 800590e:	4802      	ldr	r0, [pc, #8]	; (8005918 <CEC_CAN_IRQHandler+0xc>)
 8005910:	f7fb f872 	bl	80009f8 <HAL_CAN_IRQHandler>
}
 8005914:	bd10      	pop	{r4, pc}
 8005916:	46c0      	nop			; (mov r8, r8)
 8005918:	20000594 	.word	0x20000594

0800591c <USART2_IRQHandler>:

extern UART_HandleTypeDef huart2;
void USART2_IRQHandler(void)
{
 800591c:	b510      	push	{r4, lr}
//	{
//		USART2->ICR |= USART_ICR_CMCF;
//		HAL_UART_DMAStop(&huart2);
//		HAL_UART_RxCpltCallback(&huart2);
//	}
	HAL_UART_IRQHandler(&huart2);
 800591e:	4802      	ldr	r0, [pc, #8]	; (8005928 <USART2_IRQHandler+0xc>)
 8005920:	f7fe f810 	bl	8003944 <HAL_UART_IRQHandler>
}
 8005924:	bd10      	pop	{r4, pc}
 8005926:	46c0      	nop			; (mov r8, r8)
 8005928:	20000704 	.word	0x20000704

0800592c <DMA1_Channel2_3_IRQHandler>:

void DMA1_Channel2_3_IRQHandler(void)
{
 800592c:	b510      	push	{r4, lr}
  HAL_DMA_IRQHandler(&hdma_spi1_tx);
 800592e:	4802      	ldr	r0, [pc, #8]	; (8005938 <DMA1_Channel2_3_IRQHandler+0xc>)
 8005930:	f7fb fb4c 	bl	8000fcc <HAL_DMA_IRQHandler>
}
 8005934:	bd10      	pop	{r4, pc}
 8005936:	46c0      	nop			; (mov r8, r8)
 8005938:	20000774 	.word	0x20000774

0800593c <SPI1_IRQHandler>:

void SPI1_IRQHandler(void)
{
 800593c:	b510      	push	{r4, lr}
  HAL_SPI_IRQHandler(&hspi1);
 800593e:	4802      	ldr	r0, [pc, #8]	; (8005948 <SPI1_IRQHandler+0xc>)
 8005940:	f7fd fc38 	bl	80031b4 <HAL_SPI_IRQHandler>
}
 8005944:	bd10      	pop	{r4, pc}
 8005946:	46c0      	nop			; (mov r8, r8)
 8005948:	200006a0 	.word	0x200006a0

0800594c <SystemInit>:
  */
void SystemInit(void)
{
  /* Reset the RCC clock configuration to the default reset state ------------*/
  /* Set HSION bit */
  RCC->CR |= (uint32_t)0x00000001U;
 800594c:	4b11      	ldr	r3, [pc, #68]	; (8005994 <SystemInit+0x48>)
 800594e:	681a      	ldr	r2, [r3, #0]
 8005950:	2101      	movs	r1, #1
 8005952:	430a      	orrs	r2, r1
 8005954:	601a      	str	r2, [r3, #0]
#if defined (STM32F051x8) || defined (STM32F058x8)
  /* Reset SW[1:0], HPRE[3:0], PPRE[2:0], ADCPRE and MCOSEL[2:0] bits */
  RCC->CFGR &= (uint32_t)0xF8FFB80CU;
#else
  /* Reset SW[1:0], HPRE[3:0], PPRE[2:0], ADCPRE, MCOSEL[2:0], MCOPRE[2:0] and PLLNODIV bits */
  RCC->CFGR &= (uint32_t)0x08FFB80CU;
 8005956:	685a      	ldr	r2, [r3, #4]
 8005958:	480f      	ldr	r0, [pc, #60]	; (8005998 <SystemInit+0x4c>)
 800595a:	4002      	ands	r2, r0
 800595c:	605a      	str	r2, [r3, #4]
#endif /* STM32F051x8 or STM32F058x8 */
  
  /* Reset HSEON, CSSON and PLLON bits */
  RCC->CR &= (uint32_t)0xFEF6FFFFU;
 800595e:	681a      	ldr	r2, [r3, #0]
 8005960:	480e      	ldr	r0, [pc, #56]	; (800599c <SystemInit+0x50>)
 8005962:	4002      	ands	r2, r0
 8005964:	601a      	str	r2, [r3, #0]

  /* Reset HSEBYP bit */
  RCC->CR &= (uint32_t)0xFFFBFFFFU;
 8005966:	681a      	ldr	r2, [r3, #0]
 8005968:	480d      	ldr	r0, [pc, #52]	; (80059a0 <SystemInit+0x54>)
 800596a:	4002      	ands	r2, r0
 800596c:	601a      	str	r2, [r3, #0]

  /* Reset PLLSRC, PLLXTPRE and PLLMUL[3:0] bits */
  RCC->CFGR &= (uint32_t)0xFFC0FFFFU;
 800596e:	685a      	ldr	r2, [r3, #4]
 8005970:	480c      	ldr	r0, [pc, #48]	; (80059a4 <SystemInit+0x58>)
 8005972:	4002      	ands	r2, r0
 8005974:	605a      	str	r2, [r3, #4]

  /* Reset PREDIV[3:0] bits */
  RCC->CFGR2 &= (uint32_t)0xFFFFFFF0U;
 8005976:	6ada      	ldr	r2, [r3, #44]	; 0x2c
 8005978:	200f      	movs	r0, #15
 800597a:	4382      	bics	r2, r0
 800597c:	62da      	str	r2, [r3, #44]	; 0x2c
#elif defined (STM32F051x8) || defined (STM32F058xx)
  /* Reset USART1SW[1:0], I2C1SW, CECSW and ADCSW bits */
  RCC->CFGR3 &= (uint32_t)0xFFFFFEACU;
#elif defined (STM32F042x6) || defined (STM32F048xx)
  /* Reset USART1SW[1:0], I2C1SW, CECSW, USBSW and ADCSW bits */
  RCC->CFGR3 &= (uint32_t)0xFFFFFE2CU;
 800597e:	6b1a      	ldr	r2, [r3, #48]	; 0x30
 8005980:	4809      	ldr	r0, [pc, #36]	; (80059a8 <SystemInit+0x5c>)
 8005982:	4002      	ands	r2, r0
 8005984:	631a      	str	r2, [r3, #48]	; 0x30
#else
 #warning "No target selected"
#endif

  /* Reset HSI14 bit */
  RCC->CR2 &= (uint32_t)0xFFFFFFFEU;
 8005986:	6b5a      	ldr	r2, [r3, #52]	; 0x34
 8005988:	438a      	bics	r2, r1
 800598a:	635a      	str	r2, [r3, #52]	; 0x34

  /* Disable all interrupts */
  RCC->CIR = 0x00000000U;
 800598c:	2200      	movs	r2, #0
 800598e:	609a      	str	r2, [r3, #8]

}
 8005990:	4770      	bx	lr
 8005992:	46c0      	nop			; (mov r8, r8)
 8005994:	40021000 	.word	0x40021000
 8005998:	08ffb80c 	.word	0x08ffb80c
 800599c:	fef6ffff 	.word	0xfef6ffff
 80059a0:	fffbffff 	.word	0xfffbffff
 80059a4:	ffc0ffff 	.word	0xffc0ffff
 80059a8:	fffffe2c 	.word	0xfffffe2c

080059ac <MX_USB_DEVICE_Init>:
/**
  * Init USB device Library, add supported class and start the library
  * @retval None
  */
void MX_USB_DEVICE_Init(void)
{
 80059ac:	b510      	push	{r4, lr}
  /* USER CODE BEGIN USB_DEVICE_Init_PreTreatment */
  
  /* USER CODE END USB_DEVICE_Init_PreTreatment */

  /* Init Device Library, add supported class and start the library. */
  USBD_Init(&hUsbDeviceFS, &FS_Desc, DEVICE_FS);
 80059ae:	4c09      	ldr	r4, [pc, #36]	; (80059d4 <MX_USB_DEVICE_Init+0x28>)
 80059b0:	2200      	movs	r2, #0
 80059b2:	4909      	ldr	r1, [pc, #36]	; (80059d8 <MX_USB_DEVICE_Init+0x2c>)
 80059b4:	0020      	movs	r0, r4
 80059b6:	f7fe f9c9 	bl	8003d4c <USBD_Init>

  USBD_RegisterClass(&hUsbDeviceFS, &USBD_CDC);
 80059ba:	4908      	ldr	r1, [pc, #32]	; (80059dc <MX_USB_DEVICE_Init+0x30>)
 80059bc:	0020      	movs	r0, r4
 80059be:	f7fe f9e1 	bl	8003d84 <USBD_RegisterClass>

  USBD_CDC_RegisterInterface(&hUsbDeviceFS, &USBD_Interface_fops_FS);
 80059c2:	4907      	ldr	r1, [pc, #28]	; (80059e0 <MX_USB_DEVICE_Init+0x34>)
 80059c4:	0020      	movs	r0, r4
 80059c6:	f7fe f96b 	bl	8003ca0 <USBD_CDC_RegisterInterface>

  USBD_Start(&hUsbDeviceFS);
 80059ca:	0020      	movs	r0, r4
 80059cc:	f7fe f9e3 	bl	8003d96 <USBD_Start>

  /* USER CODE BEGIN USB_DEVICE_Init_PostTreatment */
  
  /* USER CODE END USB_DEVICE_Init_PostTreatment */
}
 80059d0:	bd10      	pop	{r4, pc}
 80059d2:	46c0      	nop			; (mov r8, r8)
 80059d4:	2000081c 	.word	0x2000081c
 80059d8:	2000012c 	.word	0x2000012c
 80059dc:	20000000 	.word	0x20000000
 80059e0:	2000011c 	.word	0x2000011c

080059e4 <CDC_DeInit_FS>:
static int8_t CDC_DeInit_FS(void)
{
  /* USER CODE BEGIN 4 */
  return (USBD_OK);
  /* USER CODE END 4 */
}
 80059e4:	2000      	movs	r0, #0
 80059e6:	4770      	bx	lr

080059e8 <CDC_Receive_FS>:
  * @param  Buf: Buffer of data to be received
  * @param  Len: Number of data received (in bytes)
  * @retval Result of the operation: USBD_OK if all operations are OK else USBD_FAIL
  */
static int8_t CDC_Receive_FS(uint8_t* Buf, uint32_t *Len)
{
 80059e8:	b570      	push	{r4, r5, r6, lr}
 80059ea:	0005      	movs	r5, r0
 80059ec:	000e      	movs	r6, r1
  /* USER CODE BEGIN 6 */
 uint32_t i;
 for (i =0; i != *Len; i++)
 80059ee:	2400      	movs	r4, #0
 80059f0:	e003      	b.n	80059fa <CDC_Receive_FS+0x12>
		 {
			 slCanCheckCommand(command);
		 }
	 } else  /* for open state proceed is done in interrupt */
	 {
		 slCanProccesInput(Buf[i]);
 80059f2:	5d28      	ldrb	r0, [r5, r4]
 80059f4:	f7ff fae8 	bl	8004fc8 <slCanProccesInput>
 for (i =0; i != *Len; i++)
 80059f8:	3401      	adds	r4, #1
 80059fa:	6833      	ldr	r3, [r6, #0]
 80059fc:	429c      	cmp	r4, r3
 80059fe:	d00c      	beq.n	8005a1a <CDC_Receive_FS+0x32>
	 if (slcan_getState() == STATE_CONFIG)  /* for config state proceed multiple commands in interrupt*/
 8005a00:	f7ff fd22 	bl	8005448 <slcan_getState>
 8005a04:	2800      	cmp	r0, #0
 8005a06:	d1f4      	bne.n	80059f2 <CDC_Receive_FS+0xa>
		 if (slCanProccesInput(Buf[i]))
 8005a08:	5d28      	ldrb	r0, [r5, r4]
 8005a0a:	f7ff fadd 	bl	8004fc8 <slCanProccesInput>
 8005a0e:	2800      	cmp	r0, #0
 8005a10:	d0f2      	beq.n	80059f8 <CDC_Receive_FS+0x10>
			 slCanCheckCommand(command);
 8005a12:	4807      	ldr	r0, [pc, #28]	; (8005a30 <CDC_Receive_FS+0x48>)
 8005a14:	f7ff fafe 	bl	8005014 <slCanCheckCommand>
 8005a18:	e7ee      	b.n	80059f8 <CDC_Receive_FS+0x10>
	 }
 }

 USBD_CDC_SetRxBuffer(&hUsbDeviceFS, &Buf[0]);
 8005a1a:	4c06      	ldr	r4, [pc, #24]	; (8005a34 <CDC_Receive_FS+0x4c>)
 8005a1c:	0029      	movs	r1, r5
 8005a1e:	0020      	movs	r0, r4
 8005a20:	f7fe f952 	bl	8003cc8 <USBD_CDC_SetRxBuffer>
 USBD_CDC_ReceivePacket(&hUsbDeviceFS);
 8005a24:	0020      	movs	r0, r4
 8005a26:	f7fe f973 	bl	8003d10 <USBD_CDC_ReceivePacket>

 return (USBD_OK);
  /* USER CODE END 6 */
}
 8005a2a:	2000      	movs	r0, #0
 8005a2c:	bd70      	pop	{r4, r5, r6, pc}
 8005a2e:	46c0      	nop			; (mov r8, r8)
 8005a30:	20000290 	.word	0x20000290
 8005a34:	2000081c 	.word	0x2000081c

08005a38 <CDC_Control_FS>:
{
 8005a38:	b510      	push	{r4, lr}
  switch (cmd)
 8005a3a:	2822      	cmp	r0, #34	; 0x22
 8005a3c:	d101      	bne.n	8005a42 <CDC_Control_FS+0xa>
	  slcanClose();
 8005a3e:	f7ff fa93 	bl	8004f68 <slcanClose>
}
 8005a42:	2000      	movs	r0, #0
 8005a44:	bd10      	pop	{r4, pc}
	...

08005a48 <CDC_Init_FS>:
{
 8005a48:	b510      	push	{r4, lr}
  USBD_CDC_SetTxBuffer(&hUsbDeviceFS, UserTxBufferFS, 0);
 8005a4a:	4c06      	ldr	r4, [pc, #24]	; (8005a64 <CDC_Init_FS+0x1c>)
 8005a4c:	2200      	movs	r2, #0
 8005a4e:	4906      	ldr	r1, [pc, #24]	; (8005a68 <CDC_Init_FS+0x20>)
 8005a50:	0020      	movs	r0, r4
 8005a52:	f7fe f92e 	bl	8003cb2 <USBD_CDC_SetTxBuffer>
  USBD_CDC_SetRxBuffer(&hUsbDeviceFS, UserRxBufferFS);
 8005a56:	4905      	ldr	r1, [pc, #20]	; (8005a6c <CDC_Init_FS+0x24>)
 8005a58:	0020      	movs	r0, r4
 8005a5a:	f7fe f935 	bl	8003cc8 <USBD_CDC_SetRxBuffer>
}
 8005a5e:	2000      	movs	r0, #0
 8005a60:	bd10      	pop	{r4, pc}
 8005a62:	46c0      	nop			; (mov r8, r8)
 8005a64:	2000081c 	.word	0x2000081c
 8005a68:	20000ac0 	.word	0x20000ac0
 8005a6c:	20000a40 	.word	0x20000a40

08005a70 <CDC_Transmit_FS>:
  * @param  Buf: Buffer of data to be sent
  * @param  Len: Number of data to be sent (in bytes)
  * @retval USBD_OK if all operations are OK else USBD_FAIL or USBD_BUSY
  */
uint8_t CDC_Transmit_FS(uint8_t* Buf, uint16_t Len)
{
 8005a70:	b570      	push	{r4, r5, r6, lr}
 8005a72:	000c      	movs	r4, r1
  uint8_t result = USBD_OK;
  /* USER CODE BEGIN 7 */
  USBD_CDC_HandleTypeDef *hcdc = (USBD_CDC_HandleTypeDef*)hUsbDeviceFS.pClassData;
 8005a74:	2386      	movs	r3, #134	; 0x86
 8005a76:	009b      	lsls	r3, r3, #2
 8005a78:	4a0b      	ldr	r2, [pc, #44]	; (8005aa8 <CDC_Transmit_FS+0x38>)
 8005a7a:	58d2      	ldr	r2, [r2, r3]
  if (hcdc->TxState != 0){
 8005a7c:	3b04      	subs	r3, #4
 8005a7e:	58d3      	ldr	r3, [r2, r3]
 8005a80:	2b00      	cmp	r3, #0
 8005a82:	d001      	beq.n	8005a88 <CDC_Transmit_FS+0x18>
    return USBD_BUSY;
 8005a84:	2001      	movs	r0, #1
  memcpy(UserTxBufferFS, Buf, Len);
  USBD_CDC_SetTxBuffer(&hUsbDeviceFS, UserTxBufferFS, Len);
  result = USBD_CDC_TransmitPacket(&hUsbDeviceFS);
  /* USER CODE END 7 */
  return result;
}
 8005a86:	bd70      	pop	{r4, r5, r6, pc}
  memcpy(UserTxBufferFS, Buf, Len);
 8005a88:	4e08      	ldr	r6, [pc, #32]	; (8005aac <CDC_Transmit_FS+0x3c>)
 8005a8a:	000a      	movs	r2, r1
 8005a8c:	0001      	movs	r1, r0
 8005a8e:	0030      	movs	r0, r6
 8005a90:	f000 fa4e 	bl	8005f30 <memcpy>
  USBD_CDC_SetTxBuffer(&hUsbDeviceFS, UserTxBufferFS, Len);
 8005a94:	4d04      	ldr	r5, [pc, #16]	; (8005aa8 <CDC_Transmit_FS+0x38>)
 8005a96:	0022      	movs	r2, r4
 8005a98:	0031      	movs	r1, r6
 8005a9a:	0028      	movs	r0, r5
 8005a9c:	f7fe f909 	bl	8003cb2 <USBD_CDC_SetTxBuffer>
  result = USBD_CDC_TransmitPacket(&hUsbDeviceFS);
 8005aa0:	0028      	movs	r0, r5
 8005aa2:	f7fe f918 	bl	8003cd6 <USBD_CDC_TransmitPacket>
  return result;
 8005aa6:	e7ee      	b.n	8005a86 <CDC_Transmit_FS+0x16>
 8005aa8:	2000081c 	.word	0x2000081c
 8005aac:	20000ac0 	.word	0x20000ac0

08005ab0 <SystemClockConfig_Resume>:
  *         enable HSI, PLL and select PLL as system clock source.
  * @param  None
  * @retval None
  */
static void SystemClockConfig_Resume(void)
{
 8005ab0:	b510      	push	{r4, lr}
  SystemClock_Config();
 8005ab2:	f7fe ffef 	bl	8004a94 <SystemClock_Config>
}
 8005ab6:	bd10      	pop	{r4, pc}

08005ab8 <HAL_PCD_MspInit>:
{
 8005ab8:	b500      	push	{lr}
 8005aba:	b083      	sub	sp, #12
  if(pcdHandle->Instance==USB)
 8005abc:	6802      	ldr	r2, [r0, #0]
 8005abe:	4b0c      	ldr	r3, [pc, #48]	; (8005af0 <HAL_PCD_MspInit+0x38>)
 8005ac0:	429a      	cmp	r2, r3
 8005ac2:	d001      	beq.n	8005ac8 <HAL_PCD_MspInit+0x10>
}
 8005ac4:	b003      	add	sp, #12
 8005ac6:	bd00      	pop	{pc}
    __HAL_RCC_USB_CLK_ENABLE();
 8005ac8:	4a0a      	ldr	r2, [pc, #40]	; (8005af4 <HAL_PCD_MspInit+0x3c>)
 8005aca:	69d1      	ldr	r1, [r2, #28]
 8005acc:	2080      	movs	r0, #128	; 0x80
 8005ace:	0400      	lsls	r0, r0, #16
 8005ad0:	4301      	orrs	r1, r0
 8005ad2:	61d1      	str	r1, [r2, #28]
 8005ad4:	69d3      	ldr	r3, [r2, #28]
 8005ad6:	4003      	ands	r3, r0
 8005ad8:	9301      	str	r3, [sp, #4]
 8005ada:	9b01      	ldr	r3, [sp, #4]
    HAL_NVIC_SetPriority(USB_IRQn, 2, 2);
 8005adc:	2202      	movs	r2, #2
 8005ade:	2102      	movs	r1, #2
 8005ae0:	201f      	movs	r0, #31
 8005ae2:	f7fb f86f 	bl	8000bc4 <HAL_NVIC_SetPriority>
    HAL_NVIC_EnableIRQ(USB_IRQn);
 8005ae6:	201f      	movs	r0, #31
 8005ae8:	f7fb f89e 	bl	8000c28 <HAL_NVIC_EnableIRQ>
}
 8005aec:	e7ea      	b.n	8005ac4 <HAL_PCD_MspInit+0xc>
 8005aee:	46c0      	nop			; (mov r8, r8)
 8005af0:	40005c00 	.word	0x40005c00
 8005af4:	40021000 	.word	0x40021000

08005af8 <HAL_PCD_SetupStageCallback>:
{
 8005af8:	b510      	push	{r4, lr}
 8005afa:	0001      	movs	r1, r0
  USBD_LL_SetupStage((USBD_HandleTypeDef*)hpcd->pData, (uint8_t *)hpcd->Setup);
 8005afc:	2387      	movs	r3, #135	; 0x87
 8005afe:	009b      	lsls	r3, r3, #2
 8005b00:	58c0      	ldr	r0, [r0, r3]
 8005b02:	31ed      	adds	r1, #237	; 0xed
 8005b04:	31ff      	adds	r1, #255	; 0xff
 8005b06:	f7fe f963 	bl	8003dd0 <USBD_LL_SetupStage>
}
 8005b0a:	bd10      	pop	{r4, pc}

08005b0c <HAL_PCD_DataOutStageCallback>:
{
 8005b0c:	b510      	push	{r4, lr}
 8005b0e:	0003      	movs	r3, r0
  USBD_LL_DataOutStage((USBD_HandleTypeDef*)hpcd->pData, epnum, hpcd->OUT_ep[epnum].xfer_buff);
 8005b10:	2287      	movs	r2, #135	; 0x87
 8005b12:	0092      	lsls	r2, r2, #2
 8005b14:	5880      	ldr	r0, [r0, r2]
 8005b16:	00ca      	lsls	r2, r1, #3
 8005b18:	1a52      	subs	r2, r2, r1
 8005b1a:	0094      	lsls	r4, r2, #2
 8005b1c:	191b      	adds	r3, r3, r4
 8005b1e:	3319      	adds	r3, #25
 8005b20:	33ff      	adds	r3, #255	; 0xff
 8005b22:	681a      	ldr	r2, [r3, #0]
 8005b24:	f7fe f988 	bl	8003e38 <USBD_LL_DataOutStage>
}
 8005b28:	bd10      	pop	{r4, pc}

08005b2a <HAL_PCD_DataInStageCallback>:
{
 8005b2a:	b510      	push	{r4, lr}
 8005b2c:	0003      	movs	r3, r0
  USBD_LL_DataInStage((USBD_HandleTypeDef*)hpcd->pData, epnum, hpcd->IN_ep[epnum].xfer_buff);
 8005b2e:	2287      	movs	r2, #135	; 0x87
 8005b30:	0092      	lsls	r2, r2, #2
 8005b32:	5880      	ldr	r0, [r0, r2]
 8005b34:	00ca      	lsls	r2, r1, #3
 8005b36:	1a52      	subs	r2, r2, r1
 8005b38:	0094      	lsls	r4, r2, #2
 8005b3a:	191b      	adds	r3, r3, r4
 8005b3c:	6b9a      	ldr	r2, [r3, #56]	; 0x38
 8005b3e:	f7fe f9b8 	bl	8003eb2 <USBD_LL_DataInStage>
}
 8005b42:	bd10      	pop	{r4, pc}

08005b44 <HAL_PCD_SOFCallback>:
{
 8005b44:	b510      	push	{r4, lr}
  USBD_LL_SOF((USBD_HandleTypeDef*)hpcd->pData);
 8005b46:	2387      	movs	r3, #135	; 0x87
 8005b48:	009b      	lsls	r3, r3, #2
 8005b4a:	58c0      	ldr	r0, [r0, r3]
 8005b4c:	f7fe fa4b 	bl	8003fe6 <USBD_LL_SOF>
}
 8005b50:	bd10      	pop	{r4, pc}

08005b52 <HAL_PCD_ResetCallback>:
{
 8005b52:	b570      	push	{r4, r5, r6, lr}
 8005b54:	0005      	movs	r5, r0
  USBD_LL_SetSpeed((USBD_HandleTypeDef*)hpcd->pData, speed);
 8005b56:	2487      	movs	r4, #135	; 0x87
 8005b58:	00a4      	lsls	r4, r4, #2
 8005b5a:	2101      	movs	r1, #1
 8005b5c:	5900      	ldr	r0, [r0, r4]
 8005b5e:	f7fe fa2d 	bl	8003fbc <USBD_LL_SetSpeed>
  USBD_LL_Reset((USBD_HandleTypeDef*)hpcd->pData);
 8005b62:	5928      	ldr	r0, [r5, r4]
 8005b64:	f7fe fa07 	bl	8003f76 <USBD_LL_Reset>
}
 8005b68:	bd70      	pop	{r4, r5, r6, pc}
	...

08005b6c <HAL_PCD_SuspendCallback>:
{
 8005b6c:	b510      	push	{r4, lr}
 8005b6e:	0004      	movs	r4, r0
  USBD_LL_Suspend((USBD_HandleTypeDef*)hpcd->pData);
 8005b70:	2387      	movs	r3, #135	; 0x87
 8005b72:	009b      	lsls	r3, r3, #2
 8005b74:	58c0      	ldr	r0, [r0, r3]
 8005b76:	f7fe fa24 	bl	8003fc2 <USBD_LL_Suspend>
  if (hpcd->Init.low_power_enable)
 8005b7a:	69a3      	ldr	r3, [r4, #24]
 8005b7c:	2b00      	cmp	r3, #0
 8005b7e:	d004      	beq.n	8005b8a <HAL_PCD_SuspendCallback+0x1e>
    SCB->SCR |= (uint32_t)((uint32_t)(SCB_SCR_SLEEPDEEP_Msk | SCB_SCR_SLEEPONEXIT_Msk));
 8005b80:	4a02      	ldr	r2, [pc, #8]	; (8005b8c <HAL_PCD_SuspendCallback+0x20>)
 8005b82:	6913      	ldr	r3, [r2, #16]
 8005b84:	2106      	movs	r1, #6
 8005b86:	430b      	orrs	r3, r1
 8005b88:	6113      	str	r3, [r2, #16]
}
 8005b8a:	bd10      	pop	{r4, pc}
 8005b8c:	e000ed00 	.word	0xe000ed00

08005b90 <HAL_PCD_ResumeCallback>:
{
 8005b90:	b510      	push	{r4, lr}
 8005b92:	0004      	movs	r4, r0
  if (hpcd->Init.low_power_enable)
 8005b94:	6983      	ldr	r3, [r0, #24]
 8005b96:	2b00      	cmp	r3, #0
 8005b98:	d105      	bne.n	8005ba6 <HAL_PCD_ResumeCallback+0x16>
  USBD_LL_Resume((USBD_HandleTypeDef*)hpcd->pData);
 8005b9a:	2387      	movs	r3, #135	; 0x87
 8005b9c:	009b      	lsls	r3, r3, #2
 8005b9e:	58e0      	ldr	r0, [r4, r3]
 8005ba0:	f7fe fa1a 	bl	8003fd8 <USBD_LL_Resume>
}
 8005ba4:	bd10      	pop	{r4, pc}
    SCB->SCR &= (uint32_t)~((uint32_t)(SCB_SCR_SLEEPDEEP_Msk | SCB_SCR_SLEEPONEXIT_Msk));   
 8005ba6:	4a04      	ldr	r2, [pc, #16]	; (8005bb8 <HAL_PCD_ResumeCallback+0x28>)
 8005ba8:	6913      	ldr	r3, [r2, #16]
 8005baa:	2106      	movs	r1, #6
 8005bac:	438b      	bics	r3, r1
 8005bae:	6113      	str	r3, [r2, #16]
    SystemClockConfig_Resume(); 
 8005bb0:	f7ff ff7e 	bl	8005ab0 <SystemClockConfig_Resume>
 8005bb4:	e7f1      	b.n	8005b9a <HAL_PCD_ResumeCallback+0xa>
 8005bb6:	46c0      	nop			; (mov r8, r8)
 8005bb8:	e000ed00 	.word	0xe000ed00

08005bbc <USBD_LL_Init>:
{
 8005bbc:	b570      	push	{r4, r5, r6, lr}
 8005bbe:	0004      	movs	r4, r0
  hpcd_USB_FS.pData = pdev;
 8005bc0:	481f      	ldr	r0, [pc, #124]	; (8005c40 <USBD_LL_Init+0x84>)
 8005bc2:	2387      	movs	r3, #135	; 0x87
 8005bc4:	009b      	lsls	r3, r3, #2
 8005bc6:	50c4      	str	r4, [r0, r3]
  pdev->pData = &hpcd_USB_FS;
 8005bc8:	3304      	adds	r3, #4
 8005bca:	50e0      	str	r0, [r4, r3]
  hpcd_USB_FS.Instance = USB;
 8005bcc:	4b1d      	ldr	r3, [pc, #116]	; (8005c44 <USBD_LL_Init+0x88>)
 8005bce:	6003      	str	r3, [r0, #0]
  hpcd_USB_FS.Init.dev_endpoints = 8;
 8005bd0:	2308      	movs	r3, #8
 8005bd2:	6043      	str	r3, [r0, #4]
  hpcd_USB_FS.Init.speed = PCD_SPEED_FULL;
 8005bd4:	2202      	movs	r2, #2
 8005bd6:	6082      	str	r2, [r0, #8]
  hpcd_USB_FS.Init.ep0_mps = DEP0CTL_MPS_64;
 8005bd8:	2300      	movs	r3, #0
 8005bda:	60c3      	str	r3, [r0, #12]
  hpcd_USB_FS.Init.phy_itface = PCD_PHY_EMBEDDED;
 8005bdc:	6102      	str	r2, [r0, #16]
  hpcd_USB_FS.Init.low_power_enable = DISABLE;
 8005bde:	6183      	str	r3, [r0, #24]
  hpcd_USB_FS.Init.lpm_enable = DISABLE;
 8005be0:	61c3      	str	r3, [r0, #28]
  hpcd_USB_FS.Init.battery_charging_enable = DISABLE;
 8005be2:	6203      	str	r3, [r0, #32]
  if (HAL_PCD_Init(&hpcd_USB_FS) != HAL_OK)
 8005be4:	f7fb fca8 	bl	8001538 <HAL_PCD_Init>
 8005be8:	2800      	cmp	r0, #0
 8005bea:	d123      	bne.n	8005c34 <USBD_LL_Init+0x78>
  HAL_PCDEx_PMAConfig((PCD_HandleTypeDef*)pdev->pData , 0x00 , PCD_SNG_BUF, 0x18);
 8005bec:	2588      	movs	r5, #136	; 0x88
 8005bee:	00ad      	lsls	r5, r5, #2
 8005bf0:	2318      	movs	r3, #24
 8005bf2:	2200      	movs	r2, #0
 8005bf4:	2100      	movs	r1, #0
 8005bf6:	5960      	ldr	r0, [r4, r5]
 8005bf8:	f7fc fdba 	bl	8002770 <HAL_PCDEx_PMAConfig>
  HAL_PCDEx_PMAConfig((PCD_HandleTypeDef*)pdev->pData , 0x80 , PCD_SNG_BUF, 0x58);
 8005bfc:	2358      	movs	r3, #88	; 0x58
 8005bfe:	2200      	movs	r2, #0
 8005c00:	2180      	movs	r1, #128	; 0x80
 8005c02:	5960      	ldr	r0, [r4, r5]
 8005c04:	f7fc fdb4 	bl	8002770 <HAL_PCDEx_PMAConfig>
  HAL_PCDEx_PMAConfig((PCD_HandleTypeDef*)pdev->pData , 0x81 , PCD_SNG_BUF, 0xC0);
 8005c08:	23c0      	movs	r3, #192	; 0xc0
 8005c0a:	2200      	movs	r2, #0
 8005c0c:	2181      	movs	r1, #129	; 0x81
 8005c0e:	5960      	ldr	r0, [r4, r5]
 8005c10:	f7fc fdae 	bl	8002770 <HAL_PCDEx_PMAConfig>
  HAL_PCDEx_PMAConfig((PCD_HandleTypeDef*)pdev->pData , 0x01 , PCD_SNG_BUF, 0x110);
 8005c14:	2388      	movs	r3, #136	; 0x88
 8005c16:	005b      	lsls	r3, r3, #1
 8005c18:	2200      	movs	r2, #0
 8005c1a:	2101      	movs	r1, #1
 8005c1c:	5960      	ldr	r0, [r4, r5]
 8005c1e:	f7fc fda7 	bl	8002770 <HAL_PCDEx_PMAConfig>
  HAL_PCDEx_PMAConfig((PCD_HandleTypeDef*)pdev->pData , 0x82 , PCD_SNG_BUF, 0x100);
 8005c22:	5960      	ldr	r0, [r4, r5]
 8005c24:	2380      	movs	r3, #128	; 0x80
 8005c26:	005b      	lsls	r3, r3, #1
 8005c28:	2200      	movs	r2, #0
 8005c2a:	2182      	movs	r1, #130	; 0x82
 8005c2c:	f7fc fda0 	bl	8002770 <HAL_PCDEx_PMAConfig>
}
 8005c30:	2000      	movs	r0, #0
 8005c32:	bd70      	pop	{r4, r5, r6, pc}
    _Error_Handler(__FILE__, __LINE__);
 8005c34:	219a      	movs	r1, #154	; 0x9a
 8005c36:	0049      	lsls	r1, r1, #1
 8005c38:	4803      	ldr	r0, [pc, #12]	; (8005c48 <USBD_LL_Init+0x8c>)
 8005c3a:	f7fe ff1b 	bl	8004a74 <_Error_Handler>
 8005c3e:	e7d5      	b.n	8005bec <USBD_LL_Init+0x30>
 8005c40:	20000b40 	.word	0x20000b40
 8005c44:	40005c00 	.word	0x40005c00
 8005c48:	080061c4 	.word	0x080061c4

08005c4c <USBD_LL_Start>:
{
 8005c4c:	b510      	push	{r4, lr}
  hal_status = HAL_PCD_Start(pdev->pData);
 8005c4e:	2388      	movs	r3, #136	; 0x88
 8005c50:	009b      	lsls	r3, r3, #2
 8005c52:	58c0      	ldr	r0, [r0, r3]
 8005c54:	f7fb fcd0 	bl	80015f8 <HAL_PCD_Start>
  switch (hal_status) {
 8005c58:	2800      	cmp	r0, #0
 8005c5a:	d003      	beq.n	8005c64 <USBD_LL_Start+0x18>
 8005c5c:	2802      	cmp	r0, #2
 8005c5e:	d003      	beq.n	8005c68 <USBD_LL_Start+0x1c>
      usb_status = USBD_FAIL;
 8005c60:	2002      	movs	r0, #2
}
 8005c62:	bd10      	pop	{r4, pc}
      usb_status = USBD_OK;
 8005c64:	2000      	movs	r0, #0
 8005c66:	e7fc      	b.n	8005c62 <USBD_LL_Start+0x16>
      usb_status = USBD_BUSY;
 8005c68:	2001      	movs	r0, #1
    break;
 8005c6a:	e7fa      	b.n	8005c62 <USBD_LL_Start+0x16>

08005c6c <USBD_LL_OpenEP>:
{
 8005c6c:	b510      	push	{r4, lr}
 8005c6e:	0014      	movs	r4, r2
 8005c70:	001a      	movs	r2, r3
  hal_status = HAL_PCD_EP_Open(pdev->pData, ep_addr, ep_mps, ep_type);
 8005c72:	2388      	movs	r3, #136	; 0x88
 8005c74:	009b      	lsls	r3, r3, #2
 8005c76:	58c0      	ldr	r0, [r0, r3]
 8005c78:	0023      	movs	r3, r4
 8005c7a:	f7fb fce5 	bl	8001648 <HAL_PCD_EP_Open>
  switch (hal_status) {
 8005c7e:	2800      	cmp	r0, #0
 8005c80:	d003      	beq.n	8005c8a <USBD_LL_OpenEP+0x1e>
 8005c82:	2802      	cmp	r0, #2
 8005c84:	d003      	beq.n	8005c8e <USBD_LL_OpenEP+0x22>
      usb_status = USBD_FAIL;
 8005c86:	2002      	movs	r0, #2
}
 8005c88:	bd10      	pop	{r4, pc}
      usb_status = USBD_OK;
 8005c8a:	2000      	movs	r0, #0
 8005c8c:	e7fc      	b.n	8005c88 <USBD_LL_OpenEP+0x1c>
      usb_status = USBD_BUSY;
 8005c8e:	2001      	movs	r0, #1
    break;
 8005c90:	e7fa      	b.n	8005c88 <USBD_LL_OpenEP+0x1c>

08005c92 <USBD_LL_CloseEP>:
{
 8005c92:	b510      	push	{r4, lr}
  hal_status = HAL_PCD_EP_Close(pdev->pData, ep_addr);
 8005c94:	2388      	movs	r3, #136	; 0x88
 8005c96:	009b      	lsls	r3, r3, #2
 8005c98:	58c0      	ldr	r0, [r0, r3]
 8005c9a:	f7fb fe7f 	bl	800199c <HAL_PCD_EP_Close>
  switch (hal_status) {
 8005c9e:	2800      	cmp	r0, #0
 8005ca0:	d003      	beq.n	8005caa <USBD_LL_CloseEP+0x18>
 8005ca2:	2802      	cmp	r0, #2
 8005ca4:	d003      	beq.n	8005cae <USBD_LL_CloseEP+0x1c>
      usb_status = USBD_FAIL;
 8005ca6:	2002      	movs	r0, #2
}
 8005ca8:	bd10      	pop	{r4, pc}
      usb_status = USBD_OK;
 8005caa:	2000      	movs	r0, #0
 8005cac:	e7fc      	b.n	8005ca8 <USBD_LL_CloseEP+0x16>
      usb_status = USBD_BUSY;
 8005cae:	2001      	movs	r0, #1
    break;
 8005cb0:	e7fa      	b.n	8005ca8 <USBD_LL_CloseEP+0x16>

08005cb2 <USBD_LL_StallEP>:
{
 8005cb2:	b510      	push	{r4, lr}
  hal_status = HAL_PCD_EP_SetStall(pdev->pData, ep_addr);
 8005cb4:	2388      	movs	r3, #136	; 0x88
 8005cb6:	009b      	lsls	r3, r3, #2
 8005cb8:	58c0      	ldr	r0, [r0, r3]
 8005cba:	f7fc f861 	bl	8001d80 <HAL_PCD_EP_SetStall>
  switch (hal_status) {
 8005cbe:	2800      	cmp	r0, #0
 8005cc0:	d003      	beq.n	8005cca <USBD_LL_StallEP+0x18>
 8005cc2:	2802      	cmp	r0, #2
 8005cc4:	d003      	beq.n	8005cce <USBD_LL_StallEP+0x1c>
      usb_status = USBD_FAIL;
 8005cc6:	2002      	movs	r0, #2
}
 8005cc8:	bd10      	pop	{r4, pc}
      usb_status = USBD_OK;
 8005cca:	2000      	movs	r0, #0
 8005ccc:	e7fc      	b.n	8005cc8 <USBD_LL_StallEP+0x16>
      usb_status = USBD_BUSY;
 8005cce:	2001      	movs	r0, #1
    break;
 8005cd0:	e7fa      	b.n	8005cc8 <USBD_LL_StallEP+0x16>

08005cd2 <USBD_LL_ClearStallEP>:
{
 8005cd2:	b510      	push	{r4, lr}
  hal_status = HAL_PCD_EP_ClrStall(pdev->pData, ep_addr);
 8005cd4:	2388      	movs	r3, #136	; 0x88
 8005cd6:	009b      	lsls	r3, r3, #2
 8005cd8:	58c0      	ldr	r0, [r0, r3]
 8005cda:	f7fc f8b3 	bl	8001e44 <HAL_PCD_EP_ClrStall>
  switch (hal_status) {
 8005cde:	2800      	cmp	r0, #0
 8005ce0:	d003      	beq.n	8005cea <USBD_LL_ClearStallEP+0x18>
 8005ce2:	2802      	cmp	r0, #2
 8005ce4:	d003      	beq.n	8005cee <USBD_LL_ClearStallEP+0x1c>
      usb_status = USBD_FAIL;
 8005ce6:	2002      	movs	r0, #2
}
 8005ce8:	bd10      	pop	{r4, pc}
      usb_status = USBD_OK;
 8005cea:	2000      	movs	r0, #0
 8005cec:	e7fc      	b.n	8005ce8 <USBD_LL_ClearStallEP+0x16>
      usb_status = USBD_BUSY;
 8005cee:	2001      	movs	r0, #1
    break;
 8005cf0:	e7fa      	b.n	8005ce8 <USBD_LL_ClearStallEP+0x16>

08005cf2 <USBD_LL_IsStallEP>:
{
 8005cf2:	000a      	movs	r2, r1
  PCD_HandleTypeDef *hpcd = (PCD_HandleTypeDef*) pdev->pData;
 8005cf4:	2388      	movs	r3, #136	; 0x88
 8005cf6:	009b      	lsls	r3, r3, #2
 8005cf8:	58c3      	ldr	r3, [r0, r3]
  if((ep_addr & 0x80) == 0x80)
 8005cfa:	b249      	sxtb	r1, r1
 8005cfc:	2900      	cmp	r1, #0
 8005cfe:	db09      	blt.n	8005d14 <USBD_LL_IsStallEP+0x22>
    return hpcd->OUT_ep[ep_addr & 0x7F].is_stall;
 8005d00:	217f      	movs	r1, #127	; 0x7f
 8005d02:	4011      	ands	r1, r2
 8005d04:	00ca      	lsls	r2, r1, #3
 8005d06:	1a51      	subs	r1, r2, r1
 8005d08:	008a      	lsls	r2, r1, #2
 8005d0a:	189b      	adds	r3, r3, r2
 8005d0c:	330b      	adds	r3, #11
 8005d0e:	33ff      	adds	r3, #255	; 0xff
 8005d10:	7818      	ldrb	r0, [r3, #0]
}
 8005d12:	4770      	bx	lr
    return hpcd->IN_ep[ep_addr & 0x7F].is_stall;
 8005d14:	217f      	movs	r1, #127	; 0x7f
 8005d16:	4011      	ands	r1, r2
 8005d18:	00c8      	lsls	r0, r1, #3
 8005d1a:	1a41      	subs	r1, r0, r1
 8005d1c:	008a      	lsls	r2, r1, #2
 8005d1e:	189b      	adds	r3, r3, r2
 8005d20:	332a      	adds	r3, #42	; 0x2a
 8005d22:	7818      	ldrb	r0, [r3, #0]
 8005d24:	e7f5      	b.n	8005d12 <USBD_LL_IsStallEP+0x20>

08005d26 <USBD_LL_SetUSBAddress>:
{
 8005d26:	b510      	push	{r4, lr}
  hal_status = HAL_PCD_SetAddress(pdev->pData, dev_addr);
 8005d28:	2388      	movs	r3, #136	; 0x88
 8005d2a:	009b      	lsls	r3, r3, #2
 8005d2c:	58c0      	ldr	r0, [r0, r3]
 8005d2e:	f7fb fc6f 	bl	8001610 <HAL_PCD_SetAddress>
  switch (hal_status) {
 8005d32:	2800      	cmp	r0, #0
 8005d34:	d003      	beq.n	8005d3e <USBD_LL_SetUSBAddress+0x18>
 8005d36:	2802      	cmp	r0, #2
 8005d38:	d003      	beq.n	8005d42 <USBD_LL_SetUSBAddress+0x1c>
      usb_status = USBD_FAIL;
 8005d3a:	2002      	movs	r0, #2
}
 8005d3c:	bd10      	pop	{r4, pc}
      usb_status = USBD_OK;
 8005d3e:	2000      	movs	r0, #0
 8005d40:	e7fc      	b.n	8005d3c <USBD_LL_SetUSBAddress+0x16>
      usb_status = USBD_BUSY;
 8005d42:	2001      	movs	r0, #1
    break;
 8005d44:	e7fa      	b.n	8005d3c <USBD_LL_SetUSBAddress+0x16>

08005d46 <USBD_LL_Transmit>:
{
 8005d46:	b510      	push	{r4, lr}
  hal_status = HAL_PCD_EP_Transmit(pdev->pData, ep_addr, pbuf, size);
 8005d48:	2488      	movs	r4, #136	; 0x88
 8005d4a:	00a4      	lsls	r4, r4, #2
 8005d4c:	5900      	ldr	r0, [r0, r4]
 8005d4e:	f7fc f8fd 	bl	8001f4c <HAL_PCD_EP_Transmit>
  switch (hal_status) {
 8005d52:	2800      	cmp	r0, #0
 8005d54:	d003      	beq.n	8005d5e <USBD_LL_Transmit+0x18>
 8005d56:	2802      	cmp	r0, #2
 8005d58:	d003      	beq.n	8005d62 <USBD_LL_Transmit+0x1c>
      usb_status = USBD_FAIL;
 8005d5a:	2002      	movs	r0, #2
}
 8005d5c:	bd10      	pop	{r4, pc}
      usb_status = USBD_OK;
 8005d5e:	2000      	movs	r0, #0
 8005d60:	e7fc      	b.n	8005d5c <USBD_LL_Transmit+0x16>
      usb_status = USBD_BUSY;
 8005d62:	2001      	movs	r0, #1
    break;
 8005d64:	e7fa      	b.n	8005d5c <USBD_LL_Transmit+0x16>

08005d66 <USBD_LL_PrepareReceive>:
{
 8005d66:	b510      	push	{r4, lr}
  hal_status = HAL_PCD_EP_Receive(pdev->pData, ep_addr, pbuf, size);
 8005d68:	2488      	movs	r4, #136	; 0x88
 8005d6a:	00a4      	lsls	r4, r4, #2
 8005d6c:	5900      	ldr	r0, [r0, r4]
 8005d6e:	f7fb fefd 	bl	8001b6c <HAL_PCD_EP_Receive>
  switch (hal_status) {
 8005d72:	2800      	cmp	r0, #0
 8005d74:	d003      	beq.n	8005d7e <USBD_LL_PrepareReceive+0x18>
 8005d76:	2802      	cmp	r0, #2
 8005d78:	d003      	beq.n	8005d82 <USBD_LL_PrepareReceive+0x1c>
      usb_status = USBD_FAIL;
 8005d7a:	2002      	movs	r0, #2
}
 8005d7c:	bd10      	pop	{r4, pc}
      usb_status = USBD_OK;
 8005d7e:	2000      	movs	r0, #0
 8005d80:	e7fc      	b.n	8005d7c <USBD_LL_PrepareReceive+0x16>
      usb_status = USBD_BUSY;
 8005d82:	2001      	movs	r0, #1
    break;
 8005d84:	e7fa      	b.n	8005d7c <USBD_LL_PrepareReceive+0x16>

08005d86 <USBD_LL_GetRxDataSize>:
{
 8005d86:	b510      	push	{r4, lr}
  return HAL_PCD_EP_GetRxCount((PCD_HandleTypeDef*) pdev->pData, ep_addr);
 8005d88:	2388      	movs	r3, #136	; 0x88
 8005d8a:	009b      	lsls	r3, r3, #2
 8005d8c:	58c0      	ldr	r0, [r0, r3]
 8005d8e:	f7fb ffed 	bl	8001d6c <HAL_PCD_EP_GetRxCount>
}
 8005d92:	bd10      	pop	{r4, pc}

08005d94 <USBD_static_malloc>:
}
 8005d94:	4800      	ldr	r0, [pc, #0]	; (8005d98 <USBD_static_malloc+0x4>)
 8005d96:	4770      	bx	lr
 8005d98:	200002d4 	.word	0x200002d4

08005d9c <USBD_static_free>:
}
 8005d9c:	4770      	bx	lr
	...

08005da0 <USBD_FS_DeviceDescriptor>:
  * @param  length : Pointer to data length variable
  * @retval Pointer to descriptor buffer
  */
uint8_t * USBD_FS_DeviceDescriptor(USBD_SpeedTypeDef speed, uint16_t *length)
{
  *length = sizeof(USBD_FS_DeviceDesc);
 8005da0:	2312      	movs	r3, #18
 8005da2:	800b      	strh	r3, [r1, #0]
  return USBD_FS_DeviceDesc;
}
 8005da4:	4800      	ldr	r0, [pc, #0]	; (8005da8 <USBD_FS_DeviceDescriptor+0x8>)
 8005da6:	4770      	bx	lr
 8005da8:	20000148 	.word	0x20000148

08005dac <USBD_FS_LangIDStrDescriptor>:
  * @param  length : Pointer to data length variable
  * @retval Pointer to descriptor buffer
  */
uint8_t * USBD_FS_LangIDStrDescriptor(USBD_SpeedTypeDef speed, uint16_t *length)
{
  *length = sizeof(USBD_LangIDDesc);
 8005dac:	2304      	movs	r3, #4
 8005dae:	800b      	strh	r3, [r1, #0]
  return USBD_LangIDDesc;
}
 8005db0:	4800      	ldr	r0, [pc, #0]	; (8005db4 <USBD_FS_LangIDStrDescriptor+0x8>)
 8005db2:	4770      	bx	lr
 8005db4:	2000015c 	.word	0x2000015c

08005db8 <USBD_FS_ProductStrDescriptor>:
  * @param  speed : Current device speed
  * @param  length : Pointer to data length variable
  * @retval Pointer to descriptor buffer
  */
uint8_t * USBD_FS_ProductStrDescriptor(USBD_SpeedTypeDef speed, uint16_t *length)
{
 8005db8:	b510      	push	{r4, lr}
 8005dba:	000a      	movs	r2, r1
  if(speed == 0)
 8005dbc:	2800      	cmp	r0, #0
 8005dbe:	d005      	beq.n	8005dcc <USBD_FS_ProductStrDescriptor+0x14>
  {
    USBD_GetString((uint8_t *)USBD_PRODUCT_STRING_FS, USBD_StrDesc, length);
  }
  else
  {
    USBD_GetString((uint8_t *)USBD_PRODUCT_STRING_FS, USBD_StrDesc, length);
 8005dc0:	4905      	ldr	r1, [pc, #20]	; (8005dd8 <USBD_FS_ProductStrDescriptor+0x20>)
 8005dc2:	4806      	ldr	r0, [pc, #24]	; (8005ddc <USBD_FS_ProductStrDescriptor+0x24>)
 8005dc4:	f7fe fbbe 	bl	8004544 <USBD_GetString>
  }
  return USBD_StrDesc;
}
 8005dc8:	4803      	ldr	r0, [pc, #12]	; (8005dd8 <USBD_FS_ProductStrDescriptor+0x20>)
 8005dca:	bd10      	pop	{r4, pc}
    USBD_GetString((uint8_t *)USBD_PRODUCT_STRING_FS, USBD_StrDesc, length);
 8005dcc:	4902      	ldr	r1, [pc, #8]	; (8005dd8 <USBD_FS_ProductStrDescriptor+0x20>)
 8005dce:	4803      	ldr	r0, [pc, #12]	; (8005ddc <USBD_FS_ProductStrDescriptor+0x24>)
 8005dd0:	f7fe fbb8 	bl	8004544 <USBD_GetString>
 8005dd4:	e7f8      	b.n	8005dc8 <USBD_FS_ProductStrDescriptor+0x10>
 8005dd6:	46c0      	nop			; (mov r8, r8)
 8005dd8:	20000d60 	.word	0x20000d60
 8005ddc:	08006200 	.word	0x08006200

08005de0 <USBD_FS_ManufacturerStrDescriptor>:
  * @param  speed : Current device speed
  * @param  length : Pointer to data length variable
  * @retval Pointer to descriptor buffer
  */
uint8_t * USBD_FS_ManufacturerStrDescriptor(USBD_SpeedTypeDef speed, uint16_t *length)
{
 8005de0:	b510      	push	{r4, lr}
 8005de2:	000a      	movs	r2, r1
  USBD_GetString((uint8_t *)USBD_MANUFACTURER_STRING, USBD_StrDesc, length);
 8005de4:	4c03      	ldr	r4, [pc, #12]	; (8005df4 <USBD_FS_ManufacturerStrDescriptor+0x14>)
 8005de6:	0021      	movs	r1, r4
 8005de8:	4803      	ldr	r0, [pc, #12]	; (8005df8 <USBD_FS_ManufacturerStrDescriptor+0x18>)
 8005dea:	f7fe fbab 	bl	8004544 <USBD_GetString>
  return USBD_StrDesc;
}
 8005dee:	0020      	movs	r0, r4
 8005df0:	bd10      	pop	{r4, pc}
 8005df2:	46c0      	nop			; (mov r8, r8)
 8005df4:	20000d60 	.word	0x20000d60
 8005df8:	080061f4 	.word	0x080061f4

08005dfc <USBD_FS_SerialStrDescriptor>:
  * @param  speed : Current device speed
  * @param  length : Pointer to data length variable
  * @retval Pointer to descriptor buffer
  */
uint8_t * USBD_FS_SerialStrDescriptor(USBD_SpeedTypeDef speed, uint16_t *length)
{
 8005dfc:	b510      	push	{r4, lr}
 8005dfe:	000a      	movs	r2, r1
  if(speed == USBD_SPEED_HIGH)
 8005e00:	2800      	cmp	r0, #0
 8005e02:	d005      	beq.n	8005e10 <USBD_FS_SerialStrDescriptor+0x14>
  {
    USBD_GetString((uint8_t *)USBD_SERIALNUMBER_STRING_FS, USBD_StrDesc, length);
  }
  else
  {
    USBD_GetString((uint8_t *)USBD_SERIALNUMBER_STRING_FS, USBD_StrDesc, length);
 8005e04:	4905      	ldr	r1, [pc, #20]	; (8005e1c <USBD_FS_SerialStrDescriptor+0x20>)
 8005e06:	4806      	ldr	r0, [pc, #24]	; (8005e20 <USBD_FS_SerialStrDescriptor+0x24>)
 8005e08:	f7fe fb9c 	bl	8004544 <USBD_GetString>
  }
  return USBD_StrDesc;
}
 8005e0c:	4803      	ldr	r0, [pc, #12]	; (8005e1c <USBD_FS_SerialStrDescriptor+0x20>)
 8005e0e:	bd10      	pop	{r4, pc}
    USBD_GetString((uint8_t *)USBD_SERIALNUMBER_STRING_FS, USBD_StrDesc, length);
 8005e10:	4902      	ldr	r1, [pc, #8]	; (8005e1c <USBD_FS_SerialStrDescriptor+0x20>)
 8005e12:	4803      	ldr	r0, [pc, #12]	; (8005e20 <USBD_FS_SerialStrDescriptor+0x24>)
 8005e14:	f7fe fb96 	bl	8004544 <USBD_GetString>
 8005e18:	e7f8      	b.n	8005e0c <USBD_FS_SerialStrDescriptor+0x10>
 8005e1a:	46c0      	nop			; (mov r8, r8)
 8005e1c:	20000d60 	.word	0x20000d60
 8005e20:	0800621c 	.word	0x0800621c

08005e24 <USBD_FS_ConfigStrDescriptor>:
  * @param  speed : Current device speed
  * @param  length : Pointer to data length variable
  * @retval Pointer to descriptor buffer
  */
uint8_t * USBD_FS_ConfigStrDescriptor(USBD_SpeedTypeDef speed, uint16_t *length)
{
 8005e24:	b510      	push	{r4, lr}
 8005e26:	000a      	movs	r2, r1
  if(speed == USBD_SPEED_HIGH)
 8005e28:	2800      	cmp	r0, #0
 8005e2a:	d005      	beq.n	8005e38 <USBD_FS_ConfigStrDescriptor+0x14>
  {
    USBD_GetString((uint8_t *)USBD_CONFIGURATION_STRING_FS, USBD_StrDesc, length);
  }
  else
  {
    USBD_GetString((uint8_t *)USBD_CONFIGURATION_STRING_FS, USBD_StrDesc, length);
 8005e2c:	4905      	ldr	r1, [pc, #20]	; (8005e44 <USBD_FS_ConfigStrDescriptor+0x20>)
 8005e2e:	4806      	ldr	r0, [pc, #24]	; (8005e48 <USBD_FS_ConfigStrDescriptor+0x24>)
 8005e30:	f7fe fb88 	bl	8004544 <USBD_GetString>
  }
  return USBD_StrDesc;
}
 8005e34:	4803      	ldr	r0, [pc, #12]	; (8005e44 <USBD_FS_ConfigStrDescriptor+0x20>)
 8005e36:	bd10      	pop	{r4, pc}
    USBD_GetString((uint8_t *)USBD_CONFIGURATION_STRING_FS, USBD_StrDesc, length);
 8005e38:	4902      	ldr	r1, [pc, #8]	; (8005e44 <USBD_FS_ConfigStrDescriptor+0x20>)
 8005e3a:	4803      	ldr	r0, [pc, #12]	; (8005e48 <USBD_FS_ConfigStrDescriptor+0x24>)
 8005e3c:	f7fe fb82 	bl	8004544 <USBD_GetString>
 8005e40:	e7f8      	b.n	8005e34 <USBD_FS_ConfigStrDescriptor+0x10>
 8005e42:	46c0      	nop			; (mov r8, r8)
 8005e44:	20000d60 	.word	0x20000d60
 8005e48:	080061d8 	.word	0x080061d8

08005e4c <USBD_FS_InterfaceStrDescriptor>:
  * @param  speed : Current device speed
  * @param  length : Pointer to data length variable
  * @retval Pointer to descriptor buffer
  */
uint8_t * USBD_FS_InterfaceStrDescriptor(USBD_SpeedTypeDef speed, uint16_t *length)
{
 8005e4c:	b510      	push	{r4, lr}
 8005e4e:	000a      	movs	r2, r1
  if(speed == 0)
 8005e50:	2800      	cmp	r0, #0
 8005e52:	d005      	beq.n	8005e60 <USBD_FS_InterfaceStrDescriptor+0x14>
  {
    USBD_GetString((uint8_t *)USBD_INTERFACE_STRING_FS, USBD_StrDesc, length);
  }
  else
  {
    USBD_GetString((uint8_t *)USBD_INTERFACE_STRING_FS, USBD_StrDesc, length);
 8005e54:	4905      	ldr	r1, [pc, #20]	; (8005e6c <USBD_FS_InterfaceStrDescriptor+0x20>)
 8005e56:	4806      	ldr	r0, [pc, #24]	; (8005e70 <USBD_FS_InterfaceStrDescriptor+0x24>)
 8005e58:	f7fe fb74 	bl	8004544 <USBD_GetString>
  }
  return USBD_StrDesc;
}
 8005e5c:	4803      	ldr	r0, [pc, #12]	; (8005e6c <USBD_FS_InterfaceStrDescriptor+0x20>)
 8005e5e:	bd10      	pop	{r4, pc}
    USBD_GetString((uint8_t *)USBD_INTERFACE_STRING_FS, USBD_StrDesc, length);
 8005e60:	4902      	ldr	r1, [pc, #8]	; (8005e6c <USBD_FS_InterfaceStrDescriptor+0x20>)
 8005e62:	4803      	ldr	r0, [pc, #12]	; (8005e70 <USBD_FS_InterfaceStrDescriptor+0x24>)
 8005e64:	f7fe fb6e 	bl	8004544 <USBD_GetString>
 8005e68:	e7f8      	b.n	8005e5c <USBD_FS_InterfaceStrDescriptor+0x10>
 8005e6a:	46c0      	nop			; (mov r8, r8)
 8005e6c:	20000d60 	.word	0x20000d60
 8005e70:	080061e4 	.word	0x080061e4

08005e74 <Reset_Handler>:

  .section .text.Reset_Handler
  .weak Reset_Handler
  .type Reset_Handler, %function
Reset_Handler:
  ldr   r0, =_estack
 8005e74:	4813      	ldr	r0, [pc, #76]	; (8005ec4 <LoopForever+0x2>)
  mov   sp, r0          /* set stack pointer */
 8005e76:	4685      	mov	sp, r0

/*Check if boot space corresponds to test memory*/
 
    LDR R0,=0x00000004
 8005e78:	2004      	movs	r0, #4
    LDR R1, [R0]
 8005e7a:	6801      	ldr	r1, [r0, #0]
    LSRS R1, R1, #24
 8005e7c:	0e09      	lsrs	r1, r1, #24
    LDR R2,=0x1F
 8005e7e:	221f      	movs	r2, #31
    CMP R1, R2
 8005e80:	4291      	cmp	r1, r2
    BNE ApplicationStart
 8005e82:	d105      	bne.n	8005e90 <ApplicationStart>

 /*SYSCFG clock enable*/

    LDR R0,=0x40021018
 8005e84:	4810      	ldr	r0, [pc, #64]	; (8005ec8 <LoopForever+0x6>)
    LDR R1,=0x00000001
 8005e86:	2101      	movs	r1, #1
    STR R1, [R0]
 8005e88:	6001      	str	r1, [r0, #0]

/*Set CFGR1 register with flash memory remap at address 0*/
    LDR R0,=0x40010000
 8005e8a:	4810      	ldr	r0, [pc, #64]	; (8005ecc <LoopForever+0xa>)
    LDR R1,=0x00000000
 8005e8c:	2100      	movs	r1, #0
    STR R1, [R0]
 8005e8e:	6001      	str	r1, [r0, #0]

08005e90 <ApplicationStart>:

ApplicationStart:
/* Copy the data segment initializers from flash to SRAM */
  ldr r0, =_sdata
 8005e90:	480f      	ldr	r0, [pc, #60]	; (8005ed0 <LoopForever+0xe>)
  ldr r1, =_edata
 8005e92:	4910      	ldr	r1, [pc, #64]	; (8005ed4 <LoopForever+0x12>)
  ldr r2, =_sidata
 8005e94:	4a10      	ldr	r2, [pc, #64]	; (8005ed8 <LoopForever+0x16>)
  movs r3, #0
 8005e96:	2300      	movs	r3, #0
  b LoopCopyDataInit
 8005e98:	e002      	b.n	8005ea0 <LoopCopyDataInit>

08005e9a <CopyDataInit>:

CopyDataInit:
  ldr r4, [r2, r3]
 8005e9a:	58d4      	ldr	r4, [r2, r3]
  str r4, [r0, r3]
 8005e9c:	50c4      	str	r4, [r0, r3]
  adds r3, r3, #4
 8005e9e:	3304      	adds	r3, #4

08005ea0 <LoopCopyDataInit>:

LoopCopyDataInit:
  adds r4, r0, r3
 8005ea0:	18c4      	adds	r4, r0, r3
  cmp r4, r1
 8005ea2:	428c      	cmp	r4, r1
  bcc CopyDataInit
 8005ea4:	d3f9      	bcc.n	8005e9a <CopyDataInit>
  
/* Zero fill the bss segment. */
  ldr r2, =_sbss
 8005ea6:	4a0d      	ldr	r2, [pc, #52]	; (8005edc <LoopForever+0x1a>)
  ldr r4, =_ebss
 8005ea8:	4c0d      	ldr	r4, [pc, #52]	; (8005ee0 <LoopForever+0x1e>)
  movs r3, #0
 8005eaa:	2300      	movs	r3, #0
  b LoopFillZerobss
 8005eac:	e001      	b.n	8005eb2 <LoopFillZerobss>

08005eae <FillZerobss>:

FillZerobss:
  str  r3, [r2]
 8005eae:	6013      	str	r3, [r2, #0]
  adds r2, r2, #4
 8005eb0:	3204      	adds	r2, #4

08005eb2 <LoopFillZerobss>:

LoopFillZerobss:
  cmp r2, r4
 8005eb2:	42a2      	cmp	r2, r4
  bcc FillZerobss
 8005eb4:	d3fb      	bcc.n	8005eae <FillZerobss>

/* Call the clock system intitialization function.*/
  bl  SystemInit
 8005eb6:	f7ff fd49 	bl	800594c <SystemInit>
/* Call static constructors */
  bl __libc_init_array
 8005eba:	f000 f815 	bl	8005ee8 <__libc_init_array>
/* Call the application's entry point.*/
  bl main
 8005ebe:	f7fe fe3b 	bl	8004b38 <main>

08005ec2 <LoopForever>:

LoopForever:
    b LoopForever
 8005ec2:	e7fe      	b.n	8005ec2 <LoopForever>
  ldr   r0, =_estack
 8005ec4:	20001800 	.word	0x20001800
    LDR R0,=0x40021018
 8005ec8:	40021018 	.word	0x40021018
    LDR R0,=0x40010000
 8005ecc:	40010000 	.word	0x40010000
  ldr r0, =_sdata
 8005ed0:	20000000 	.word	0x20000000
  ldr r1, =_edata
 8005ed4:	20000160 	.word	0x20000160
  ldr r2, =_sidata
 8005ed8:	08006230 	.word	0x08006230
  ldr r2, =_sbss
 8005edc:	20000160 	.word	0x20000160
  ldr r4, =_ebss
 8005ee0:	20000f60 	.word	0x20000f60

08005ee4 <ADC1_IRQHandler>:
 * @retval : None
*/
    .section .text.Default_Handler,"ax",%progbits
Default_Handler:
Infinite_Loop:
  b Infinite_Loop
 8005ee4:	e7fe      	b.n	8005ee4 <ADC1_IRQHandler>
	...

08005ee8 <__libc_init_array>:
 8005ee8:	b570      	push	{r4, r5, r6, lr}
 8005eea:	2600      	movs	r6, #0
 8005eec:	4d0c      	ldr	r5, [pc, #48]	; (8005f20 <__libc_init_array+0x38>)
 8005eee:	4c0d      	ldr	r4, [pc, #52]	; (8005f24 <__libc_init_array+0x3c>)
 8005ef0:	1b64      	subs	r4, r4, r5
 8005ef2:	10a4      	asrs	r4, r4, #2
 8005ef4:	42a6      	cmp	r6, r4
 8005ef6:	d109      	bne.n	8005f0c <__libc_init_array+0x24>
 8005ef8:	2600      	movs	r6, #0
 8005efa:	f000 f82b 	bl	8005f54 <_init>
 8005efe:	4d0a      	ldr	r5, [pc, #40]	; (8005f28 <__libc_init_array+0x40>)
 8005f00:	4c0a      	ldr	r4, [pc, #40]	; (8005f2c <__libc_init_array+0x44>)
 8005f02:	1b64      	subs	r4, r4, r5
 8005f04:	10a4      	asrs	r4, r4, #2
 8005f06:	42a6      	cmp	r6, r4
 8005f08:	d105      	bne.n	8005f16 <__libc_init_array+0x2e>
 8005f0a:	bd70      	pop	{r4, r5, r6, pc}
 8005f0c:	00b3      	lsls	r3, r6, #2
 8005f0e:	58eb      	ldr	r3, [r5, r3]
 8005f10:	4798      	blx	r3
 8005f12:	3601      	adds	r6, #1
 8005f14:	e7ee      	b.n	8005ef4 <__libc_init_array+0xc>
 8005f16:	00b3      	lsls	r3, r6, #2
 8005f18:	58eb      	ldr	r3, [r5, r3]
 8005f1a:	4798      	blx	r3
 8005f1c:	3601      	adds	r6, #1
 8005f1e:	e7f2      	b.n	8005f06 <__libc_init_array+0x1e>
 8005f20:	08006228 	.word	0x08006228
 8005f24:	08006228 	.word	0x08006228
 8005f28:	08006228 	.word	0x08006228
 8005f2c:	0800622c 	.word	0x0800622c

08005f30 <memcpy>:
 8005f30:	2300      	movs	r3, #0
 8005f32:	b510      	push	{r4, lr}
 8005f34:	429a      	cmp	r2, r3
 8005f36:	d100      	bne.n	8005f3a <memcpy+0xa>
 8005f38:	bd10      	pop	{r4, pc}
 8005f3a:	5ccc      	ldrb	r4, [r1, r3]
 8005f3c:	54c4      	strb	r4, [r0, r3]
 8005f3e:	3301      	adds	r3, #1
 8005f40:	e7f8      	b.n	8005f34 <memcpy+0x4>

08005f42 <memset>:
 8005f42:	0003      	movs	r3, r0
 8005f44:	1882      	adds	r2, r0, r2
 8005f46:	4293      	cmp	r3, r2
 8005f48:	d100      	bne.n	8005f4c <memset+0xa>
 8005f4a:	4770      	bx	lr
 8005f4c:	7019      	strb	r1, [r3, #0]
 8005f4e:	3301      	adds	r3, #1
 8005f50:	e7f9      	b.n	8005f46 <memset+0x4>
	...

08005f54 <_init>:
 8005f54:	b5f8      	push	{r3, r4, r5, r6, r7, lr}
 8005f56:	46c0      	nop			; (mov r8, r8)
 8005f58:	bcf8      	pop	{r3, r4, r5, r6, r7}
 8005f5a:	bc08      	pop	{r3}
 8005f5c:	469e      	mov	lr, r3
 8005f5e:	4770      	bx	lr

08005f60 <_fini>:
 8005f60:	b5f8      	push	{r3, r4, r5, r6, r7, lr}
 8005f62:	46c0      	nop			; (mov r8, r8)
 8005f64:	bcf8      	pop	{r3, r4, r5, r6, r7}
 8005f66:	bc08      	pop	{r3}
 8005f68:	469e      	mov	lr, r3
 8005f6a:	4770      	bx	lr
